EXPORTS 
	?$TSS0@?1??get_instance@VideoStreamConfigStatics@video_stream_opencv@@CAPEBV23@XZ@4HA 	 DATA
	??_R0?AU?$Group_@V?$allocator@X@std@@@dynamic_reconfigure@@@8 	 DATA
	??_R0?AU?$ParamDescription_@V?$allocator@X@std@@@dynamic_reconfigure@@@8 	 DATA
	??_R0?AU?$checked_array_deleter@E@boost@@@8 	 DATA
	??_R0?AU?$wrapexcept@Vassignment_exception@assign@boost@@@boost@@@8 	 DATA
	??_R0?AU?$wrapexcept@Vbad_alloc@std@@@boost@@@8 	 DATA
	??_R0?AU?$wrapexcept@Vbad_any_cast@boost@@@boost@@@8 	 DATA
	??_R0?AU?$wrapexcept@Vbad_function_call@boost@@@boost@@@8 	 DATA
	??_R0?AU?$wrapexcept@Vlock_error@boost@@@boost@@@8 	 DATA
	??_R0?AU?$wrapexcept@Vthread_resource_error@boost@@@boost@@@8 	 DATA
	??_R0?AUthread_data_base@detail@boost@@@8 	 DATA
	??_R0?AV?$AbstractMetaObject@VNodelet@nodelet@@@impl@class_loader@@@8 	 DATA
	??_R0?AV?$GroupDescription@VDEFAULT@VideoStreamConfig@video_stream_opencv@@V23@@VideoStreamConfig@video_stream_opencv@@@8 	 DATA
	??_R0?AV?$MetaObject@VVideoStreamNodelet@video_stream_opencv@@VNodelet@nodelet@@@impl@class_loader@@@8 	 DATA
	??_R0?AV?$ParamDescription@H@VideoStreamConfig@video_stream_opencv@@@8 	 DATA
	??_R0?AV?$ParamDescription@N@VideoStreamConfig@video_stream_opencv@@@8 	 DATA
	??_R0?AV?$ParamDescription@V?$basic_string@DU?$char_traits@D@std@@V?$allocator@D@2@@std@@@VideoStreamConfig@video_stream_opencv@@@8 	 DATA
	??_R0?AV?$ParamDescription@_N@VideoStreamConfig@video_stream_opencv@@@8 	 DATA
	??_R0?AV?$ServiceCallbackHelperT@U?$ServiceSpec@U?$ReconfigureRequest_@V?$allocator@X@std@@@dynamic_reconfigure@@U?$ReconfigureResponse_@V?$allocator@X@std@@@2@@ros@@@ros@@@8 	 DATA
	??_R0?AV?$_Iosb@H@std@@@8 	 DATA
	??_R0?AV?$basic_ios@DU?$char_traits@D@std@@@std@@@8 	 DATA
	??_R0?AV?$basic_iostream@DU?$char_traits@D@std@@@std@@@8 	 DATA
	??_R0?AV?$basic_istream@DU?$char_traits@D@std@@@std@@@8 	 DATA
	??_R0?AV?$basic_ostream@DU?$char_traits@D@std@@@std@@@8 	 DATA
	??_R0?AV?$basic_streambuf@DU?$char_traits@D@std@@@std@@@8 	 DATA
	??_R0?AV?$basic_string@DU?$char_traits@D@std@@V?$allocator@D@2@@std@@@8 	 DATA
	??_R0?AV?$basic_stringbuf@DU?$char_traits@D@std@@V?$allocator@D@2@@std@@@8 	 DATA
	??_R0?AV?$basic_stringstream@DU?$char_traits@D@std@@V?$allocator@D@2@@std@@@8 	 DATA
	??_R0?AV?$bind_t@VSerializedMessage@ros@@P6A?AV12@AEBU?$ConfigDescription_@V?$allocator@X@std@@@dynamic_reconfigure@@@ZV?$list1@V?$reference_wrapper@$$CBU?$ConfigDescription_@V?$allocator@X@std@@@dynamic_reconfigure@@@boost@@@_bi@boost@@@_bi@boost@@@8 	 DATA
	??_R0?AV?$bind_t@VSerializedMessage@ros@@P6A?AV12@AEBU?$Config_@V?$allocator@X@std@@@dynamic_reconfigure@@@ZV?$list1@V?$reference_wrapper@$$CBU?$Config_@V?$allocator@X@std@@@dynamic_reconfigure@@@boost@@@_bi@boost@@@_bi@boost@@@8 	 DATA
	??_R0?AV?$bind_t@XV?$mf1@XVVideoStreamNodelet@video_stream_opencv@@AEBUTimerEvent@ros@@@_mfi@boost@@V?$list2@V?$value@PEAVVideoStreamNodelet@video_stream_opencv@@@_bi@boost@@U?$arg@$00@3@@_bi@3@@_bi@boost@@@8 	 DATA
	??_R0?AV?$bind_t@XV?$mf1@XVVideoStreamNodelet@video_stream_opencv@@AEBVSingleSubscriberPublisher@image_transport@@@_mfi@boost@@V?$list2@V?$value@PEAVVideoStreamNodelet@video_stream_opencv@@@_bi@boost@@U?$arg@$00@3@@_bi@3@@_bi@boost@@@8 	 DATA
	??_R0?AV?$bind_t@XV?$mf1@XVVideoStreamNodelet@video_stream_opencv@@AEBVSingleSubscriberPublisher@ros@@@_mfi@boost@@V?$list2@V?$value@PEAVVideoStreamNodelet@video_stream_opencv@@@_bi@boost@@U?$arg@$00@3@@_bi@3@@_bi@boost@@@8 	 DATA
	??_R0?AV?$bind_t@XV?$mf2@XVVideoStreamNodelet@video_stream_opencv@@AEAVVideoStreamConfig@2@I@_mfi@boost@@V?$list3@V?$value@PEAVVideoStreamNodelet@video_stream_opencv@@@_bi@boost@@U?$arg@$00@3@U?$arg@$01@3@@_bi@3@@_bi@boost@@@8 	 DATA
	??_R0?AV?$bind_t@_NV?$mf2@_NV?$Server@VVideoStreamConfig@video_stream_opencv@@@dynamic_reconfigure@@AEAU?$ReconfigureRequest_@V?$allocator@X@std@@@2@AEAU?$ReconfigureResponse_@V?$allocator@X@std@@@2@@_mfi@boost@@V?$list3@V?$value@PEAV?$Server@VVideoStreamConfig@video_stream_opencv@@@dynamic_reconfigure@@@_bi@boost@@U?$arg@$00@3@U?$arg@$01@3@@_bi@3@@_bi@boost@@@8 	 DATA
	??_R0?AV?$holder@H@any@boost@@@8 	 DATA
	??_R0?AV?$holder@N@any@boost@@@8 	 DATA
	??_R0?AV?$holder@PEAVDEFAULT@VideoStreamConfig@video_stream_opencv@@@any@boost@@@8 	 DATA
	??_R0?AV?$holder@PEAVVideoStreamConfig@video_stream_opencv@@@any@boost@@@8 	 DATA
	??_R0?AV?$holder@V?$basic_string@DU?$char_traits@D@std@@V?$allocator@D@2@@std@@@any@boost@@@8 	 DATA
	??_R0?AV?$holder@VDEFAULT@VideoStreamConfig@video_stream_opencv@@@any@boost@@@8 	 DATA
	??_R0?AV?$holder@VVideoStreamConfig@video_stream_opencv@@@any@boost@@@8 	 DATA
	??_R0?AV?$holder@_N@any@boost@@@8 	 DATA
	??_R0?AV?$sp_counted_impl_p@V?$GroupDescription@VDEFAULT@VideoStreamConfig@video_stream_opencv@@V23@@VideoStreamConfig@video_stream_opencv@@@detail@boost@@@8 	 DATA
	??_R0?AV?$sp_counted_impl_p@V?$ParamDescription@H@VideoStreamConfig@video_stream_opencv@@@detail@boost@@@8 	 DATA
	??_R0?AV?$sp_counted_impl_p@V?$ParamDescription@N@VideoStreamConfig@video_stream_opencv@@@detail@boost@@@8 	 DATA
	??_R0?AV?$sp_counted_impl_p@V?$ParamDescription@V?$basic_string@DU?$char_traits@D@std@@V?$allocator@D@2@@std@@@VideoStreamConfig@video_stream_opencv@@@detail@boost@@@8 	 DATA
	??_R0?AV?$sp_counted_impl_p@V?$ParamDescription@_N@VideoStreamConfig@video_stream_opencv@@@detail@boost@@@8 	 DATA
	??_R0?AV?$sp_counted_impl_p@VNodeHandle@ros@@@detail@boost@@@8 	 DATA
	??_R0?AV?$sp_counted_impl_p@VVideoCapture@cv@@@detail@boost@@@8 	 DATA
	??_R0?AV?$sp_counted_impl_pd@PEAEU?$checked_array_deleter@E@boost@@@detail@boost@@@8 	 DATA
	??_R0?AV?$sp_counted_impl_pd@PEAU?$ReconfigureRequest_@V?$allocator@X@std@@@dynamic_reconfigure@@V?$sp_ms_deleter@U?$ReconfigureRequest_@V?$allocator@X@std@@@dynamic_reconfigure@@@detail@boost@@@detail@boost@@@8 	 DATA
	??_R0?AV?$sp_counted_impl_pd@PEAU?$ReconfigureResponse_@V?$allocator@X@std@@@dynamic_reconfigure@@V?$sp_ms_deleter@U?$ReconfigureResponse_@V?$allocator@X@std@@@dynamic_reconfigure@@@detail@boost@@@detail@boost@@@8 	 DATA
	??_R0?AV?$sp_counted_impl_pd@PEAV?$Server@VVideoStreamConfig@video_stream_opencv@@@dynamic_reconfigure@@V?$sp_ms_deleter@V?$Server@VVideoStreamConfig@video_stream_opencv@@@dynamic_reconfigure@@@detail@boost@@@detail@boost@@@8 	 DATA
	??_R0?AV?$sp_counted_impl_pd@PEAV?$ServiceCallbackHelperT@U?$ServiceSpec@U?$ReconfigureRequest_@V?$allocator@X@std@@@dynamic_reconfigure@@U?$ReconfigureResponse_@V?$allocator@X@std@@@2@@ros@@@ros@@V?$sp_ms_deleter@V?$ServiceCallbackHelperT@U?$ServiceSpec@U?$ReconfigureRequest_@V?$allocator@X@std@@@dynamic_reconfigure@@U?$ReconfigureResponse_@V?$allocator@X@std@@@2@@ros@@@ros@@@detail@boost@@@detail@boost@@@8 	 DATA
	??_R0?AV?$sp_counted_impl_pd@PEAVCvImage@cv_bridge@@V?$sp_ms_deleter@VCvImage@cv_bridge@@@detail@boost@@@detail@boost@@@8 	 DATA
	??_R0?AV?$sp_ms_deleter@U?$ReconfigureRequest_@V?$allocator@X@std@@@dynamic_reconfigure@@@detail@boost@@@8 	 DATA
	??_R0?AV?$sp_ms_deleter@U?$ReconfigureResponse_@V?$allocator@X@std@@@dynamic_reconfigure@@@detail@boost@@@8 	 DATA
	??_R0?AV?$sp_ms_deleter@V?$Server@VVideoStreamConfig@video_stream_opencv@@@dynamic_reconfigure@@@detail@boost@@@8 	 DATA
	??_R0?AV?$sp_ms_deleter@V?$ServiceCallbackHelperT@U?$ServiceSpec@U?$ReconfigureRequest_@V?$allocator@X@std@@@dynamic_reconfigure@@U?$ReconfigureResponse_@V?$allocator@X@std@@@2@@ros@@@ros@@@detail@boost@@@8 	 DATA
	??_R0?AV?$sp_ms_deleter@VCvImage@cv_bridge@@@detail@boost@@@8 	 DATA
	??_R0?AV?$thread_data@V?$bind_t@XV?$mf0@XVVideoStreamNodelet@video_stream_opencv@@@_mfi@boost@@V?$list1@V?$value@PEAVVideoStreamNodelet@video_stream_opencv@@@_bi@boost@@@_bi@3@@_bi@boost@@@detail@boost@@@8 	 DATA
	??_R0?AVAbstractGroupDescription@VideoStreamConfig@video_stream_opencv@@@8 	 DATA
	??_R0?AVAbstractMetaObjectBase@impl@class_loader@@@8 	 DATA
	??_R0?AVAbstractParamDescription@VideoStreamConfig@video_stream_opencv@@@8 	 DATA
	??_R0?AVDEFAULT@VideoStreamConfig@video_stream_opencv@@@8 	 DATA
	??_R0?AVNodelet@nodelet@@@8 	 DATA
	??_R0?AVServiceCallbackHelper@ros@@@8 	 DATA
	??_R0?AVVideoStreamConfig@video_stream_opencv@@@8 	 DATA
	??_R0?AVVideoStreamNodelet@video_stream_opencv@@@8 	 DATA
	??_R0?AVassignment_exception@assign@boost@@@8 	 DATA
	??_R0?AVbad_alloc@std@@@8 	 DATA
	??_R0?AVbad_any_cast@boost@@@8 	 DATA
	??_R0?AVbad_array_new_length@std@@@8 	 DATA
	??_R0?AVbad_cast@std@@@8 	 DATA
	??_R0?AVbad_function_call@boost@@@8 	 DATA
	??_R0?AVclone_base@exception_detail@boost@@@8 	 DATA
	??_R0?AVerror_category@system@boost@@@8 	 DATA
	??_R0?AVexception@boost@@@8 	 DATA
	??_R0?AVexception@std@@@8 	 DATA
	??_R0?AVgeneric_error_category@detail@system@boost@@@8 	 DATA
	??_R0?AVinvalid_argument@std@@@8 	 DATA
	??_R0?AVios_base@std@@@8 	 DATA
	??_R0?AVlock_error@boost@@@8 	 DATA
	??_R0?AVplaceholder@any@boost@@@8 	 DATA
	??_R0?AVruntime_error@std@@@8 	 DATA
	??_R0?AVsp_counted_base@detail@boost@@@8 	 DATA
	??_R0?AVsystem_error@system@boost@@@8 	 DATA
	??_R0?AVsystem_error_category@detail@system@boost@@@8 	 DATA
	??_R0?AVthread_exception@boost@@@8 	 DATA
	??_R0?AVthread_resource_error@boost@@@8 	 DATA
	??_R0H@8 	 DATA
	??_R0N@8 	 DATA
	??_R0P6A?AV?$shared_ptr@U?$ReconfigureRequest_@V?$allocator@X@std@@@dynamic_reconfigure@@@boost@@XZ@8 	 DATA
	??_R0P6A?AV?$shared_ptr@U?$ReconfigureResponse_@V?$allocator@X@std@@@dynamic_reconfigure@@@boost@@XZ@8 	 DATA
	??_R0PEAVDEFAULT@VideoStreamConfig@video_stream_opencv@@@8 	 DATA
	??_R0PEAVVideoStreamConfig@video_stream_opencv@@@8 	 DATA
	??_R0X@8 	 DATA
	??_R0_N@8 	 DATA
	?_OptionsStorage@?1??__local_stdio_printf_options@@9@4_KA 	 DATA
	?__ros_log_stream_throttle__last_hit__@?CN@??do_capture@VideoStreamNodelet@video_stream_opencv@@MEAAXXZ@4NA 	 DATA
	?__ros_log_stream_throttle__last_hit__@?EC@??do_capture@VideoStreamNodelet@video_stream_opencv@@MEAAXXZ@4NA 	 DATA
	?__rosconsole_define_location__loc@?3??configCallback@VideoStreamNodelet@video_stream_opencv@@MEAAXAEAVVideoStreamConfig@3@I@Z@4ULogLocation@console@ros@@A 	 DATA
	?__rosconsole_define_location__loc@?3??do_capture@VideoStreamNodelet@video_stream_opencv@@MEAAXXZ@4ULogLocation@console@ros@@A 	 DATA
	?__rosconsole_define_location__loc@?3??get_default_camera_info_from_image@VideoStreamNodelet@video_stream_opencv@@MEAA?AU?$CameraInfo_@V?$allocator@X@std@@@sensor_msgs@@V?$shared_ptr@U?$Image_@V?$allocator@X@std@@@sensor_msgs@@@boost@@@Z@4ULogLocation@console@ros@@A 	 DATA
	?__rosconsole_define_location__loc@?3??subscribe@VideoStreamNodelet@video_stream_opencv@@MEAAXXZ@4ULogLocation@console@ros@@A 	 DATA
	?__rosconsole_define_location__loc@?3??unsubscribe@VideoStreamNodelet@video_stream_opencv@@MEAAXXZ@4ULogLocation@console@ros@@A 	 DATA
	?__rosconsole_define_location__loc@?7??callCallback@?$Server@VVideoStreamConfig@video_stream_opencv@@@dynamic_reconfigure@@AEAAXAEAVVideoStreamConfig@video_stream_opencv@@H@Z@4ULogLocation@console@ros@@A 	 DATA
	?__rosconsole_define_location__loc@?BAF@??configCallback@VideoStreamNodelet@video_stream_opencv@@MEAAXAEAVVideoStreamConfig@3@I@Z@4ULogLocation@console@ros@@A 	 DATA
	?__rosconsole_define_location__loc@?BB@??onInit@VideoStreamNodelet@video_stream_opencv@@MEAAXXZ@4ULogLocation@console@ros@@A 	 DATA
	?__rosconsole_define_location__loc@?BBK@??configCallback@VideoStreamNodelet@video_stream_opencv@@MEAAXAEAVVideoStreamConfig@3@I@Z@4ULogLocation@console@ros@@A 	 DATA
	?__rosconsole_define_location__loc@?BF@??subscribe@VideoStreamNodelet@video_stream_opencv@@MEAAXXZ@4ULogLocation@console@ros@@A 	 DATA
	?__rosconsole_define_location__loc@?BG@??get_default_camera_info_from_image@VideoStreamNodelet@video_stream_opencv@@MEAA?AU?$CameraInfo_@V?$allocator@X@std@@@sensor_msgs@@V?$shared_ptr@U?$Image_@V?$allocator@X@std@@@sensor_msgs@@@boost@@@Z@4ULogLocation@console@ros@@A 	 DATA
	?__rosconsole_define_location__loc@?BH@??configCallback@VideoStreamNodelet@video_stream_opencv@@MEAAXAEAVVideoStreamConfig@3@I@Z@4ULogLocation@console@ros@@A 	 DATA
	?__rosconsole_define_location__loc@?BJ@??callCallback@?$Server@VVideoStreamConfig@video_stream_opencv@@@dynamic_reconfigure@@AEAAXAEAVVideoStreamConfig@video_stream_opencv@@H@Z@4ULogLocation@console@ros@@A 	 DATA
	?__rosconsole_define_location__loc@?BJ@??do_publish@VideoStreamNodelet@video_stream_opencv@@MEAAXAEBUTimerEvent@ros@@@Z@4ULogLocation@console@5@A 	 DATA
	?__rosconsole_define_location__loc@?BK@??do_capture@VideoStreamNodelet@video_stream_opencv@@MEAAXXZ@4ULogLocation@console@ros@@A 	 DATA
	?__rosconsole_define_location__loc@?BP@??__fromMessage__@VideoStreamConfig@video_stream_opencv@@QEAA_NAEAU?$Config_@V?$allocator@X@std@@@dynamic_reconfigure@@@Z@4ULogLocation@console@ros@@A 	 DATA
	?__rosconsole_define_location__loc@?CI@??subscribe@VideoStreamNodelet@video_stream_opencv@@MEAAXXZ@4ULogLocation@console@ros@@A 	 DATA
	?__rosconsole_define_location__loc@?CK@??callCallback@?$Server@VVideoStreamConfig@video_stream_opencv@@@dynamic_reconfigure@@AEAAXAEAVVideoStreamConfig@video_stream_opencv@@H@Z@4ULogLocation@console@ros@@A 	 DATA
	?__rosconsole_define_location__loc@?CK@??configCallback@VideoStreamNodelet@video_stream_opencv@@MEAAXAEAVVideoStreamConfig@3@I@Z@4ULogLocation@console@ros@@A 	 DATA
	?__rosconsole_define_location__loc@?CN@??do_capture@VideoStreamNodelet@video_stream_opencv@@MEAAXXZ@4ULogLocation@console@ros@@A 	 DATA
	?__rosconsole_define_location__loc@?CO@??do_publish@VideoStreamNodelet@video_stream_opencv@@MEAAXAEBUTimerEvent@ros@@@Z@4ULogLocation@console@5@A 	 DATA
	?__rosconsole_define_location__loc@?DA@??__fromMessage__@VideoStreamConfig@video_stream_opencv@@QEAA_NAEAU?$Config_@V?$allocator@X@std@@@dynamic_reconfigure@@@Z@4ULogLocation@console@ros@@A 	 DATA
	?__rosconsole_define_location__loc@?DM@??configCallback@VideoStreamNodelet@video_stream_opencv@@MEAAXAEAVVideoStreamConfig@3@I@Z@4ULogLocation@console@ros@@A 	 DATA
	?__rosconsole_define_location__loc@?DN@??subscribe@VideoStreamNodelet@video_stream_opencv@@MEAAXXZ@4ULogLocation@console@ros@@A 	 DATA
	?__rosconsole_define_location__loc@?EA@??__fromMessage__@VideoStreamConfig@video_stream_opencv@@QEAA_NAEAU?$Config_@V?$allocator@X@std@@@dynamic_reconfigure@@@Z@4ULogLocation@console@ros@@A 	 DATA
	?__rosconsole_define_location__loc@?EC@??do_capture@VideoStreamNodelet@video_stream_opencv@@MEAAXXZ@4ULogLocation@console@ros@@A 	 DATA
	?__rosconsole_define_location__loc@?EO@??configCallback@VideoStreamNodelet@video_stream_opencv@@MEAAXAEAVVideoStreamConfig@3@I@Z@4ULogLocation@console@ros@@A 	 DATA
	?__rosconsole_define_location__loc@?FB@??__fromMessage__@VideoStreamConfig@video_stream_opencv@@QEAA_NAEAU?$Config_@V?$allocator@X@std@@@dynamic_reconfigure@@@Z@4ULogLocation@console@ros@@A 	 DATA
	?__rosconsole_define_location__loc@?FC@??subscribe@VideoStreamNodelet@video_stream_opencv@@MEAAXXZ@4ULogLocation@console@ros@@A 	 DATA
	?__rosconsole_define_location__loc@?FH@??do_capture@VideoStreamNodelet@video_stream_opencv@@MEAAXXZ@4ULogLocation@console@ros@@A 	 DATA
	?__rosconsole_define_location__loc@?GA@??configCallback@VideoStreamNodelet@video_stream_opencv@@MEAAXAEAVVideoStreamConfig@3@I@Z@4ULogLocation@console@ros@@A 	 DATA
	?__rosconsole_define_location__loc@?GB@??__fromMessage__@VideoStreamConfig@video_stream_opencv@@QEAA_NAEAU?$Config_@V?$allocator@X@std@@@dynamic_reconfigure@@@Z@4ULogLocation@console@ros@@A 	 DATA
	?__rosconsole_define_location__loc@?GH@??subscribe@VideoStreamNodelet@video_stream_opencv@@MEAAXXZ@4ULogLocation@console@ros@@A 	 DATA
	?__rosconsole_define_location__loc@?GP@??do_capture@VideoStreamNodelet@video_stream_opencv@@MEAAXXZ@4ULogLocation@console@ros@@A 	 DATA
	?__rosconsole_define_location__loc@?HC@??__fromMessage__@VideoStreamConfig@video_stream_opencv@@QEAA_NAEAU?$Config_@V?$allocator@X@std@@@dynamic_reconfigure@@@Z@4ULogLocation@console@ros@@A 	 DATA
	?__rosconsole_define_location__loc@?HC@??configCallback@VideoStreamNodelet@video_stream_opencv@@MEAAXAEAVVideoStreamConfig@3@I@Z@4ULogLocation@console@ros@@A 	 DATA
	?__rosconsole_define_location__loc@?HM@??subscribe@VideoStreamNodelet@video_stream_opencv@@MEAAXXZ@4ULogLocation@console@ros@@A 	 DATA
	?__rosconsole_define_location__loc@?IB@??do_capture@VideoStreamNodelet@video_stream_opencv@@MEAAXXZ@4ULogLocation@console@ros@@A 	 DATA
	?__rosconsole_define_location__loc@?IC@??__fromMessage__@VideoStreamConfig@video_stream_opencv@@QEAA_NAEAU?$Config_@V?$allocator@X@std@@@dynamic_reconfigure@@@Z@4ULogLocation@console@ros@@A 	 DATA
	?__rosconsole_define_location__loc@?IE@??configCallback@VideoStreamNodelet@video_stream_opencv@@MEAAXAEAVVideoStreamConfig@3@I@Z@4ULogLocation@console@ros@@A 	 DATA
	?__rosconsole_define_location__loc@?JB@??subscribe@VideoStreamNodelet@video_stream_opencv@@MEAAXXZ@4ULogLocation@console@ros@@A 	 DATA
	?__rosconsole_define_location__loc@?JD@??__fromMessage__@VideoStreamConfig@video_stream_opencv@@QEAA_NAEAU?$Config_@V?$allocator@X@std@@@dynamic_reconfigure@@@Z@4ULogLocation@console@ros@@A 	 DATA
	?__rosconsole_define_location__loc@?JG@??configCallback@VideoStreamNodelet@video_stream_opencv@@MEAAXAEAVVideoStreamConfig@3@I@Z@4ULogLocation@console@ros@@A 	 DATA
	?__rosconsole_define_location__loc@?JG@??do_capture@VideoStreamNodelet@video_stream_opencv@@MEAAXXZ@4ULogLocation@console@ros@@A 	 DATA
	?__rosconsole_define_location__loc@?KD@??subscribe@VideoStreamNodelet@video_stream_opencv@@MEAAXXZ@4ULogLocation@console@ros@@A 	 DATA
	?__rosconsole_define_location__loc@?KI@??configCallback@VideoStreamNodelet@video_stream_opencv@@MEAAXAEAVVideoStreamConfig@3@I@Z@4ULogLocation@console@ros@@A 	 DATA
	?__rosconsole_define_location__loc@?LH@??subscribe@VideoStreamNodelet@video_stream_opencv@@MEAAXXZ@4ULogLocation@console@ros@@A 	 DATA
	?__rosconsole_define_location__loc@?LK@??configCallback@VideoStreamNodelet@video_stream_opencv@@MEAAXAEAVVideoStreamConfig@3@I@Z@4ULogLocation@console@ros@@A 	 DATA
	?__rosconsole_define_location__loc@?MK@??subscribe@VideoStreamNodelet@video_stream_opencv@@MEAAXXZ@4ULogLocation@console@ros@@A 	 DATA
	?__rosconsole_define_location__loc@?MM@??configCallback@VideoStreamNodelet@video_stream_opencv@@MEAAXAEAVVideoStreamConfig@3@I@Z@4ULogLocation@console@ros@@A 	 DATA
	?__rosconsole_define_location__loc@?NP@??subscribe@VideoStreamNodelet@video_stream_opencv@@MEAAXXZ@4ULogLocation@console@ros@@A 	 DATA
	?__rosconsole_define_location__loc@?OB@??configCallback@VideoStreamNodelet@video_stream_opencv@@MEAAXAEAVVideoStreamConfig@3@I@Z@4ULogLocation@console@ros@@A 	 DATA
	?__rosconsole_define_location__loc@?P@??__fromMessage__@VideoStreamConfig@video_stream_opencv@@QEAA_NAEAU?$Config_@V?$allocator@X@std@@@dynamic_reconfigure@@@Z@4ULogLocation@console@ros@@A 	 DATA
	?__rosconsole_define_location__loc@?PD@??configCallback@VideoStreamNodelet@video_stream_opencv@@MEAAXAEAVVideoStreamConfig@3@I@Z@4ULogLocation@console@ros@@A 	 DATA
	?__rosconsole_define_location__loc@?PL@??subscribe@VideoStreamNodelet@video_stream_opencv@@MEAAXXZ@4ULogLocation@console@ros@@A 	 DATA
	?instance@?1??get_instance@VideoStreamConfigStatics@video_stream_opencv@@CAPEBV23@XZ@4V23@A 	 DATA
	?setup@?1??__fromServer__@VideoStreamConfig@video_stream_opencv@@QEAAXAEBVNodeHandle@ros@@@Z@4_NA 	 DATA
	?statics@?1??__get_statics__@VideoStreamConfig@video_stream_opencv@@CAPEBVVideoStreamConfigStatics@3@XZ@4PEBV43@EB 	 DATA
	??$?0$$V@?$_Compressed_pair@V?$allocator@D@std@@V?$_String_val@U?$_Simple_types@D@std@@@2@$00@std@@QEAA@U_Zero_then_variadic_args_t@1@@Z
	??$?0$$V@?$_Compressed_pair@V?$allocator@N@std@@V?$_Deque_val@U?$_Deque_simple_types@N@std@@@2@$00@std@@QEAA@U_Zero_then_variadic_args_t@1@@Z
	??$?0$$V@?$_Compressed_pair@V?$allocator@N@std@@V?$_Vector_val@U?$_Simple_types@N@std@@@2@$00@std@@QEAA@U_Zero_then_variadic_args_t@1@@Z
	??$?0$$V@?$_Compressed_pair@V?$allocator@U?$BoolParameter_@V?$allocator@X@std@@@dynamic_reconfigure@@@std@@V?$_Vector_val@U?$_Simple_types@U?$BoolParameter_@V?$allocator@X@std@@@dynamic_reconfigure@@@std@@@2@$00@std@@QEAA@U_Zero_then_variadic_args_t@1@@Z
	??$?0$$V@?$_Compressed_pair@V?$allocator@U?$DoubleParameter_@V?$allocator@X@std@@@dynamic_reconfigure@@@std@@V?$_Vector_val@U?$_Simple_types@U?$DoubleParameter_@V?$allocator@X@std@@@dynamic_reconfigure@@@std@@@2@$00@std@@QEAA@U_Zero_then_variadic_args_t@1@@Z
	??$?0$$V@?$_Compressed_pair@V?$allocator@U?$GroupState_@V?$allocator@X@std@@@dynamic_reconfigure@@@std@@V?$_Vector_val@U?$_Simple_types@U?$GroupState_@V?$allocator@X@std@@@dynamic_reconfigure@@@std@@@2@$00@std@@QEAA@U_Zero_then_variadic_args_t@1@@Z
	??$?0$$V@?$_Compressed_pair@V?$allocator@U?$Group_@V?$allocator@X@std@@@dynamic_reconfigure@@@std@@V?$_Vector_val@U?$_Simple_types@U?$Group_@V?$allocator@X@std@@@dynamic_reconfigure@@@std@@@2@$00@std@@QEAA@U_Zero_then_variadic_args_t@1@@Z
	??$?0$$V@?$_Compressed_pair@V?$allocator@U?$IntParameter_@V?$allocator@X@std@@@dynamic_reconfigure@@@std@@V?$_Vector_val@U?$_Simple_types@U?$IntParameter_@V?$allocator@X@std@@@dynamic_reconfigure@@@std@@@2@$00@std@@QEAA@U_Zero_then_variadic_args_t@1@@Z
	??$?0$$V@?$_Compressed_pair@V?$allocator@U?$ParamDescription_@V?$allocator@X@std@@@dynamic_reconfigure@@@std@@V?$_Vector_val@U?$_Simple_types@U?$ParamDescription_@V?$allocator@X@std@@@dynamic_reconfigure@@@std@@@2@$00@std@@QEAA@U_Zero_then_variadic_args_t@1@@Z
	??$?0$$V@?$_Compressed_pair@V?$allocator@U?$StrParameter_@V?$allocator@X@std@@@dynamic_reconfigure@@@std@@V?$_Vector_val@U?$_Simple_types@U?$StrParameter_@V?$allocator@X@std@@@dynamic_reconfigure@@@std@@@2@$00@std@@QEAA@U_Zero_then_variadic_args_t@1@@Z
	??$?0$$V@?$_Compressed_pair@V?$allocator@V?$shared_ptr@$$CBVAbstractGroupDescription@VideoStreamConfig@video_stream_opencv@@@boost@@@std@@V?$_Vector_val@U?$_Simple_types@V?$shared_ptr@$$CBVAbstractGroupDescription@VideoStreamConfig@video_stream_opencv@@@boost@@@std@@@2@$00@std@@QEAA@U_Zero_then_variadic_args_t@1@@Z
	??$?0$$V@?$_Compressed_pair@V?$allocator@V?$shared_ptr@$$CBVAbstractParamDescription@VideoStreamConfig@video_stream_opencv@@@boost@@@std@@V?$_Vector_val@U?$_Simple_types@V?$shared_ptr@$$CBVAbstractParamDescription@VideoStreamConfig@video_stream_opencv@@@boost@@@std@@@2@$00@std@@QEAA@U_Zero_then_variadic_args_t@1@@Z
	??$?0$$V@?$_Compressed_pair@V?$allocator@VMat@cv@@@std@@V?$_Deque_val@U?$_Deque_simple_types@VMat@cv@@@std@@@2@$00@std@@QEAA@U_Zero_then_variadic_args_t@1@@Z
	??$?0$$V@?$_Compressed_pair@V?$allocator@_W@std@@V?$_String_val@U?$_Simple_types@_W@std@@@2@$00@std@@QEAA@U_Zero_then_variadic_args_t@1@@Z
	??$?0AEBQEAU?$_Tree_node@U?$pair@$$CBV?$basic_string@DU?$char_traits@D@std@@V?$allocator@D@2@@std@@PEAVAbstractMetaObjectBase@impl@class_loader@@@std@@PEAX@std@@_N$0A@@?$pair@PEAU?$_Tree_node@U?$pair@$$CBV?$basic_string@DU?$char_traits@D@std@@V?$allocator@D@2@@std@@PEAVAbstractMetaObjectBase@impl@class_loader@@@std@@PEAX@std@@_N@std@@QEAA@AEBQEAU?$_Tree_node@U?$pair@$$CBV?$basic_string@DU?$char_traits@D@std@@V?$allocator@D@2@@std@@PEAVAbstractMetaObjectBase@impl@class_loader@@@std@@PEAX@1@$$QEA_N@Z
	??$?0AEBUpiecewise_construct_t@std@@V?$tuple@AEBV?$basic_string@DU?$char_traits@D@std@@V?$allocator@D@2@@std@@@1@V?$tuple@$$V@1@@?$_Tree_temp_node@V?$allocator@U?$_Tree_node@U?$pair@$$CBV?$basic_string@DU?$char_traits@D@std@@V?$allocator@D@2@@std@@PEAVAbstractMetaObjectBase@impl@class_loader@@@std@@PEAX@std@@@std@@@std@@QEAA@AEAV?$allocator@U?$_Tree_node@U?$pair@$$CBV?$basic_string@DU?$char_traits@D@std@@V?$allocator@D@2@@std@@PEAVAbstractMetaObjectBase@impl@class_loader@@@std@@PEAX@std@@@1@PEAU?$_Tree_node@U?$pair@$$CBV?$basic_string@DU?$char_traits@D@std@@V?$allocator@D@2@@std@@PEAVAbstractMetaObjectBase@impl@class_loader@@@std@@PEAX@1@AEBUpiecewise_construct_t@1@$$QEAV?$tuple@AEBV?$basic_string@DU?$char_traits@D@std@@V?$allocator@D@2@@std@@@1@$$QEAV?$tuple@$$V@1@@Z
	??$?0AEBV?$basic_string@DU?$char_traits@D@std@@V?$allocator@D@2@@std@@$$Z$$V@?$pair@$$CBV?$basic_string@DU?$char_traits@D@std@@V?$allocator@D@2@@std@@PEAVAbstractMetaObjectBase@impl@class_loader@@@std@@QEAA@Upiecewise_construct_t@1@V?$tuple@AEBV?$basic_string@DU?$char_traits@D@std@@V?$allocator@D@2@@std@@@1@V?$tuple@$$V@1@@Z
	??$?0AEBV?$basic_string@DU?$char_traits@D@std@@V?$allocator@D@2@@std@@$0A@@?$tuple@AEBV?$basic_string@DU?$char_traits@D@std@@V?$allocator@D@2@@std@@@std@@QEAA@AEBV?$basic_string@DU?$char_traits@D@std@@V?$allocator@D@2@@1@@Z
	??$?0AEBV?$basic_string@DU?$char_traits@D@std@@V?$allocator@D@2@@std@@@?$_Tuple_val@AEBV?$basic_string@DU?$char_traits@D@std@@V?$allocator@D@2@@std@@@std@@QEAA@AEBV?$basic_string@DU?$char_traits@D@std@@V?$allocator@D@2@@1@@Z
	??$?0E@?$shared_array@E@boost@@QEAA@PEAE@Z
	??$?0H@any@boost@@QEAA@AEBH@Z
	??$?0N@?$allocator@PEAN@std@@QEAA@AEBV?$allocator@N@1@@Z
	??$?0N@?$allocator@U_Container_proxy@std@@@std@@QEAA@AEBV?$allocator@N@1@@Z
	??$?0N@any@boost@@QEAA@AEBN@Z
	??$?0P6A?AV?$shared_ptr@U?$ReconfigureRequest_@V?$allocator@X@std@@@dynamic_reconfigure@@@boost@@XZ@?$function0@V?$shared_ptr@U?$ReconfigureRequest_@V?$allocator@X@std@@@dynamic_reconfigure@@@boost@@@boost@@QEAA@P6A?AV?$shared_ptr@U?$ReconfigureRequest_@V?$allocator@X@std@@@dynamic_reconfigure@@@1@XZH@Z
	??$?0P6A?AV?$shared_ptr@U?$ReconfigureRequest_@V?$allocator@X@std@@@dynamic_reconfigure@@@boost@@XZ@?$function@$$A6A?AV?$shared_ptr@U?$ReconfigureRequest_@V?$allocator@X@std@@@dynamic_reconfigure@@@boost@@XZ@boost@@QEAA@P6A?AV?$shared_ptr@U?$ReconfigureRequest_@V?$allocator@X@std@@@dynamic_reconfigure@@@1@XZH@Z
	??$?0P6A?AV?$shared_ptr@U?$ReconfigureResponse_@V?$allocator@X@std@@@dynamic_reconfigure@@@boost@@XZ@?$function0@V?$shared_ptr@U?$ReconfigureResponse_@V?$allocator@X@std@@@dynamic_reconfigure@@@boost@@@boost@@QEAA@P6A?AV?$shared_ptr@U?$ReconfigureResponse_@V?$allocator@X@std@@@dynamic_reconfigure@@@1@XZH@Z
	??$?0P6A?AV?$shared_ptr@U?$ReconfigureResponse_@V?$allocator@X@std@@@dynamic_reconfigure@@@boost@@XZ@?$function@$$A6A?AV?$shared_ptr@U?$ReconfigureResponse_@V?$allocator@X@std@@@dynamic_reconfigure@@@boost@@XZ@boost@@QEAA@P6A?AV?$shared_ptr@U?$ReconfigureResponse_@V?$allocator@X@std@@@dynamic_reconfigure@@@1@XZH@Z
	??$?0PEAEU?$checked_array_deleter@E@boost@@@shared_count@detail@boost@@QEAA@PEAEU?$checked_array_deleter@E@2@@Z
	??$?0PEAU?$ReconfigureRequest_@V?$allocator@X@std@@@dynamic_reconfigure@@V?$sp_ms_deleter@U?$ReconfigureRequest_@V?$allocator@X@std@@@dynamic_reconfigure@@@detail@boost@@@shared_count@detail@boost@@QEAA@PEAU?$ReconfigureRequest_@V?$allocator@X@std@@@dynamic_reconfigure@@U?$sp_inplace_tag@V?$sp_ms_deleter@U?$ReconfigureRequest_@V?$allocator@X@std@@@dynamic_reconfigure@@@detail@boost@@@12@@Z
	??$?0PEAU?$ReconfigureResponse_@V?$allocator@X@std@@@dynamic_reconfigure@@V?$sp_ms_deleter@U?$ReconfigureResponse_@V?$allocator@X@std@@@dynamic_reconfigure@@@detail@boost@@@shared_count@detail@boost@@QEAA@PEAU?$ReconfigureResponse_@V?$allocator@X@std@@@dynamic_reconfigure@@U?$sp_inplace_tag@V?$sp_ms_deleter@U?$ReconfigureResponse_@V?$allocator@X@std@@@dynamic_reconfigure@@@detail@boost@@@12@@Z
	??$?0PEAU?$_Tree_node@U?$pair@$$CBV?$basic_string@DU?$char_traits@D@std@@V?$allocator@D@2@@std@@PEAVAbstractMetaObjectBase@impl@class_loader@@@std@@PEAX@std@@_N$0A@@?$pair@PEAU?$_Tree_node@U?$pair@$$CBV?$basic_string@DU?$char_traits@D@std@@V?$allocator@D@2@@std@@PEAVAbstractMetaObjectBase@impl@class_loader@@@std@@PEAX@std@@_N@std@@QEAA@$$QEAPEAU?$_Tree_node@U?$pair@$$CBV?$basic_string@DU?$char_traits@D@std@@V?$allocator@D@2@@std@@PEAVAbstractMetaObjectBase@impl@class_loader@@@std@@PEAX@1@$$QEA_N@Z
	??$?0PEAV?$Server@VVideoStreamConfig@video_stream_opencv@@@dynamic_reconfigure@@V?$sp_ms_deleter@V?$Server@VVideoStreamConfig@video_stream_opencv@@@dynamic_reconfigure@@@detail@boost@@@shared_count@detail@boost@@QEAA@PEAV?$Server@VVideoStreamConfig@video_stream_opencv@@@dynamic_reconfigure@@U?$sp_inplace_tag@V?$sp_ms_deleter@V?$Server@VVideoStreamConfig@video_stream_opencv@@@dynamic_reconfigure@@@detail@boost@@@12@@Z
	??$?0PEAV?$ServiceCallbackHelperT@U?$ServiceSpec@U?$ReconfigureRequest_@V?$allocator@X@std@@@dynamic_reconfigure@@U?$ReconfigureResponse_@V?$allocator@X@std@@@2@@ros@@@ros@@V?$sp_ms_deleter@V?$ServiceCallbackHelperT@U?$ServiceSpec@U?$ReconfigureRequest_@V?$allocator@X@std@@@dynamic_reconfigure@@U?$ReconfigureResponse_@V?$allocator@X@std@@@2@@ros@@@ros@@@detail@boost@@@shared_count@detail@boost@@QEAA@PEAV?$ServiceCallbackHelperT@U?$ServiceSpec@U?$ReconfigureRequest_@V?$allocator@X@std@@@dynamic_reconfigure@@U?$ReconfigureResponse_@V?$allocator@X@std@@@2@@ros@@@ros@@U?$sp_inplace_tag@V?$sp_ms_deleter@V?$ServiceCallbackHelperT@U?$ServiceSpec@U?$ReconfigureRequest_@V?$allocator@X@std@@@dynamic_reconfigure@@U?$ReconfigureResponse_@V?$allocator@X@std@@@2@@ros@@@ros@@@detail@boost@@@12@@Z
	??$?0PEAVCvImage@cv_bridge@@V?$sp_ms_deleter@VCvImage@cv_bridge@@@detail@boost@@@shared_count@detail@boost@@QEAA@PEAVCvImage@cv_bridge@@U?$sp_inplace_tag@V?$sp_ms_deleter@VCvImage@cv_bridge@@@detail@boost@@@12@@Z
	??$?0PEAVDEFAULT@VideoStreamConfig@video_stream_opencv@@@any@boost@@QEAA@$$QEAPEAVDEFAULT@VideoStreamConfig@video_stream_opencv@@PEAX1@Z
	??$?0PEAVVideoStreamConfig@video_stream_opencv@@@any@boost@@QEAA@$$QEAPEAVVideoStreamConfig@video_stream_opencv@@PEAX1@Z
	??$?0U?$ReconfigureRequest_@V?$allocator@X@std@@@dynamic_reconfigure@@@?$shared_ptr@U?$ReconfigureRequest_@V?$allocator@X@std@@@dynamic_reconfigure@@@boost@@QEAA@AEBV01@PEAU?$ReconfigureRequest_@V?$allocator@X@std@@@dynamic_reconfigure@@@Z
	??$?0U?$ReconfigureRequest_@V?$allocator@X@std@@@dynamic_reconfigure@@U?$sp_inplace_tag@V?$sp_ms_deleter@U?$ReconfigureRequest_@V?$allocator@X@std@@@dynamic_reconfigure@@@detail@boost@@@detail@boost@@@?$shared_ptr@U?$ReconfigureRequest_@V?$allocator@X@std@@@dynamic_reconfigure@@@boost@@QEAA@PEAU?$ReconfigureRequest_@V?$allocator@X@std@@@dynamic_reconfigure@@U?$sp_inplace_tag@V?$sp_ms_deleter@U?$ReconfigureRequest_@V?$allocator@X@std@@@dynamic_reconfigure@@@detail@boost@@@detail@1@@Z
	??$?0U?$ReconfigureResponse_@V?$allocator@X@std@@@dynamic_reconfigure@@@?$shared_ptr@U?$ReconfigureResponse_@V?$allocator@X@std@@@dynamic_reconfigure@@@boost@@QEAA@AEBV01@PEAU?$ReconfigureResponse_@V?$allocator@X@std@@@dynamic_reconfigure@@@Z
	??$?0U?$ReconfigureResponse_@V?$allocator@X@std@@@dynamic_reconfigure@@U?$sp_inplace_tag@V?$sp_ms_deleter@U?$ReconfigureResponse_@V?$allocator@X@std@@@dynamic_reconfigure@@@detail@boost@@@detail@boost@@@?$shared_ptr@U?$ReconfigureResponse_@V?$allocator@X@std@@@dynamic_reconfigure@@@boost@@QEAA@PEAU?$ReconfigureResponse_@V?$allocator@X@std@@@dynamic_reconfigure@@U?$sp_inplace_tag@V?$sp_ms_deleter@U?$ReconfigureResponse_@V?$allocator@X@std@@@dynamic_reconfigure@@@detail@boost@@@detail@1@@Z
	??$?0U_Exact_args_t@std@@$0A@@?$tuple@$$V@std@@QEAA@U_Exact_args_t@1@@Z
	??$?0U_Exact_args_t@std@@AEBV?$basic_string@DU?$char_traits@D@std@@V?$allocator@D@2@@1@$$V$0A@@?$tuple@AEBV?$basic_string@DU?$char_traits@D@std@@V?$allocator@D@2@@std@@@std@@QEAA@U_Exact_args_t@1@AEBV?$basic_string@DU?$char_traits@D@std@@V?$allocator@D@2@@1@@Z
	??$?0V?$GroupDescription@VDEFAULT@VideoStreamConfig@video_stream_opencv@@V23@@VideoStreamConfig@video_stream_opencv@@@?$shared_ptr@$$CBVAbstractGroupDescription@VideoStreamConfig@video_stream_opencv@@@boost@@QEAA@PEAV?$GroupDescription@VDEFAULT@VideoStreamConfig@video_stream_opencv@@V23@@VideoStreamConfig@video_stream_opencv@@@Z
	??$?0V?$GroupDescription@VDEFAULT@VideoStreamConfig@video_stream_opencv@@V23@@VideoStreamConfig@video_stream_opencv@@@shared_count@detail@boost@@QEAA@PEAV?$GroupDescription@VDEFAULT@VideoStreamConfig@video_stream_opencv@@V23@@VideoStreamConfig@video_stream_opencv@@@Z
	??$?0V?$ParamDescription@H@VideoStreamConfig@video_stream_opencv@@@?$shared_ptr@$$CBVAbstractParamDescription@VideoStreamConfig@video_stream_opencv@@@boost@@QEAA@PEAV?$ParamDescription@H@VideoStreamConfig@video_stream_opencv@@@Z
	??$?0V?$ParamDescription@H@VideoStreamConfig@video_stream_opencv@@@shared_count@detail@boost@@QEAA@PEAV?$ParamDescription@H@VideoStreamConfig@video_stream_opencv@@@Z
	??$?0V?$ParamDescription@N@VideoStreamConfig@video_stream_opencv@@@?$shared_ptr@$$CBVAbstractParamDescription@VideoStreamConfig@video_stream_opencv@@@boost@@QEAA@PEAV?$ParamDescription@N@VideoStreamConfig@video_stream_opencv@@@Z
	??$?0V?$ParamDescription@N@VideoStreamConfig@video_stream_opencv@@@shared_count@detail@boost@@QEAA@PEAV?$ParamDescription@N@VideoStreamConfig@video_stream_opencv@@@Z
	??$?0V?$ParamDescription@V?$basic_string@DU?$char_traits@D@std@@V?$allocator@D@2@@std@@@VideoStreamConfig@video_stream_opencv@@@?$shared_ptr@$$CBVAbstractParamDescription@VideoStreamConfig@video_stream_opencv@@@boost@@QEAA@PEAV?$ParamDescription@V?$basic_string@DU?$char_traits@D@std@@V?$allocator@D@2@@std@@@VideoStreamConfig@video_stream_opencv@@@Z
	??$?0V?$ParamDescription@V?$basic_string@DU?$char_traits@D@std@@V?$allocator@D@2@@std@@@VideoStreamConfig@video_stream_opencv@@@shared_count@detail@boost@@QEAA@PEAV?$ParamDescription@V?$basic_string@DU?$char_traits@D@std@@V?$allocator@D@2@@std@@@VideoStreamConfig@video_stream_opencv@@@Z
	??$?0V?$ParamDescription@_N@VideoStreamConfig@video_stream_opencv@@@?$shared_ptr@$$CBVAbstractParamDescription@VideoStreamConfig@video_stream_opencv@@@boost@@QEAA@PEAV?$ParamDescription@_N@VideoStreamConfig@video_stream_opencv@@@Z
	??$?0V?$ParamDescription@_N@VideoStreamConfig@video_stream_opencv@@@shared_count@detail@boost@@QEAA@PEAV?$ParamDescription@_N@VideoStreamConfig@video_stream_opencv@@@Z
	??$?0V?$Server@VVideoStreamConfig@video_stream_opencv@@@dynamic_reconfigure@@@?$shared_ptr@V?$Server@VVideoStreamConfig@video_stream_opencv@@@dynamic_reconfigure@@@boost@@QEAA@AEBV01@PEAV?$Server@VVideoStreamConfig@video_stream_opencv@@@dynamic_reconfigure@@@Z
	??$?0V?$Server@VVideoStreamConfig@video_stream_opencv@@@dynamic_reconfigure@@U?$sp_inplace_tag@V?$sp_ms_deleter@V?$Server@VVideoStreamConfig@video_stream_opencv@@@dynamic_reconfigure@@@detail@boost@@@detail@boost@@@?$shared_ptr@V?$Server@VVideoStreamConfig@video_stream_opencv@@@dynamic_reconfigure@@@boost@@QEAA@PEAV?$Server@VVideoStreamConfig@video_stream_opencv@@@dynamic_reconfigure@@U?$sp_inplace_tag@V?$sp_ms_deleter@V?$Server@VVideoStreamConfig@video_stream_opencv@@@dynamic_reconfigure@@@detail@boost@@@detail@1@@Z
	??$?0V?$ServiceCallbackHelperT@U?$ServiceSpec@U?$ReconfigureRequest_@V?$allocator@X@std@@@dynamic_reconfigure@@U?$ReconfigureResponse_@V?$allocator@X@std@@@2@@ros@@@ros@@@?$shared_ptr@V?$ServiceCallbackHelperT@U?$ServiceSpec@U?$ReconfigureRequest_@V?$allocator@X@std@@@dynamic_reconfigure@@U?$ReconfigureResponse_@V?$allocator@X@std@@@2@@ros@@@ros@@@boost@@QEAA@AEBV01@PEAV?$ServiceCallbackHelperT@U?$ServiceSpec@U?$ReconfigureRequest_@V?$allocator@X@std@@@dynamic_reconfigure@@U?$ReconfigureResponse_@V?$allocator@X@std@@@2@@ros@@@ros@@@Z
	??$?0V?$ServiceCallbackHelperT@U?$ServiceSpec@U?$ReconfigureRequest_@V?$allocator@X@std@@@dynamic_reconfigure@@U?$ReconfigureResponse_@V?$allocator@X@std@@@2@@ros@@@ros@@@?$shared_ptr@VServiceCallbackHelper@ros@@@boost@@QEAA@$$QEAV?$shared_ptr@V?$ServiceCallbackHelperT@U?$ServiceSpec@U?$ReconfigureRequest_@V?$allocator@X@std@@@dynamic_reconfigure@@U?$ReconfigureResponse_@V?$allocator@X@std@@@2@@ros@@@ros@@@1@Usp_empty@detail@1@@Z
	??$?0V?$ServiceCallbackHelperT@U?$ServiceSpec@U?$ReconfigureRequest_@V?$allocator@X@std@@@dynamic_reconfigure@@U?$ReconfigureResponse_@V?$allocator@X@std@@@2@@ros@@@ros@@U?$sp_inplace_tag@V?$sp_ms_deleter@V?$ServiceCallbackHelperT@U?$ServiceSpec@U?$ReconfigureRequest_@V?$allocator@X@std@@@dynamic_reconfigure@@U?$ReconfigureResponse_@V?$allocator@X@std@@@2@@ros@@@ros@@@detail@boost@@@detail@boost@@@?$shared_ptr@V?$ServiceCallbackHelperT@U?$ServiceSpec@U?$ReconfigureRequest_@V?$allocator@X@std@@@dynamic_reconfigure@@U?$ReconfigureResponse_@V?$allocator@X@std@@@2@@ros@@@ros@@@boost@@QEAA@PEAV?$ServiceCallbackHelperT@U?$ServiceSpec@U?$ReconfigureRequest_@V?$allocator@X@std@@@dynamic_reconfigure@@U?$ReconfigureResponse_@V?$allocator@X@std@@@2@@ros@@@ros@@U?$sp_inplace_tag@V?$sp_ms_deleter@V?$ServiceCallbackHelperT@U?$ServiceSpec@U?$ReconfigureRequest_@V?$allocator@X@std@@@dynamic_reconfigure@@U?$ReconfigureResponse_@V?$allocator@X@std@@@2@@ros@@@ros@@@detail@boost@@@detail@1@@Z
	??$?0V?$allocator@D@std@@$$V@?$_Compressed_pair@V?$allocator@D@std@@V?$_String_val@U?$_Simple_types@D@std@@@2@$00@std@@QEAA@U_One_then_variadic_args_t@1@$$QEAV?$allocator@D@1@@Z
	??$?0V?$allocator@N@std@@$$V@?$_Compressed_pair@V?$allocator@N@std@@V?$_Deque_val@U?$_Deque_simple_types@N@std@@@2@$00@std@@QEAA@U_One_then_variadic_args_t@1@$$QEAV?$allocator@N@1@@Z
	??$?0V?$allocator@N@std@@PEANPEANPEAN@?$_Compressed_pair@V?$allocator@N@std@@V?$_Vector_val@U?$_Simple_types@N@std@@@2@$00@std@@QEAA@U_One_then_variadic_args_t@1@$$QEAV?$allocator@N@1@$$QEAPEAN22@Z
	??$?0V?$allocator@U?$ParamDescription_@V?$allocator@X@std@@@dynamic_reconfigure@@@std@@$$V@?$_Compressed_pair@V?$allocator@U?$ParamDescription_@V?$allocator@X@std@@@dynamic_reconfigure@@@std@@V?$_Vector_val@U?$_Simple_types@U?$ParamDescription_@V?$allocator@X@std@@@dynamic_reconfigure@@@std@@@2@$00@std@@QEAA@U_One_then_variadic_args_t@1@$$QEAV?$allocator@U?$ParamDescription_@V?$allocator@X@std@@@dynamic_reconfigure@@@1@@Z
	??$?0V?$allocator@U?$ParamDescription_@V?$allocator@X@std@@@dynamic_reconfigure@@@std@@PEAU?$ParamDescription_@V?$allocator@X@std@@@dynamic_reconfigure@@PEAU23@PEAU23@@?$_Compressed_pair@V?$allocator@U?$ParamDescription_@V?$allocator@X@std@@@dynamic_reconfigure@@@std@@V?$_Vector_val@U?$_Simple_types@U?$ParamDescription_@V?$allocator@X@std@@@dynamic_reconfigure@@@std@@@2@$00@std@@QEAA@U_One_then_variadic_args_t@1@$$QEAV?$allocator@U?$ParamDescription_@V?$allocator@X@std@@@dynamic_reconfigure@@@1@$$QEAPEAU?$ParamDescription_@V?$allocator@X@std@@@dynamic_reconfigure@@22@Z
	??$?0V?$allocator@V?$shared_ptr@$$CBVAbstractGroupDescription@VideoStreamConfig@video_stream_opencv@@@boost@@@std@@$$V@?$_Compressed_pair@V?$allocator@V?$shared_ptr@$$CBVAbstractGroupDescription@VideoStreamConfig@video_stream_opencv@@@boost@@@std@@V?$_Vector_val@U?$_Simple_types@V?$shared_ptr@$$CBVAbstractGroupDescription@VideoStreamConfig@video_stream_opencv@@@boost@@@std@@@2@$00@std@@QEAA@U_One_then_variadic_args_t@1@$$QEAV?$allocator@V?$shared_ptr@$$CBVAbstractGroupDescription@VideoStreamConfig@video_stream_opencv@@@boost@@@1@@Z
	??$?0V?$allocator@V?$shared_ptr@$$CBVAbstractParamDescription@VideoStreamConfig@video_stream_opencv@@@boost@@@std@@$$V@?$_Compressed_pair@V?$allocator@V?$shared_ptr@$$CBVAbstractParamDescription@VideoStreamConfig@video_stream_opencv@@@boost@@@std@@V?$_Vector_val@U?$_Simple_types@V?$shared_ptr@$$CBVAbstractParamDescription@VideoStreamConfig@video_stream_opencv@@@boost@@@std@@@2@$00@std@@QEAA@U_One_then_variadic_args_t@1@$$QEAV?$allocator@V?$shared_ptr@$$CBVAbstractParamDescription@VideoStreamConfig@video_stream_opencv@@@boost@@@1@@Z
	??$?0V?$basic_string@DU?$char_traits@D@std@@V?$allocator@D@2@@std@@@any@boost@@QEAA@AEBV?$basic_string@DU?$char_traits@D@std@@V?$allocator@D@2@@std@@@Z
	??$?0V?$basic_string@DU?$char_traits@D@std@@V?$allocator@D@2@@std@@@path@filesystem@boost@@QEAA@AEBV?$basic_string@DU?$char_traits@D@std@@V?$allocator@D@2@@std@@PEAX@Z
	??$?0V?$bind_t@VSerializedMessage@ros@@P6A?AV12@AEBU?$ConfigDescription_@V?$allocator@X@std@@@dynamic_reconfigure@@@ZV?$list1@V?$reference_wrapper@$$CBU?$ConfigDescription_@V?$allocator@X@std@@@dynamic_reconfigure@@@boost@@@_bi@boost@@@_bi@boost@@@?$function0@VSerializedMessage@ros@@@boost@@QEAA@V?$bind_t@VSerializedMessage@ros@@P6A?AV12@AEBU?$ConfigDescription_@V?$allocator@X@std@@@dynamic_reconfigure@@@ZV?$list1@V?$reference_wrapper@$$CBU?$ConfigDescription_@V?$allocator@X@std@@@dynamic_reconfigure@@@boost@@@_bi@boost@@@_bi@1@H@Z
	??$?0V?$bind_t@VSerializedMessage@ros@@P6A?AV12@AEBU?$ConfigDescription_@V?$allocator@X@std@@@dynamic_reconfigure@@@ZV?$list1@V?$reference_wrapper@$$CBU?$ConfigDescription_@V?$allocator@X@std@@@dynamic_reconfigure@@@boost@@@_bi@boost@@@_bi@boost@@@?$function@$$A6A?AVSerializedMessage@ros@@XZ@boost@@QEAA@V?$bind_t@VSerializedMessage@ros@@P6A?AV12@AEBU?$ConfigDescription_@V?$allocator@X@std@@@dynamic_reconfigure@@@ZV?$list1@V?$reference_wrapper@$$CBU?$ConfigDescription_@V?$allocator@X@std@@@dynamic_reconfigure@@@boost@@@_bi@boost@@@_bi@1@H@Z
	??$?0V?$bind_t@VSerializedMessage@ros@@P6A?AV12@AEBU?$Config_@V?$allocator@X@std@@@dynamic_reconfigure@@@ZV?$list1@V?$reference_wrapper@$$CBU?$Config_@V?$allocator@X@std@@@dynamic_reconfigure@@@boost@@@_bi@boost@@@_bi@boost@@@?$function0@VSerializedMessage@ros@@@boost@@QEAA@V?$bind_t@VSerializedMessage@ros@@P6A?AV12@AEBU?$Config_@V?$allocator@X@std@@@dynamic_reconfigure@@@ZV?$list1@V?$reference_wrapper@$$CBU?$Config_@V?$allocator@X@std@@@dynamic_reconfigure@@@boost@@@_bi@boost@@@_bi@1@H@Z
	??$?0V?$bind_t@VSerializedMessage@ros@@P6A?AV12@AEBU?$Config_@V?$allocator@X@std@@@dynamic_reconfigure@@@ZV?$list1@V?$reference_wrapper@$$CBU?$Config_@V?$allocator@X@std@@@dynamic_reconfigure@@@boost@@@_bi@boost@@@_bi@boost@@@?$function@$$A6A?AVSerializedMessage@ros@@XZ@boost@@QEAA@V?$bind_t@VSerializedMessage@ros@@P6A?AV12@AEBU?$Config_@V?$allocator@X@std@@@dynamic_reconfigure@@@ZV?$list1@V?$reference_wrapper@$$CBU?$Config_@V?$allocator@X@std@@@dynamic_reconfigure@@@boost@@@_bi@boost@@@_bi@1@H@Z
	??$?0V?$bind_t@XV?$mf0@XVVideoStreamNodelet@video_stream_opencv@@@_mfi@boost@@V?$list1@V?$value@PEAVVideoStreamNodelet@video_stream_opencv@@@_bi@boost@@@_bi@3@@_bi@boost@@@thread@boost@@QEAA@$$QEAV?$bind_t@XV?$mf0@XVVideoStreamNodelet@video_stream_opencv@@@_mfi@boost@@V?$list1@V?$value@PEAVVideoStreamNodelet@video_stream_opencv@@@_bi@boost@@@_bi@3@@_bi@1@@Z
	??$?0V?$bind_t@XV?$mf1@XVVideoStreamNodelet@video_stream_opencv@@AEBUTimerEvent@ros@@@_mfi@boost@@V?$list2@V?$value@PEAVVideoStreamNodelet@video_stream_opencv@@@_bi@boost@@U?$arg@$00@3@@_bi@3@@_bi@boost@@@?$function1@XAEBUTimerEvent@ros@@@boost@@QEAA@V?$bind_t@XV?$mf1@XVVideoStreamNodelet@video_stream_opencv@@AEBUTimerEvent@ros@@@_mfi@boost@@V?$list2@V?$value@PEAVVideoStreamNodelet@video_stream_opencv@@@_bi@boost@@U?$arg@$00@3@@_bi@3@@_bi@1@H@Z
	??$?0V?$bind_t@XV?$mf1@XVVideoStreamNodelet@video_stream_opencv@@AEBUTimerEvent@ros@@@_mfi@boost@@V?$list2@V?$value@PEAVVideoStreamNodelet@video_stream_opencv@@@_bi@boost@@U?$arg@$00@3@@_bi@3@@_bi@boost@@@?$function@$$A6AXAEBUTimerEvent@ros@@@Z@boost@@QEAA@V?$bind_t@XV?$mf1@XVVideoStreamNodelet@video_stream_opencv@@AEBUTimerEvent@ros@@@_mfi@boost@@V?$list2@V?$value@PEAVVideoStreamNodelet@video_stream_opencv@@@_bi@boost@@U?$arg@$00@3@@_bi@3@@_bi@1@H@Z
	??$?0V?$bind_t@XV?$mf1@XVVideoStreamNodelet@video_stream_opencv@@AEBVSingleSubscriberPublisher@image_transport@@@_mfi@boost@@V?$list2@V?$value@PEAVVideoStreamNodelet@video_stream_opencv@@@_bi@boost@@U?$arg@$00@3@@_bi@3@@_bi@boost@@@?$function1@XAEBVSingleSubscriberPublisher@image_transport@@@boost@@QEAA@V?$bind_t@XV?$mf1@XVVideoStreamNodelet@video_stream_opencv@@AEBVSingleSubscriberPublisher@image_transport@@@_mfi@boost@@V?$list2@V?$value@PEAVVideoStreamNodelet@video_stream_opencv@@@_bi@boost@@U?$arg@$00@3@@_bi@3@@_bi@1@H@Z
	??$?0V?$bind_t@XV?$mf1@XVVideoStreamNodelet@video_stream_opencv@@AEBVSingleSubscriberPublisher@image_transport@@@_mfi@boost@@V?$list2@V?$value@PEAVVideoStreamNodelet@video_stream_opencv@@@_bi@boost@@U?$arg@$00@3@@_bi@3@@_bi@boost@@@?$function@$$A6AXAEBVSingleSubscriberPublisher@image_transport@@@Z@boost@@QEAA@V?$bind_t@XV?$mf1@XVVideoStreamNodelet@video_stream_opencv@@AEBVSingleSubscriberPublisher@image_transport@@@_mfi@boost@@V?$list2@V?$value@PEAVVideoStreamNodelet@video_stream_opencv@@@_bi@boost@@U?$arg@$00@3@@_bi@3@@_bi@1@H@Z
	??$?0V?$bind_t@XV?$mf1@XVVideoStreamNodelet@video_stream_opencv@@AEBVSingleSubscriberPublisher@ros@@@_mfi@boost@@V?$list2@V?$value@PEAVVideoStreamNodelet@video_stream_opencv@@@_bi@boost@@U?$arg@$00@3@@_bi@3@@_bi@boost@@@?$function1@XAEBVSingleSubscriberPublisher@ros@@@boost@@QEAA@V?$bind_t@XV?$mf1@XVVideoStreamNodelet@video_stream_opencv@@AEBVSingleSubscriberPublisher@ros@@@_mfi@boost@@V?$list2@V?$value@PEAVVideoStreamNodelet@video_stream_opencv@@@_bi@boost@@U?$arg@$00@3@@_bi@3@@_bi@1@H@Z
	??$?0V?$bind_t@XV?$mf1@XVVideoStreamNodelet@video_stream_opencv@@AEBVSingleSubscriberPublisher@ros@@@_mfi@boost@@V?$list2@V?$value@PEAVVideoStreamNodelet@video_stream_opencv@@@_bi@boost@@U?$arg@$00@3@@_bi@3@@_bi@boost@@@?$function@$$A6AXAEBVSingleSubscriberPublisher@ros@@@Z@boost@@QEAA@V?$bind_t@XV?$mf1@XVVideoStreamNodelet@video_stream_opencv@@AEBVSingleSubscriberPublisher@ros@@@_mfi@boost@@V?$list2@V?$value@PEAVVideoStreamNodelet@video_stream_opencv@@@_bi@boost@@U?$arg@$00@3@@_bi@3@@_bi@1@H@Z
	??$?0V?$bind_t@XV?$mf2@XVVideoStreamNodelet@video_stream_opencv@@AEAVVideoStreamConfig@2@I@_mfi@boost@@V?$list3@V?$value@PEAVVideoStreamNodelet@video_stream_opencv@@@_bi@boost@@U?$arg@$00@3@U?$arg@$01@3@@_bi@3@@_bi@boost@@@?$function2@XAEAVVideoStreamConfig@video_stream_opencv@@I@boost@@QEAA@V?$bind_t@XV?$mf2@XVVideoStreamNodelet@video_stream_opencv@@AEAVVideoStreamConfig@2@I@_mfi@boost@@V?$list3@V?$value@PEAVVideoStreamNodelet@video_stream_opencv@@@_bi@boost@@U?$arg@$00@3@U?$arg@$01@3@@_bi@3@@_bi@1@H@Z
	??$?0V?$bind_t@XV?$mf2@XVVideoStreamNodelet@video_stream_opencv@@AEAVVideoStreamConfig@2@I@_mfi@boost@@V?$list3@V?$value@PEAVVideoStreamNodelet@video_stream_opencv@@@_bi@boost@@U?$arg@$00@3@U?$arg@$01@3@@_bi@3@@_bi@boost@@@?$function@$$A6AXAEAVVideoStreamConfig@video_stream_opencv@@I@Z@boost@@QEAA@V?$bind_t@XV?$mf2@XVVideoStreamNodelet@video_stream_opencv@@AEAVVideoStreamConfig@2@I@_mfi@boost@@V?$list3@V?$value@PEAVVideoStreamNodelet@video_stream_opencv@@@_bi@boost@@U?$arg@$00@3@U?$arg@$01@3@@_bi@3@@_bi@1@H@Z
	??$?0V?$bind_t@_NV?$mf2@_NV?$Server@VVideoStreamConfig@video_stream_opencv@@@dynamic_reconfigure@@AEAU?$ReconfigureRequest_@V?$allocator@X@std@@@2@AEAU?$ReconfigureResponse_@V?$allocator@X@std@@@2@@_mfi@boost@@V?$list3@V?$value@PEAV?$Server@VVideoStreamConfig@video_stream_opencv@@@dynamic_reconfigure@@@_bi@boost@@U?$arg@$00@3@U?$arg@$01@3@@_bi@3@@_bi@boost@@@?$function2@_NAEAU?$ReconfigureRequest_@V?$allocator@X@std@@@dynamic_reconfigure@@AEAU?$ReconfigureResponse_@V?$allocator@X@std@@@2@@boost@@QEAA@V?$bind_t@_NV?$mf2@_NV?$Server@VVideoStreamConfig@video_stream_opencv@@@dynamic_reconfigure@@AEAU?$ReconfigureRequest_@V?$allocator@X@std@@@2@AEAU?$ReconfigureResponse_@V?$allocator@X@std@@@2@@_mfi@boost@@V?$list3@V?$value@PEAV?$Server@VVideoStreamConfig@video_stream_opencv@@@dynamic_reconfigure@@@_bi@boost@@U?$arg@$00@3@U?$arg@$01@3@@_bi@3@@_bi@1@H@Z
	??$?0V?$bind_t@_NV?$mf2@_NV?$Server@VVideoStreamConfig@video_stream_opencv@@@dynamic_reconfigure@@AEAU?$ReconfigureRequest_@V?$allocator@X@std@@@2@AEAU?$ReconfigureResponse_@V?$allocator@X@std@@@2@@_mfi@boost@@V?$list3@V?$value@PEAV?$Server@VVideoStreamConfig@video_stream_opencv@@@dynamic_reconfigure@@@_bi@boost@@U?$arg@$00@3@U?$arg@$01@3@@_bi@3@@_bi@boost@@@?$function@$$A6A_NAEAU?$ReconfigureRequest_@V?$allocator@X@std@@@dynamic_reconfigure@@AEAU?$ReconfigureResponse_@V?$allocator@X@std@@@2@@Z@boost@@QEAA@V?$bind_t@_NV?$mf2@_NV?$Server@VVideoStreamConfig@video_stream_opencv@@@dynamic_reconfigure@@AEAU?$ReconfigureRequest_@V?$allocator@X@std@@@2@AEAU?$ReconfigureResponse_@V?$allocator@X@std@@@2@@_mfi@boost@@V?$list3@V?$value@PEAV?$Server@VVideoStreamConfig@video_stream_opencv@@@dynamic_reconfigure@@@_bi@boost@@U?$arg@$00@3@U?$arg@$01@3@@_bi@3@@_bi@1@H@Z
	??$?0V?$tuple@AEBV?$basic_string@DU?$char_traits@D@std@@V?$allocator@D@2@@std@@@std@@V?$tuple@$$V@1@$0A@$$Z$S@?$pair@$$CBV?$basic_string@DU?$char_traits@D@std@@V?$allocator@D@2@@std@@PEAVAbstractMetaObjectBase@impl@class_loader@@@std@@QEAA@AEAV?$tuple@AEBV?$basic_string@DU?$char_traits@D@std@@V?$allocator@D@2@@std@@@1@AEAV?$tuple@$$V@1@U?$integer_sequence@_K$0A@@1@U?$integer_sequence@_K$S@1@@Z
	??$?0VCvImage@cv_bridge@@@?$shared_ptr@$$CBVCvImage@cv_bridge@@@boost@@QEAA@AEBV?$shared_ptr@VCvImage@cv_bridge@@@1@Usp_empty@detail@1@@Z
	??$?0VCvImage@cv_bridge@@@?$shared_ptr@VCvImage@cv_bridge@@@boost@@QEAA@AEBV01@PEAVCvImage@cv_bridge@@@Z
	??$?0VCvImage@cv_bridge@@U?$sp_inplace_tag@V?$sp_ms_deleter@VCvImage@cv_bridge@@@detail@boost@@@detail@boost@@@?$shared_ptr@VCvImage@cv_bridge@@@boost@@QEAA@PEAVCvImage@cv_bridge@@U?$sp_inplace_tag@V?$sp_ms_deleter@VCvImage@cv_bridge@@@detail@boost@@@detail@1@@Z
	??$?0VDEFAULT@VideoStreamConfig@video_stream_opencv@@@any@boost@@QEAA@AEBVDEFAULT@VideoStreamConfig@video_stream_opencv@@@Z
	??$?0VMat@cv@@@?$allocator@PEAVMat@cv@@@std@@QEAA@AEBV?$allocator@VMat@cv@@@1@@Z
	??$?0VMat@cv@@@?$allocator@U_Container_proxy@std@@@std@@QEAA@AEBV?$allocator@VMat@cv@@@1@@Z
	??$?0VNodeHandle@ros@@@?$shared_ptr@VNodeHandle@ros@@@boost@@QEAA@PEAVNodeHandle@ros@@@Z
	??$?0VNodeHandle@ros@@@shared_count@detail@boost@@QEAA@PEAVNodeHandle@ros@@@Z
	??$?0VVideoCapture@cv@@@?$shared_ptr@VVideoCapture@cv@@@boost@@QEAA@PEAVVideoCapture@cv@@@Z
	??$?0VVideoCapture@cv@@@shared_count@detail@boost@@QEAA@PEAVVideoCapture@cv@@@Z
	??$?0VVideoStreamConfig@video_stream_opencv@@@any@boost@@QEAA@AEBVVideoStreamConfig@video_stream_opencv@@@Z
	??$?0_N@any@boost@@QEAA@AEB_N@Z
	??$?4AEBH@any@boost@@QEAAAEAV01@AEBH@Z
	??$?4AEBN@any@boost@@QEAAAEAV01@AEBN@Z
	??$?4AEBV?$basic_string@DU?$char_traits@D@std@@V?$allocator@D@2@@std@@@any@boost@@QEAAAEAV01@AEBV?$basic_string@DU?$char_traits@D@std@@V?$allocator@D@2@@std@@@Z
	??$?4AEB_N@any@boost@@QEAAAEAV01@AEB_N@Z
	??$?4V?$ServiceCallbackHelperT@U?$ServiceSpec@U?$ReconfigureRequest_@V?$allocator@X@std@@@dynamic_reconfigure@@U?$ReconfigureResponse_@V?$allocator@X@std@@@2@@ros@@@ros@@@?$shared_ptr@VServiceCallbackHelper@ros@@@boost@@QEAAAEAV01@$$QEAV?$shared_ptr@V?$ServiceCallbackHelperT@U?$ServiceSpec@U?$ReconfigureRequest_@V?$allocator@X@std@@@dynamic_reconfigure@@U?$ReconfigureResponse_@V?$allocator@X@std@@@2@@ros@@@ros@@@1@@Z
	??$?6DU?$char_traits@D@std@@@filesystem@boost@@YAAEAV?$basic_ostream@DU?$char_traits@D@std@@@std@@AEAV23@AEBVpath@01@@Z
	??$?6DU?$char_traits@D@std@@V?$allocator@D@1@@detail@io@boost@@YAAEAV?$basic_ostream@DU?$char_traits@D@std@@@std@@AEAV34@AEBU?$quoted_proxy@PEBV?$basic_string@DU?$char_traits@D@std@@V?$allocator@D@2@@std@@D@012@@Z
	??$?6DU?$char_traits@D@std@@V?$allocator@D@1@@std@@YAAEAV?$basic_ostream@DU?$char_traits@D@std@@@0@AEAV10@AEBV?$basic_string@DU?$char_traits@D@std@@V?$allocator@D@2@@0@@Z
	??$?6U?$char_traits@D@std@@@std@@YAAEAV?$basic_ostream@DU?$char_traits@D@std@@@0@AEAV10@PEBD@Z
	??$?8DU?$char_traits@D@std@@V?$allocator@D@1@@std@@YA_NAEBV?$basic_string@DU?$char_traits@D@std@@V?$allocator@D@2@@0@0@Z
	??$?8DU?$char_traits@D@std@@V?$allocator@D@1@@std@@YA_NAEBV?$basic_string@DU?$char_traits@D@std@@V?$allocator@D@2@@0@QEBD@Z
	??$?8DU?$char_traits@D@std@@V?$allocator@D@1@@std@@YA_NQEBDAEBV?$basic_string@DU?$char_traits@D@std@@V?$allocator@D@2@@0@@Z
	??$?8Vstl_type_index@typeindex@boost@@Vtype_info@@@typeindex@boost@@YA_NAEBV?$type_index_facade@Vstl_type_index@typeindex@boost@@Vtype_info@@@01@0@Z
	??$?8Vstl_type_index@typeindex@boost@@Vtype_info@@@typeindex@boost@@YA_NAEBVtype_info@@AEBV?$type_index_facade@Vstl_type_index@typeindex@boost@@Vtype_info@@@01@@Z
	??$?9DU?$char_traits@D@std@@V?$allocator@D@1@@std@@YA_NAEBV?$basic_string@DU?$char_traits@D@std@@V?$allocator@D@2@@0@0@Z
	??$?9DU?$char_traits@D@std@@V?$allocator@D@1@@std@@YA_NAEBV?$basic_string@DU?$char_traits@D@std@@V?$allocator@D@2@@0@QEBD@Z
	??$?A$$CBU?$ConfigDescription_@V?$allocator@X@std@@@dynamic_reconfigure@@@list0@_bi@boost@@QEBAAEBU?$ConfigDescription_@V?$allocator@X@std@@@dynamic_reconfigure@@AEBV?$reference_wrapper@$$CBU?$ConfigDescription_@V?$allocator@X@std@@@dynamic_reconfigure@@@2@@Z
	??$?A$$CBU?$Config_@V?$allocator@X@std@@@dynamic_reconfigure@@@list0@_bi@boost@@QEBAAEBU?$Config_@V?$allocator@X@std@@@dynamic_reconfigure@@AEBV?$reference_wrapper@$$CBU?$Config_@V?$allocator@X@std@@@dynamic_reconfigure@@@2@@Z
	??$?APEAV?$Server@VVideoStreamConfig@video_stream_opencv@@@dynamic_reconfigure@@@?$rrlist2@AEAU?$ReconfigureRequest_@V?$allocator@X@std@@@dynamic_reconfigure@@AEAU?$ReconfigureResponse_@V?$allocator@X@std@@@2@@_bi@boost@@QEBAAEAPEAV?$Server@VVideoStreamConfig@video_stream_opencv@@@dynamic_reconfigure@@AEAV?$value@PEAV?$Server@VVideoStreamConfig@video_stream_opencv@@@dynamic_reconfigure@@@12@@Z
	??$?APEAVVideoStreamNodelet@video_stream_opencv@@@?$rrlist1@AEBUTimerEvent@ros@@@_bi@boost@@QEBAAEAPEAVVideoStreamNodelet@video_stream_opencv@@AEAV?$value@PEAVVideoStreamNodelet@video_stream_opencv@@@12@@Z
	??$?APEAVVideoStreamNodelet@video_stream_opencv@@@?$rrlist1@AEBVSingleSubscriberPublisher@image_transport@@@_bi@boost@@QEBAAEAPEAVVideoStreamNodelet@video_stream_opencv@@AEAV?$value@PEAVVideoStreamNodelet@video_stream_opencv@@@12@@Z
	??$?APEAVVideoStreamNodelet@video_stream_opencv@@@?$rrlist1@AEBVSingleSubscriberPublisher@ros@@@_bi@boost@@QEBAAEAPEAVVideoStreamNodelet@video_stream_opencv@@AEAV?$value@PEAVVideoStreamNodelet@video_stream_opencv@@@12@@Z
	??$?APEAVVideoStreamNodelet@video_stream_opencv@@@?$rrlist2@AEAVVideoStreamConfig@video_stream_opencv@@I@_bi@boost@@QEBAAEAPEAVVideoStreamNodelet@video_stream_opencv@@AEAV?$value@PEAVVideoStreamNodelet@video_stream_opencv@@@12@@Z
	??$?APEAVVideoStreamNodelet@video_stream_opencv@@@list0@_bi@boost@@QEBAAEAPEAVVideoStreamNodelet@video_stream_opencv@@AEAV?$value@PEAVVideoStreamNodelet@video_stream_opencv@@@12@@Z
	??$?BV?$array@N$08@boost@@XX@?$generic_list@N@assign_detail@boost@@QEBA?AV?$array@N$08@2@XZ
	??$?BV?$array@N$0M@@boost@@XX@?$generic_list@N@assign_detail@boost@@QEBA?AV?$array@N$0M@@2@XZ
	??$?HDU?$char_traits@D@std@@V?$allocator@D@1@@std@@YA?AV?$basic_string@DU?$char_traits@D@std@@V?$allocator@D@2@@0@$$QEAV10@AEBV10@@Z
	??$?HDU?$char_traits@D@std@@V?$allocator@D@1@@std@@YA?AV?$basic_string@DU?$char_traits@D@std@@V?$allocator@D@2@@0@$$QEAV10@QEBD@Z
	??$?MDU?$char_traits@D@std@@V?$allocator@D@1@@std@@YA_NAEBV?$basic_string@DU?$char_traits@D@std@@V?$allocator@D@2@@0@0@Z
	??$?RAEAU?$ReconfigureRequest_@V?$allocator@X@std@@@dynamic_reconfigure@@AEAU?$ReconfigureResponse_@V?$allocator@X@std@@@1@@?$bind_t@_NV?$mf2@_NV?$Server@VVideoStreamConfig@video_stream_opencv@@@dynamic_reconfigure@@AEAU?$ReconfigureRequest_@V?$allocator@X@std@@@2@AEAU?$ReconfigureResponse_@V?$allocator@X@std@@@2@@_mfi@boost@@V?$list3@V?$value@PEAV?$Server@VVideoStreamConfig@video_stream_opencv@@@dynamic_reconfigure@@@_bi@boost@@U?$arg@$00@3@U?$arg@$01@3@@_bi@3@@_bi@boost@@QEAA_NAEAU?$ReconfigureRequest_@V?$allocator@X@std@@@dynamic_reconfigure@@AEAU?$ReconfigureResponse_@V?$allocator@X@std@@@4@@Z
	??$?RAEAVVideoStreamConfig@video_stream_opencv@@I@?$bind_t@XV?$mf2@XVVideoStreamNodelet@video_stream_opencv@@AEAVVideoStreamConfig@2@I@_mfi@boost@@V?$list3@V?$value@PEAVVideoStreamNodelet@video_stream_opencv@@@_bi@boost@@U?$arg@$00@3@U?$arg@$01@3@@_bi@3@@_bi@boost@@QEAAXAEAVVideoStreamConfig@video_stream_opencv@@$$QEAI@Z
	??$?RAEBUTimerEvent@ros@@@?$bind_t@XV?$mf1@XVVideoStreamNodelet@video_stream_opencv@@AEBUTimerEvent@ros@@@_mfi@boost@@V?$list2@V?$value@PEAVVideoStreamNodelet@video_stream_opencv@@@_bi@boost@@U?$arg@$00@3@@_bi@3@@_bi@boost@@QEAAXAEBUTimerEvent@ros@@@Z
	??$?RAEBVSingleSubscriberPublisher@image_transport@@@?$bind_t@XV?$mf1@XVVideoStreamNodelet@video_stream_opencv@@AEBVSingleSubscriberPublisher@image_transport@@@_mfi@boost@@V?$list2@V?$value@PEAVVideoStreamNodelet@video_stream_opencv@@@_bi@boost@@U?$arg@$00@3@@_bi@3@@_bi@boost@@QEAAXAEBVSingleSubscriberPublisher@image_transport@@@Z
	??$?RAEBVSingleSubscriberPublisher@ros@@@?$bind_t@XV?$mf1@XVVideoStreamNodelet@video_stream_opencv@@AEBVSingleSubscriberPublisher@ros@@@_mfi@boost@@V?$list2@V?$value@PEAVVideoStreamNodelet@video_stream_opencv@@@_bi@boost@@U?$arg@$00@3@@_bi@3@@_bi@boost@@QEAAXAEBVSingleSubscriberPublisher@ros@@@Z
	??$?RV?$mf0@XVVideoStreamNodelet@video_stream_opencv@@@_mfi@boost@@Vlist0@_bi@2@@?$list1@V?$value@PEAVVideoStreamNodelet@video_stream_opencv@@@_bi@boost@@@_bi@boost@@QEAAXV?$type@X@12@AEAV?$mf0@XVVideoStreamNodelet@video_stream_opencv@@@_mfi@2@AEAVlist0@12@H@Z
	??$?RV?$mf1@XVVideoStreamNodelet@video_stream_opencv@@AEBUTimerEvent@ros@@@_mfi@boost@@V?$rrlist1@AEBUTimerEvent@ros@@@_bi@2@@?$list2@V?$value@PEAVVideoStreamNodelet@video_stream_opencv@@@_bi@boost@@U?$arg@$00@3@@_bi@boost@@QEAAXV?$type@X@12@AEAV?$mf1@XVVideoStreamNodelet@video_stream_opencv@@AEBUTimerEvent@ros@@@_mfi@2@AEAV?$rrlist1@AEBUTimerEvent@ros@@@12@H@Z
	??$?RV?$mf1@XVVideoStreamNodelet@video_stream_opencv@@AEBVSingleSubscriberPublisher@image_transport@@@_mfi@boost@@V?$rrlist1@AEBVSingleSubscriberPublisher@image_transport@@@_bi@2@@?$list2@V?$value@PEAVVideoStreamNodelet@video_stream_opencv@@@_bi@boost@@U?$arg@$00@3@@_bi@boost@@QEAAXV?$type@X@12@AEAV?$mf1@XVVideoStreamNodelet@video_stream_opencv@@AEBVSingleSubscriberPublisher@image_transport@@@_mfi@2@AEAV?$rrlist1@AEBVSingleSubscriberPublisher@image_transport@@@12@H@Z
	??$?RV?$mf1@XVVideoStreamNodelet@video_stream_opencv@@AEBVSingleSubscriberPublisher@ros@@@_mfi@boost@@V?$rrlist1@AEBVSingleSubscriberPublisher@ros@@@_bi@2@@?$list2@V?$value@PEAVVideoStreamNodelet@video_stream_opencv@@@_bi@boost@@U?$arg@$00@3@@_bi@boost@@QEAAXV?$type@X@12@AEAV?$mf1@XVVideoStreamNodelet@video_stream_opencv@@AEBVSingleSubscriberPublisher@ros@@@_mfi@2@AEAV?$rrlist1@AEBVSingleSubscriberPublisher@ros@@@12@H@Z
	??$?RV?$mf2@XVVideoStreamNodelet@video_stream_opencv@@AEAVVideoStreamConfig@2@I@_mfi@boost@@V?$rrlist2@AEAVVideoStreamConfig@video_stream_opencv@@I@_bi@2@@?$list3@V?$value@PEAVVideoStreamNodelet@video_stream_opencv@@@_bi@boost@@U?$arg@$00@3@U?$arg@$01@3@@_bi@boost@@QEAAXV?$type@X@12@AEAV?$mf2@XVVideoStreamNodelet@video_stream_opencv@@AEAVVideoStreamConfig@2@I@_mfi@2@AEAV?$rrlist2@AEAVVideoStreamConfig@video_stream_opencv@@I@12@H@Z
	??$?RVSerializedMessage@ros@@P6A?AV01@AEBU?$ConfigDescription_@V?$allocator@X@std@@@dynamic_reconfigure@@@ZVlist0@_bi@boost@@@?$list1@V?$reference_wrapper@$$CBU?$ConfigDescription_@V?$allocator@X@std@@@dynamic_reconfigure@@@boost@@@_bi@boost@@QEAA?AVSerializedMessage@ros@@V?$type@VSerializedMessage@ros@@@12@AEAP6A?AV34@AEBU?$ConfigDescription_@V?$allocator@X@std@@@dynamic_reconfigure@@@ZAEAVlist0@12@J@Z
	??$?RVSerializedMessage@ros@@P6A?AV01@AEBU?$Config_@V?$allocator@X@std@@@dynamic_reconfigure@@@ZVlist0@_bi@boost@@@?$list1@V?$reference_wrapper@$$CBU?$Config_@V?$allocator@X@std@@@dynamic_reconfigure@@@boost@@@_bi@boost@@QEAA?AVSerializedMessage@ros@@V?$type@VSerializedMessage@ros@@@12@AEAP6A?AV34@AEBU?$Config_@V?$allocator@X@std@@@dynamic_reconfigure@@@ZAEAVlist0@12@J@Z
	??$?R_NV?$mf2@_NV?$Server@VVideoStreamConfig@video_stream_opencv@@@dynamic_reconfigure@@AEAU?$ReconfigureRequest_@V?$allocator@X@std@@@2@AEAU?$ReconfigureResponse_@V?$allocator@X@std@@@2@@_mfi@boost@@V?$rrlist2@AEAU?$ReconfigureRequest_@V?$allocator@X@std@@@dynamic_reconfigure@@AEAU?$ReconfigureResponse_@V?$allocator@X@std@@@2@@_bi@2@@?$list3@V?$value@PEAV?$Server@VVideoStreamConfig@video_stream_opencv@@@dynamic_reconfigure@@@_bi@boost@@U?$arg@$00@3@U?$arg@$01@3@@_bi@boost@@QEAA_NV?$type@_N@12@AEAV?$mf2@_NV?$Server@VVideoStreamConfig@video_stream_opencv@@@dynamic_reconfigure@@AEAU?$ReconfigureRequest_@V?$allocator@X@std@@@2@AEAU?$ReconfigureResponse_@V?$allocator@X@std@@@2@@_mfi@2@AEAV?$rrlist2@AEAU?$ReconfigureRequest_@V?$allocator@X@std@@@dynamic_reconfigure@@AEAU?$ReconfigureResponse_@V?$allocator@X@std@@@2@@12@J@Z
	??$_Adl_verify_range@PEAPEANPEAPEAN@std@@YAXAEBQEAPEAN0@Z
	??$_Adl_verify_range@PEAPEAVMat@cv@@PEAPEAV12@@std@@YAXAEBQEAPEAVMat@cv@@0@Z
	??$_Adl_verify_range@PEAU?$ParamDescription_@V?$allocator@X@std@@@dynamic_reconfigure@@PEAU12@@std@@YAXAEBQEAU?$ParamDescription_@V?$allocator@X@std@@@dynamic_reconfigure@@0@Z
	??$_Adl_verify_range@PEAV?$shared_ptr@$$CBVAbstractParamDescription@VideoStreamConfig@video_stream_opencv@@@boost@@PEAV12@@std@@YAXAEBQEAV?$shared_ptr@$$CBVAbstractParamDescription@VideoStreamConfig@video_stream_opencv@@@boost@@0@Z
	??$_Alloc_proxy@V?$allocator@U_Container_proxy@std@@@std@@@_Container_base12@std@@QEAAX$$QEAV?$allocator@U_Container_proxy@std@@@1@@Z
	??$_Allocate@$0BA@U_Default_allocate_traits@std@@$0A@@std@@YAPEAX_K@Z
	??$_Allocate_manually_vector_aligned@U_Default_allocate_traits@std@@@std@@YAPEAX_K@Z
	??$_Assign_range@PEAU?$ParamDescription_@V?$allocator@X@std@@@dynamic_reconfigure@@@?$vector@U?$ParamDescription_@V?$allocator@X@std@@@dynamic_reconfigure@@V?$allocator@U?$ParamDescription_@V?$allocator@X@std@@@dynamic_reconfigure@@@std@@@std@@AEAAXPEAU?$ParamDescription_@V?$allocator@X@std@@@dynamic_reconfigure@@0Uforward_iterator_tag@1@@Z
	??$_Assign_range@PEAV?$shared_ptr@$$CBVAbstractParamDescription@VideoStreamConfig@video_stream_opencv@@@boost@@@?$vector@V?$shared_ptr@$$CBVAbstractParamDescription@VideoStreamConfig@video_stream_opencv@@@boost@@V?$allocator@V?$shared_ptr@$$CBVAbstractParamDescription@VideoStreamConfig@video_stream_opencv@@@boost@@@std@@@std@@AEAAXPEAV?$shared_ptr@$$CBVAbstractParamDescription@VideoStreamConfig@video_stream_opencv@@@boost@@0Uforward_iterator_tag@1@@Z
	??$_Atomic_address_as@JU?$_Atomic_padded@H@std@@@std@@YAPECJAEAU?$_Atomic_padded@H@0@@Z
	??$_Construct_in_place@PEADAEAPEAD@std@@YAXAEAPEAD0@Z
	??$_Construct_in_place@PEADAEBQEAD@std@@YAXAEAPEADAEBQEAD@Z
	??$_Construct_in_place@PEANAEAPEAN@std@@YAXAEAPEAN0@Z
	??$_Construct_in_place@PEAU?$_Tree_node@U?$pair@$$CBV?$basic_string@DU?$char_traits@D@std@@V?$allocator@D@2@@std@@PEAVAbstractMetaObjectBase@impl@class_loader@@@std@@PEAX@std@@AEAPEAU12@@std@@YAXAEAPEAU?$_Tree_node@U?$pair@$$CBV?$basic_string@DU?$char_traits@D@std@@V?$allocator@D@2@@std@@PEAVAbstractMetaObjectBase@impl@class_loader@@@std@@PEAX@0@0@Z
	??$_Construct_in_place@PEAVMat@cv@@AEAPEAV12@@std@@YAXAEAPEAVMat@cv@@0@Z
	??$_Construct_in_place@U_Container_proxy@std@@PEAU_Container_base12@2@@std@@YAXAEAU_Container_proxy@0@$$QEAPEAU_Container_base12@0@@Z
	??$_Convert_size@_K@std@@YA_K_K@Z
	??$_Copy_memmove@PEANPEAN@std@@YAPEANPEAN00@Z
	??$_Copy_memmove@PEAPEANPEAPEAN@std@@YAPEAPEANPEAPEAN00@Z
	??$_Copy_memmove@PEAPEAVMat@cv@@PEAPEAV12@@std@@YAPEAPEAVMat@cv@@PEAPEAV12@00@Z
	??$_Copy_unchecked@PEAU?$ParamDescription_@V?$allocator@X@std@@@dynamic_reconfigure@@PEAU12@@std@@YAPEAU?$ParamDescription_@V?$allocator@X@std@@@dynamic_reconfigure@@PEAU12@00@Z
	??$_Copy_unchecked@PEAV?$shared_ptr@$$CBVAbstractParamDescription@VideoStreamConfig@video_stream_opencv@@@boost@@PEAV12@@std@@YAPEAV?$shared_ptr@$$CBVAbstractParamDescription@VideoStreamConfig@video_stream_opencv@@@boost@@PEAV12@00@Z
	??$_Deallocate@$0BA@$0A@@std@@YAXPEAX_K@Z
	??$_Deallocate_plain@V?$allocator@U_Container_proxy@std@@@std@@@std@@YAXAEAV?$allocator@U_Container_proxy@std@@@0@QEAU_Container_proxy@0@@Z
	??$_Delete_plain_internal@V?$allocator@U_Container_proxy@std@@@std@@@std@@YAXAEAV?$allocator@U_Container_proxy@std@@@0@QEAU_Container_proxy@0@@Z
	??$_Destroy_in_place@PEAD@std@@YAXAEAPEAD@Z
	??$_Destroy_in_place@PEAN@std@@YAXAEAPEAN@Z
	??$_Destroy_in_place@PEAU?$_Tree_node@U?$pair@$$CBV?$basic_string@DU?$char_traits@D@std@@V?$allocator@D@2@@std@@PEAVAbstractMetaObjectBase@impl@class_loader@@@std@@PEAX@std@@@std@@YAXAEAPEAU?$_Tree_node@U?$pair@$$CBV?$basic_string@DU?$char_traits@D@std@@V?$allocator@D@2@@std@@PEAVAbstractMetaObjectBase@impl@class_loader@@@std@@PEAX@0@@Z
	??$_Destroy_in_place@PEAVMat@cv@@@std@@YAXAEAPEAVMat@cv@@@Z
	??$_Destroy_in_place@PEA_W@std@@YAXAEAPEA_W@Z
	??$_Destroy_range@PEAPEANPEAPEAN@std@@YAXPEAPEANQEAPEAN@Z
	??$_Destroy_range@PEAPEAVMat@cv@@PEAPEAV12@@std@@YAXPEAPEAVMat@cv@@QEAPEAV12@@Z
	??$_Destroy_range@V?$allocator@N@std@@@std@@YAXPEANQEANAEAV?$allocator@N@0@@Z
	??$_Destroy_range@V?$allocator@U?$BoolParameter_@V?$allocator@X@std@@@dynamic_reconfigure@@@std@@@std@@YAXPEAU?$BoolParameter_@V?$allocator@X@std@@@dynamic_reconfigure@@QEAU12@AEAV?$allocator@U?$BoolParameter_@V?$allocator@X@std@@@dynamic_reconfigure@@@0@@Z
	??$_Destroy_range@V?$allocator@U?$DoubleParameter_@V?$allocator@X@std@@@dynamic_reconfigure@@@std@@@std@@YAXPEAU?$DoubleParameter_@V?$allocator@X@std@@@dynamic_reconfigure@@QEAU12@AEAV?$allocator@U?$DoubleParameter_@V?$allocator@X@std@@@dynamic_reconfigure@@@0@@Z
	??$_Destroy_range@V?$allocator@U?$GroupState_@V?$allocator@X@std@@@dynamic_reconfigure@@@std@@@std@@YAXPEAU?$GroupState_@V?$allocator@X@std@@@dynamic_reconfigure@@QEAU12@AEAV?$allocator@U?$GroupState_@V?$allocator@X@std@@@dynamic_reconfigure@@@0@@Z
	??$_Destroy_range@V?$allocator@U?$Group_@V?$allocator@X@std@@@dynamic_reconfigure@@@std@@@std@@YAXPEAU?$Group_@V?$allocator@X@std@@@dynamic_reconfigure@@QEAU12@AEAV?$allocator@U?$Group_@V?$allocator@X@std@@@dynamic_reconfigure@@@0@@Z
	??$_Destroy_range@V?$allocator@U?$IntParameter_@V?$allocator@X@std@@@dynamic_reconfigure@@@std@@@std@@YAXPEAU?$IntParameter_@V?$allocator@X@std@@@dynamic_reconfigure@@QEAU12@AEAV?$allocator@U?$IntParameter_@V?$allocator@X@std@@@dynamic_reconfigure@@@0@@Z
	??$_Destroy_range@V?$allocator@U?$ParamDescription_@V?$allocator@X@std@@@dynamic_reconfigure@@@std@@@std@@YAXPEAU?$ParamDescription_@V?$allocator@X@std@@@dynamic_reconfigure@@QEAU12@AEAV?$allocator@U?$ParamDescription_@V?$allocator@X@std@@@dynamic_reconfigure@@@0@@Z
	??$_Destroy_range@V?$allocator@U?$StrParameter_@V?$allocator@X@std@@@dynamic_reconfigure@@@std@@@std@@YAXPEAU?$StrParameter_@V?$allocator@X@std@@@dynamic_reconfigure@@QEAU12@AEAV?$allocator@U?$StrParameter_@V?$allocator@X@std@@@dynamic_reconfigure@@@0@@Z
	??$_Destroy_range@V?$allocator@V?$shared_ptr@$$CBVAbstractGroupDescription@VideoStreamConfig@video_stream_opencv@@@boost@@@std@@@std@@YAXPEAV?$shared_ptr@$$CBVAbstractGroupDescription@VideoStreamConfig@video_stream_opencv@@@boost@@QEAV12@AEAV?$allocator@V?$shared_ptr@$$CBVAbstractGroupDescription@VideoStreamConfig@video_stream_opencv@@@boost@@@0@@Z
	??$_Destroy_range@V?$allocator@V?$shared_ptr@$$CBVAbstractParamDescription@VideoStreamConfig@video_stream_opencv@@@boost@@@std@@@std@@YAXPEAV?$shared_ptr@$$CBVAbstractParamDescription@VideoStreamConfig@video_stream_opencv@@@boost@@QEAV12@AEAV?$allocator@V?$shared_ptr@$$CBVAbstractParamDescription@VideoStreamConfig@video_stream_opencv@@@boost@@@0@@Z
	??$_Emplace_back@$$V@?$_Uninitialized_backout_al@V?$allocator@U?$BoolParameter_@V?$allocator@X@std@@@dynamic_reconfigure@@@std@@@std@@QEAAXXZ
	??$_Emplace_back@$$V@?$_Uninitialized_backout_al@V?$allocator@U?$DoubleParameter_@V?$allocator@X@std@@@dynamic_reconfigure@@@std@@@std@@QEAAXXZ
	??$_Emplace_back@$$V@?$_Uninitialized_backout_al@V?$allocator@U?$GroupState_@V?$allocator@X@std@@@dynamic_reconfigure@@@std@@@std@@QEAAXXZ
	??$_Emplace_back@$$V@?$_Uninitialized_backout_al@V?$allocator@U?$IntParameter_@V?$allocator@X@std@@@dynamic_reconfigure@@@std@@@std@@QEAAXXZ
	??$_Emplace_back@$$V@?$_Uninitialized_backout_al@V?$allocator@U?$StrParameter_@V?$allocator@X@std@@@dynamic_reconfigure@@@std@@@std@@QEAAXXZ
	??$_Emplace_back@AEAPEAN@?$_Uninitialized_backout@PEAPEAN@std@@QEAAXAEAPEAN@Z
	??$_Emplace_back@AEAPEAVMat@cv@@@?$_Uninitialized_backout@PEAPEAVMat@cv@@@std@@QEAAXAEAPEAVMat@cv@@@Z
	??$_Emplace_back@AEAU?$ParamDescription_@V?$allocator@X@std@@@dynamic_reconfigure@@@?$_Uninitialized_backout_al@V?$allocator@U?$ParamDescription_@V?$allocator@X@std@@@dynamic_reconfigure@@@std@@@std@@QEAAXAEAU?$ParamDescription_@V?$allocator@X@std@@@dynamic_reconfigure@@@Z
	??$_Emplace_back@AEAV?$shared_ptr@$$CBVAbstractGroupDescription@VideoStreamConfig@video_stream_opencv@@@boost@@@?$_Uninitialized_backout_al@V?$allocator@V?$shared_ptr@$$CBVAbstractGroupDescription@VideoStreamConfig@video_stream_opencv@@@boost@@@std@@@std@@QEAAXAEAV?$shared_ptr@$$CBVAbstractGroupDescription@VideoStreamConfig@video_stream_opencv@@@boost@@@Z
	??$_Emplace_back@AEAV?$shared_ptr@$$CBVAbstractParamDescription@VideoStreamConfig@video_stream_opencv@@@boost@@@?$_Uninitialized_backout_al@V?$allocator@V?$shared_ptr@$$CBVAbstractParamDescription@VideoStreamConfig@video_stream_opencv@@@boost@@@std@@@std@@QEAAXAEAV?$shared_ptr@$$CBVAbstractParamDescription@VideoStreamConfig@video_stream_opencv@@@boost@@@Z
	??$_Emplace_back@AEBN@?$_Uninitialized_backout_al@V?$allocator@N@std@@@std@@QEAAXAEBN@Z
	??$_Emplace_back@N@?$_Uninitialized_backout_al@V?$allocator@N@std@@@std@@QEAAX$$QEAN@Z
	??$_Emplace_back@U?$BoolParameter_@V?$allocator@X@std@@@dynamic_reconfigure@@@?$_Uninitialized_backout_al@V?$allocator@U?$BoolParameter_@V?$allocator@X@std@@@dynamic_reconfigure@@@std@@@std@@QEAAX$$QEAU?$BoolParameter_@V?$allocator@X@std@@@dynamic_reconfigure@@@Z
	??$_Emplace_back@U?$DoubleParameter_@V?$allocator@X@std@@@dynamic_reconfigure@@@?$_Uninitialized_backout_al@V?$allocator@U?$DoubleParameter_@V?$allocator@X@std@@@dynamic_reconfigure@@@std@@@std@@QEAAX$$QEAU?$DoubleParameter_@V?$allocator@X@std@@@dynamic_reconfigure@@@Z
	??$_Emplace_back@U?$GroupState_@V?$allocator@X@std@@@dynamic_reconfigure@@@?$_Uninitialized_backout_al@V?$allocator@U?$GroupState_@V?$allocator@X@std@@@dynamic_reconfigure@@@std@@@std@@QEAAX$$QEAU?$GroupState_@V?$allocator@X@std@@@dynamic_reconfigure@@@Z
	??$_Emplace_back@U?$Group_@V?$allocator@X@std@@@dynamic_reconfigure@@@?$_Uninitialized_backout_al@V?$allocator@U?$Group_@V?$allocator@X@std@@@dynamic_reconfigure@@@std@@@std@@QEAAX$$QEAU?$Group_@V?$allocator@X@std@@@dynamic_reconfigure@@@Z
	??$_Emplace_back@U?$IntParameter_@V?$allocator@X@std@@@dynamic_reconfigure@@@?$_Uninitialized_backout_al@V?$allocator@U?$IntParameter_@V?$allocator@X@std@@@dynamic_reconfigure@@@std@@@std@@QEAAX$$QEAU?$IntParameter_@V?$allocator@X@std@@@dynamic_reconfigure@@@Z
	??$_Emplace_back@U?$ParamDescription_@V?$allocator@X@std@@@dynamic_reconfigure@@@?$_Uninitialized_backout_al@V?$allocator@U?$ParamDescription_@V?$allocator@X@std@@@dynamic_reconfigure@@@std@@@std@@QEAAX$$QEAU?$ParamDescription_@V?$allocator@X@std@@@dynamic_reconfigure@@@Z
	??$_Emplace_back@U?$StrParameter_@V?$allocator@X@std@@@dynamic_reconfigure@@@?$_Uninitialized_backout_al@V?$allocator@U?$StrParameter_@V?$allocator@X@std@@@dynamic_reconfigure@@@std@@@std@@QEAAX$$QEAU?$StrParameter_@V?$allocator@X@std@@@dynamic_reconfigure@@@Z
	??$_Emplace_back@V?$shared_ptr@$$CBVAbstractGroupDescription@VideoStreamConfig@video_stream_opencv@@@boost@@@?$_Uninitialized_backout_al@V?$allocator@V?$shared_ptr@$$CBVAbstractGroupDescription@VideoStreamConfig@video_stream_opencv@@@boost@@@std@@@std@@QEAAX$$QEAV?$shared_ptr@$$CBVAbstractGroupDescription@VideoStreamConfig@video_stream_opencv@@@boost@@@Z
	??$_Emplace_back@V?$shared_ptr@$$CBVAbstractParamDescription@VideoStreamConfig@video_stream_opencv@@@boost@@@?$_Uninitialized_backout_al@V?$allocator@V?$shared_ptr@$$CBVAbstractParamDescription@VideoStreamConfig@video_stream_opencv@@@boost@@@std@@@std@@QEAAX$$QEAV?$shared_ptr@$$CBVAbstractParamDescription@VideoStreamConfig@video_stream_opencv@@@boost@@@Z
	??$_Emplace_back_internal@N@?$deque@NV?$allocator@N@std@@@std@@AEAAX$$QEAN@Z
	??$_Emplace_back_internal@VMat@cv@@@?$deque@VMat@cv@@V?$allocator@VMat@cv@@@std@@@std@@AEAAX$$QEAVMat@cv@@@Z
	??$_Emplace_back_with_unused_capacity@AEBU?$GroupState_@V?$allocator@X@std@@@dynamic_reconfigure@@@?$vector@U?$GroupState_@V?$allocator@X@std@@@dynamic_reconfigure@@V?$allocator@U?$GroupState_@V?$allocator@X@std@@@dynamic_reconfigure@@@std@@@std@@AEAA?A_TAEBU?$GroupState_@V?$allocator@X@std@@@dynamic_reconfigure@@@Z
	??$_Emplace_back_with_unused_capacity@AEBU?$Group_@V?$allocator@X@std@@@dynamic_reconfigure@@@?$vector@U?$Group_@V?$allocator@X@std@@@dynamic_reconfigure@@V?$allocator@U?$Group_@V?$allocator@X@std@@@dynamic_reconfigure@@@std@@@std@@AEAA?A_TAEBU?$Group_@V?$allocator@X@std@@@dynamic_reconfigure@@@Z
	??$_Emplace_back_with_unused_capacity@U?$BoolParameter_@V?$allocator@X@std@@@dynamic_reconfigure@@@?$vector@U?$BoolParameter_@V?$allocator@X@std@@@dynamic_reconfigure@@V?$allocator@U?$BoolParameter_@V?$allocator@X@std@@@dynamic_reconfigure@@@std@@@std@@AEAA?A_T$$QEAU?$BoolParameter_@V?$allocator@X@std@@@dynamic_reconfigure@@@Z
	??$_Emplace_back_with_unused_capacity@U?$DoubleParameter_@V?$allocator@X@std@@@dynamic_reconfigure@@@?$vector@U?$DoubleParameter_@V?$allocator@X@std@@@dynamic_reconfigure@@V?$allocator@U?$DoubleParameter_@V?$allocator@X@std@@@dynamic_reconfigure@@@std@@@std@@AEAA?A_T$$QEAU?$DoubleParameter_@V?$allocator@X@std@@@dynamic_reconfigure@@@Z
	??$_Emplace_back_with_unused_capacity@U?$IntParameter_@V?$allocator@X@std@@@dynamic_reconfigure@@@?$vector@U?$IntParameter_@V?$allocator@X@std@@@dynamic_reconfigure@@V?$allocator@U?$IntParameter_@V?$allocator@X@std@@@dynamic_reconfigure@@@std@@@std@@AEAA?A_T$$QEAU?$IntParameter_@V?$allocator@X@std@@@dynamic_reconfigure@@@Z
	??$_Emplace_back_with_unused_capacity@U?$ParamDescription_@V?$allocator@X@std@@@dynamic_reconfigure@@@?$vector@U?$ParamDescription_@V?$allocator@X@std@@@dynamic_reconfigure@@V?$allocator@U?$ParamDescription_@V?$allocator@X@std@@@dynamic_reconfigure@@@std@@@std@@AEAA?A_T$$QEAU?$ParamDescription_@V?$allocator@X@std@@@dynamic_reconfigure@@@Z
	??$_Emplace_back_with_unused_capacity@U?$StrParameter_@V?$allocator@X@std@@@dynamic_reconfigure@@@?$vector@U?$StrParameter_@V?$allocator@X@std@@@dynamic_reconfigure@@V?$allocator@U?$StrParameter_@V?$allocator@X@std@@@dynamic_reconfigure@@@std@@@std@@AEAA?A_T$$QEAU?$StrParameter_@V?$allocator@X@std@@@dynamic_reconfigure@@@Z
	??$_Emplace_back_with_unused_capacity@V?$shared_ptr@$$CBVAbstractGroupDescription@VideoStreamConfig@video_stream_opencv@@@boost@@@?$vector@V?$shared_ptr@$$CBVAbstractGroupDescription@VideoStreamConfig@video_stream_opencv@@@boost@@V?$allocator@V?$shared_ptr@$$CBVAbstractGroupDescription@VideoStreamConfig@video_stream_opencv@@@boost@@@std@@@std@@AEAA?A_T$$QEAV?$shared_ptr@$$CBVAbstractGroupDescription@VideoStreamConfig@video_stream_opencv@@@boost@@@Z
	??$_Emplace_back_with_unused_capacity@V?$shared_ptr@$$CBVAbstractParamDescription@VideoStreamConfig@video_stream_opencv@@@boost@@@?$vector@V?$shared_ptr@$$CBVAbstractParamDescription@VideoStreamConfig@video_stream_opencv@@@boost@@V?$allocator@V?$shared_ptr@$$CBVAbstractParamDescription@VideoStreamConfig@video_stream_opencv@@@boost@@@std@@@std@@AEAA?A_T$$QEAV?$shared_ptr@$$CBVAbstractParamDescription@VideoStreamConfig@video_stream_opencv@@@boost@@@Z
	??$_Emplace_reallocate@AEBU?$GroupState_@V?$allocator@X@std@@@dynamic_reconfigure@@@?$vector@U?$GroupState_@V?$allocator@X@std@@@dynamic_reconfigure@@V?$allocator@U?$GroupState_@V?$allocator@X@std@@@dynamic_reconfigure@@@std@@@std@@QEAAPEAU?$GroupState_@V?$allocator@X@std@@@dynamic_reconfigure@@QEAU23@AEBU23@@Z
	??$_Emplace_reallocate@AEBU?$Group_@V?$allocator@X@std@@@dynamic_reconfigure@@@?$vector@U?$Group_@V?$allocator@X@std@@@dynamic_reconfigure@@V?$allocator@U?$Group_@V?$allocator@X@std@@@dynamic_reconfigure@@@std@@@std@@QEAAPEAU?$Group_@V?$allocator@X@std@@@dynamic_reconfigure@@QEAU23@AEBU23@@Z
	??$_Emplace_reallocate@U?$BoolParameter_@V?$allocator@X@std@@@dynamic_reconfigure@@@?$vector@U?$BoolParameter_@V?$allocator@X@std@@@dynamic_reconfigure@@V?$allocator@U?$BoolParameter_@V?$allocator@X@std@@@dynamic_reconfigure@@@std@@@std@@QEAAPEAU?$BoolParameter_@V?$allocator@X@std@@@dynamic_reconfigure@@QEAU23@$$QEAU23@@Z
	??$_Emplace_reallocate@U?$DoubleParameter_@V?$allocator@X@std@@@dynamic_reconfigure@@@?$vector@U?$DoubleParameter_@V?$allocator@X@std@@@dynamic_reconfigure@@V?$allocator@U?$DoubleParameter_@V?$allocator@X@std@@@dynamic_reconfigure@@@std@@@std@@QEAAPEAU?$DoubleParameter_@V?$allocator@X@std@@@dynamic_reconfigure@@QEAU23@$$QEAU23@@Z
	??$_Emplace_reallocate@U?$IntParameter_@V?$allocator@X@std@@@dynamic_reconfigure@@@?$vector@U?$IntParameter_@V?$allocator@X@std@@@dynamic_reconfigure@@V?$allocator@U?$IntParameter_@V?$allocator@X@std@@@dynamic_reconfigure@@@std@@@std@@QEAAPEAU?$IntParameter_@V?$allocator@X@std@@@dynamic_reconfigure@@QEAU23@$$QEAU23@@Z
	??$_Emplace_reallocate@U?$ParamDescription_@V?$allocator@X@std@@@dynamic_reconfigure@@@?$vector@U?$ParamDescription_@V?$allocator@X@std@@@dynamic_reconfigure@@V?$allocator@U?$ParamDescription_@V?$allocator@X@std@@@dynamic_reconfigure@@@std@@@std@@QEAAPEAU?$ParamDescription_@V?$allocator@X@std@@@dynamic_reconfigure@@QEAU23@$$QEAU23@@Z
	??$_Emplace_reallocate@U?$StrParameter_@V?$allocator@X@std@@@dynamic_reconfigure@@@?$vector@U?$StrParameter_@V?$allocator@X@std@@@dynamic_reconfigure@@V?$allocator@U?$StrParameter_@V?$allocator@X@std@@@dynamic_reconfigure@@@std@@@std@@QEAAPEAU?$StrParameter_@V?$allocator@X@std@@@dynamic_reconfigure@@QEAU23@$$QEAU23@@Z
	??$_Emplace_reallocate@V?$shared_ptr@$$CBVAbstractGroupDescription@VideoStreamConfig@video_stream_opencv@@@boost@@@?$vector@V?$shared_ptr@$$CBVAbstractGroupDescription@VideoStreamConfig@video_stream_opencv@@@boost@@V?$allocator@V?$shared_ptr@$$CBVAbstractGroupDescription@VideoStreamConfig@video_stream_opencv@@@boost@@@std@@@std@@QEAAPEAV?$shared_ptr@$$CBVAbstractGroupDescription@VideoStreamConfig@video_stream_opencv@@@boost@@QEAV23@$$QEAV23@@Z
	??$_Emplace_reallocate@V?$shared_ptr@$$CBVAbstractParamDescription@VideoStreamConfig@video_stream_opencv@@@boost@@@?$vector@V?$shared_ptr@$$CBVAbstractParamDescription@VideoStreamConfig@video_stream_opencv@@@boost@@V?$allocator@V?$shared_ptr@$$CBVAbstractParamDescription@VideoStreamConfig@video_stream_opencv@@@boost@@@std@@@std@@QEAAPEAV?$shared_ptr@$$CBVAbstractParamDescription@VideoStreamConfig@video_stream_opencv@@@boost@@QEAV23@$$QEAV23@@Z
	??$_Fill_zero_memset@PEAN@std@@YAXPEAN_K@Z
	??$_Find@V?$basic_string@DU?$char_traits@D@std@@V?$allocator@D@2@@std@@@?$_Tree@V?$_Tmap_traits@V?$basic_string@DU?$char_traits@D@std@@V?$allocator@D@2@@std@@PEAVAbstractMetaObjectBase@impl@class_loader@@U?$less@V?$basic_string@DU?$char_traits@D@std@@V?$allocator@D@2@@std@@@2@V?$allocator@U?$pair@$$CBV?$basic_string@DU?$char_traits@D@std@@V?$allocator@D@2@@std@@PEAVAbstractMetaObjectBase@impl@class_loader@@@std@@@2@$0A@@std@@@std@@AEBAPEAU?$_Tree_node@U?$pair@$$CBV?$basic_string@DU?$char_traits@D@std@@V?$allocator@D@2@@std@@PEAVAbstractMetaObjectBase@impl@class_loader@@@std@@PEAX@1@AEBV?$basic_string@DU?$char_traits@D@std@@V?$allocator@D@2@@1@@Z
	??$_Find_lower_bound@V?$basic_string@DU?$char_traits@D@std@@V?$allocator@D@2@@std@@@?$_Tree@V?$_Tmap_traits@V?$basic_string@DU?$char_traits@D@std@@V?$allocator@D@2@@std@@PEAVAbstractMetaObjectBase@impl@class_loader@@U?$less@V?$basic_string@DU?$char_traits@D@std@@V?$allocator@D@2@@std@@@2@V?$allocator@U?$pair@$$CBV?$basic_string@DU?$char_traits@D@std@@V?$allocator@D@2@@std@@PEAVAbstractMetaObjectBase@impl@class_loader@@@std@@@2@$0A@@std@@@std@@IEBA?AU?$_Tree_find_result@PEAU?$_Tree_node@U?$pair@$$CBV?$basic_string@DU?$char_traits@D@std@@V?$allocator@D@2@@std@@PEAVAbstractMetaObjectBase@impl@class_loader@@@std@@PEAX@std@@@1@AEBV?$basic_string@DU?$char_traits@D@std@@V?$allocator@D@2@@1@@Z
	??$_Get_size_of_n@$00@std@@YA_K_K@Z
	??$_Get_size_of_n@$07@std@@YA_K_K@Z
	??$_Get_size_of_n@$0BA@@std@@YA_K_K@Z
	??$_Get_size_of_n@$0CI@@std@@YA_K_K@Z
	??$_Get_size_of_n@$0DA@@std@@YA_K_K@Z
	??$_Get_size_of_n@$0EA@@std@@YA_K_K@Z
	??$_Get_size_of_n@$0EI@@std@@YA_K_K@Z
	??$_Get_size_of_n@$0GA@@std@@YA_K_K@Z
	??$_Get_size_of_n@$0II@@std@@YA_K_K@Z
	??$_Get_unwrapped@AEAPEAU?$ParamDescription_@V?$allocator@X@std@@@dynamic_reconfigure@@@std@@YA?A_TAEAPEAU?$ParamDescription_@V?$allocator@X@std@@@dynamic_reconfigure@@@Z
	??$_Get_unwrapped@AEAPEAV?$shared_ptr@$$CBVAbstractParamDescription@VideoStreamConfig@video_stream_opencv@@@boost@@@std@@YA?A_TAEAPEAV?$shared_ptr@$$CBVAbstractParamDescription@VideoStreamConfig@video_stream_opencv@@@boost@@@Z
	??$_Get_unwrapped@AEBQEAN@std@@YA?A_TAEBQEAN@Z
	??$_Get_unwrapped@AEBQEAPEAN@std@@YA?A_TAEBQEAPEAN@Z
	??$_Get_unwrapped@AEBQEAPEAVMat@cv@@@std@@YA?A_TAEBQEAPEAVMat@cv@@@Z
	??$_Get_unwrapped@AEBQEAU?$BoolParameter_@V?$allocator@X@std@@@dynamic_reconfigure@@@std@@YA?A_TAEBQEAU?$BoolParameter_@V?$allocator@X@std@@@dynamic_reconfigure@@@Z
	??$_Get_unwrapped@AEBQEAU?$DoubleParameter_@V?$allocator@X@std@@@dynamic_reconfigure@@@std@@YA?A_TAEBQEAU?$DoubleParameter_@V?$allocator@X@std@@@dynamic_reconfigure@@@Z
	??$_Get_unwrapped@AEBQEAU?$GroupState_@V?$allocator@X@std@@@dynamic_reconfigure@@@std@@YA?A_TAEBQEAU?$GroupState_@V?$allocator@X@std@@@dynamic_reconfigure@@@Z
	??$_Get_unwrapped@AEBQEAU?$Group_@V?$allocator@X@std@@@dynamic_reconfigure@@@std@@YA?A_TAEBQEAU?$Group_@V?$allocator@X@std@@@dynamic_reconfigure@@@Z
	??$_Get_unwrapped@AEBQEAU?$IntParameter_@V?$allocator@X@std@@@dynamic_reconfigure@@@std@@YA?A_TAEBQEAU?$IntParameter_@V?$allocator@X@std@@@dynamic_reconfigure@@@Z
	??$_Get_unwrapped@AEBQEAU?$ParamDescription_@V?$allocator@X@std@@@dynamic_reconfigure@@@std@@YA?A_TAEBQEAU?$ParamDescription_@V?$allocator@X@std@@@dynamic_reconfigure@@@Z
	??$_Get_unwrapped@AEBQEAU?$StrParameter_@V?$allocator@X@std@@@dynamic_reconfigure@@@std@@YA?A_TAEBQEAU?$StrParameter_@V?$allocator@X@std@@@dynamic_reconfigure@@@Z
	??$_Get_unwrapped@AEBQEAV?$shared_ptr@$$CBVAbstractGroupDescription@VideoStreamConfig@video_stream_opencv@@@boost@@@std@@YA?A_TAEBQEAV?$shared_ptr@$$CBVAbstractGroupDescription@VideoStreamConfig@video_stream_opencv@@@boost@@@Z
	??$_Get_unwrapped@AEBQEAV?$shared_ptr@$$CBVAbstractParamDescription@VideoStreamConfig@video_stream_opencv@@@boost@@@std@@YA?A_TAEBQEAV?$shared_ptr@$$CBVAbstractParamDescription@VideoStreamConfig@video_stream_opencv@@@boost@@@Z
	??$_Get_unwrapped_n@AEAPEAN_K@std@@YA?A_TAEAPEAN_K@Z
	??$_Get_unwrapped_n@AEAPEAPEAN_J@std@@YA?A_TAEAPEAPEAN_J@Z
	??$_Get_unwrapped_n@AEAPEAPEAVMat@cv@@_J@std@@YA?A_TAEAPEAPEAVMat@cv@@_J@Z
	??$_Getvals@_W@?$time_get@DV?$istreambuf_iterator@DU?$char_traits@D@std@@@std@@@std@@IEAAX_WAEBV_Locinfo@1@@Z
	??$_Getvals@_W@?$time_get@_WV?$istreambuf_iterator@_WU?$char_traits@_W@std@@@std@@@std@@IEAAX_WAEBV_Locinfo@1@@Z
	??$_Idl_distance@PEAPEANPEAPEAN@std@@YA?A_PAEBQEAPEAN0@Z
	??$_Idl_distance@PEAPEAVMat@cv@@PEAPEAV12@@std@@YA?A_PAEBQEAPEAVMat@cv@@0@Z
	??$_Insert_string@DU?$char_traits@D@std@@_K@std@@YAAEAV?$basic_ostream@DU?$char_traits@D@std@@@0@AEAV10@QEBD_K@Z
	??$_Is_all_bits_zero@N@std@@YA_NAEBN@Z
	??$_Kfn@$$CBV?$basic_string@DU?$char_traits@D@std@@V?$allocator@D@2@@std@@PEAVAbstractMetaObjectBase@impl@class_loader@@@?$_Tmap_traits@V?$basic_string@DU?$char_traits@D@std@@V?$allocator@D@2@@std@@PEAVAbstractMetaObjectBase@impl@class_loader@@U?$less@V?$basic_string@DU?$char_traits@D@std@@V?$allocator@D@2@@std@@@2@V?$allocator@U?$pair@$$CBV?$basic_string@DU?$char_traits@D@std@@V?$allocator@D@2@@std@@PEAVAbstractMetaObjectBase@impl@class_loader@@@std@@@2@$0A@@std@@SAAEBV?$basic_string@DU?$char_traits@D@std@@V?$allocator@D@2@@1@AEBU?$pair@$$CBV?$basic_string@DU?$char_traits@D@std@@V?$allocator@D@2@@std@@PEAVAbstractMetaObjectBase@impl@class_loader@@@1@@Z
	??$_Lower_bound_duplicate@V?$basic_string@DU?$char_traits@D@std@@V?$allocator@D@2@@std@@@?$_Tree@V?$_Tmap_traits@V?$basic_string@DU?$char_traits@D@std@@V?$allocator@D@2@@std@@PEAVAbstractMetaObjectBase@impl@class_loader@@U?$less@V?$basic_string@DU?$char_traits@D@std@@V?$allocator@D@2@@std@@@2@V?$allocator@U?$pair@$$CBV?$basic_string@DU?$char_traits@D@std@@V?$allocator@D@2@@std@@PEAVAbstractMetaObjectBase@impl@class_loader@@@std@@@2@$0A@@std@@@std@@IEBA_NQEAU?$_Tree_node@U?$pair@$$CBV?$basic_string@DU?$char_traits@D@std@@V?$allocator@D@2@@std@@PEAVAbstractMetaObjectBase@impl@class_loader@@@std@@PEAX@1@AEBV?$basic_string@DU?$char_traits@D@std@@V?$allocator@D@2@@1@@Z
	??$_Maklocstr@D@std@@YAPEADPEBDPEADAEBU_Cvtvec@@@Z
	??$_Maklocstr@_W@std@@YAPEA_WPEBDPEA_WAEBU_Cvtvec@@@Z
	??$_Pocca@V?$allocator@D@std@@@std@@YAXAEAV?$allocator@D@0@AEBV10@@Z
	??$_Pocca@V?$allocator@U?$ParamDescription_@V?$allocator@X@std@@@dynamic_reconfigure@@@std@@@std@@YAXAEAV?$allocator@U?$ParamDescription_@V?$allocator@X@std@@@dynamic_reconfigure@@@0@AEBV10@@Z
	??$_Pocca@V?$allocator@V?$shared_ptr@$$CBVAbstractParamDescription@VideoStreamConfig@video_stream_opencv@@@boost@@@std@@@std@@YAXAEAV?$allocator@V?$shared_ptr@$$CBVAbstractParamDescription@VideoStreamConfig@video_stream_opencv@@@boost@@@0@AEBV10@@Z
	??$_Pocma@V?$allocator@D@std@@@std@@YAXAEAV?$allocator@D@0@0@Z
	??$_Pocma@V?$allocator@N@std@@@std@@YAXAEAV?$allocator@N@0@0@Z
	??$_Reallocate_for@V<lambda_138c3d7c38c85abb84c7fc7bfe5747b7>@@D@?$basic_string@DU?$char_traits@D@std@@V?$allocator@D@2@@std@@AEAAAEAV01@_KV<lambda_138c3d7c38c85abb84c7fc7bfe5747b7>@@D@Z
	??$_Reallocate_for@V<lambda_66f57f934f28d61049862f64df852ff0>@@PEBD@?$basic_string@DU?$char_traits@D@std@@V?$allocator@D@2@@std@@AEAAAEAV01@_KV<lambda_66f57f934f28d61049862f64df852ff0>@@PEBD@Z
	??$_Reallocate_grow_by@V<lambda_65e615be2a453ca0576c979606f46740>@@PEBD_K@?$basic_string@DU?$char_traits@D@std@@V?$allocator@D@2@@std@@AEAAAEAV01@_KV<lambda_65e615be2a453ca0576c979606f46740>@@PEBD_K@Z
	??$_Reallocate_grow_by@V<lambda_e1befb086ad3257e3f042a63030725f7>@@_KD@?$basic_string@DU?$char_traits@D@std@@V?$allocator@D@2@@std@@AEAAAEAV01@_KV<lambda_e1befb086ad3257e3f042a63030725f7>@@_KD@Z
	??$_Refancy@PEBD$0A@@std@@YAPEBDPEBD@Z
	??$_Resize@N@?$vector@NV?$allocator@N@std@@@std@@AEAAX_KAEBN@Z
	??$_Resize@U_Value_init_tag@std@@@?$vector@U?$BoolParameter_@V?$allocator@X@std@@@dynamic_reconfigure@@V?$allocator@U?$BoolParameter_@V?$allocator@X@std@@@dynamic_reconfigure@@@std@@@std@@AEAAX_KAEBU_Value_init_tag@1@@Z
	??$_Resize@U_Value_init_tag@std@@@?$vector@U?$DoubleParameter_@V?$allocator@X@std@@@dynamic_reconfigure@@V?$allocator@U?$DoubleParameter_@V?$allocator@X@std@@@dynamic_reconfigure@@@std@@@std@@AEAAX_KAEBU_Value_init_tag@1@@Z
	??$_Resize@U_Value_init_tag@std@@@?$vector@U?$GroupState_@V?$allocator@X@std@@@dynamic_reconfigure@@V?$allocator@U?$GroupState_@V?$allocator@X@std@@@dynamic_reconfigure@@@std@@@std@@AEAAX_KAEBU_Value_init_tag@1@@Z
	??$_Resize@U_Value_init_tag@std@@@?$vector@U?$IntParameter_@V?$allocator@X@std@@@dynamic_reconfigure@@V?$allocator@U?$IntParameter_@V?$allocator@X@std@@@dynamic_reconfigure@@@std@@@std@@AEAAX_KAEBU_Value_init_tag@1@@Z
	??$_Resize@U_Value_init_tag@std@@@?$vector@U?$StrParameter_@V?$allocator@X@std@@@dynamic_reconfigure@@V?$allocator@U?$StrParameter_@V?$allocator@X@std@@@dynamic_reconfigure@@@std@@@std@@AEAAX_KAEBU_Value_init_tag@1@@Z
	??$_Resize_reallocate@N@?$vector@NV?$allocator@N@std@@@std@@AEAAX_KAEBN@Z
	??$_Resize_reallocate@U_Value_init_tag@std@@@?$vector@U?$BoolParameter_@V?$allocator@X@std@@@dynamic_reconfigure@@V?$allocator@U?$BoolParameter_@V?$allocator@X@std@@@dynamic_reconfigure@@@std@@@std@@AEAAX_KAEBU_Value_init_tag@1@@Z
	??$_Resize_reallocate@U_Value_init_tag@std@@@?$vector@U?$DoubleParameter_@V?$allocator@X@std@@@dynamic_reconfigure@@V?$allocator@U?$DoubleParameter_@V?$allocator@X@std@@@dynamic_reconfigure@@@std@@@std@@AEAAX_KAEBU_Value_init_tag@1@@Z
	??$_Resize_reallocate@U_Value_init_tag@std@@@?$vector@U?$GroupState_@V?$allocator@X@std@@@dynamic_reconfigure@@V?$allocator@U?$GroupState_@V?$allocator@X@std@@@dynamic_reconfigure@@@std@@@std@@AEAAX_KAEBU_Value_init_tag@1@@Z
	??$_Resize_reallocate@U_Value_init_tag@std@@@?$vector@U?$IntParameter_@V?$allocator@X@std@@@dynamic_reconfigure@@V?$allocator@U?$IntParameter_@V?$allocator@X@std@@@dynamic_reconfigure@@@std@@@std@@AEAAX_KAEBU_Value_init_tag@1@@Z
	??$_Resize_reallocate@U_Value_init_tag@std@@@?$vector@U?$StrParameter_@V?$allocator@X@std@@@dynamic_reconfigure@@V?$allocator@U?$StrParameter_@V?$allocator@X@std@@@dynamic_reconfigure@@@std@@@std@@AEAAX_KAEBU_Value_init_tag@1@@Z
	??$_Seek_wrapped@PEANAEAPEAN@std@@YAXAEAPEAN0@Z
	??$_Seek_wrapped@PEANPEAN@std@@YAXAEAPEAN$$QEAPEAN@Z
	??$_Seek_wrapped@PEAPEANPEAPEAN@std@@YAXAEAPEAPEAN$$QEAPEAPEAN@Z
	??$_Seek_wrapped@PEAPEAVMat@cv@@PEAPEAV12@@std@@YAXAEAPEAPEAVMat@cv@@$$QEAPEAPEAV12@@Z
	??$_To_address@PEAN@std@@YA?A_PAEBQEAN@Z
	??$_To_address@PEAPEAN@std@@YA?A_PAEBQEAPEAN@Z
	??$_To_address@PEAPEAVMat@cv@@@std@@YA?A_PAEBQEAPEAVMat@cv@@@Z
	??$_Traits_compare@U?$char_traits@D@std@@@std@@YAHQEBD_K01@Z
	??$_Traits_equal@U?$char_traits@D@std@@@std@@YA_NQEBD_K01@Z
	??$_Traits_find@U?$char_traits@D@std@@@std@@YA_KQEBD_K101@Z
	??$_Try_emplace@AEBV?$basic_string@DU?$char_traits@D@std@@V?$allocator@D@2@@std@@$$V@?$map@V?$basic_string@DU?$char_traits@D@std@@V?$allocator@D@2@@std@@PEAVAbstractMetaObjectBase@impl@class_loader@@U?$less@V?$basic_string@DU?$char_traits@D@std@@V?$allocator@D@2@@std@@@2@V?$allocator@U?$pair@$$CBV?$basic_string@DU?$char_traits@D@std@@V?$allocator@D@2@@std@@PEAVAbstractMetaObjectBase@impl@class_loader@@@std@@@2@@std@@AEAA?AU?$pair@PEAU?$_Tree_node@U?$pair@$$CBV?$basic_string@DU?$char_traits@D@std@@V?$allocator@D@2@@std@@PEAVAbstractMetaObjectBase@impl@class_loader@@@std@@PEAX@std@@_N@1@AEBV?$basic_string@DU?$char_traits@D@std@@V?$allocator@D@2@@1@@Z
	??$_Tuple_get@$0A@AEBV?$basic_string@DU?$char_traits@D@std@@V?$allocator@D@2@@std@@@std@@YA$$QEA_P$$QEAV?$tuple@AEBV?$basic_string@DU?$char_traits@D@std@@V?$allocator@D@2@@std@@@0@@Z
	??$_Ucopy@PEAU?$ParamDescription_@V?$allocator@X@std@@@dynamic_reconfigure@@@?$vector@U?$ParamDescription_@V?$allocator@X@std@@@dynamic_reconfigure@@V?$allocator@U?$ParamDescription_@V?$allocator@X@std@@@dynamic_reconfigure@@@std@@@std@@AEAAPEAU?$ParamDescription_@V?$allocator@X@std@@@dynamic_reconfigure@@PEAU23@00@Z
	??$_Ucopy@PEAV?$shared_ptr@$$CBVAbstractGroupDescription@VideoStreamConfig@video_stream_opencv@@@boost@@@?$vector@V?$shared_ptr@$$CBVAbstractGroupDescription@VideoStreamConfig@video_stream_opencv@@@boost@@V?$allocator@V?$shared_ptr@$$CBVAbstractGroupDescription@VideoStreamConfig@video_stream_opencv@@@boost@@@std@@@std@@AEAAPEAV?$shared_ptr@$$CBVAbstractGroupDescription@VideoStreamConfig@video_stream_opencv@@@boost@@PEAV23@00@Z
	??$_Ucopy@PEAV?$shared_ptr@$$CBVAbstractParamDescription@VideoStreamConfig@video_stream_opencv@@@boost@@@?$vector@V?$shared_ptr@$$CBVAbstractParamDescription@VideoStreamConfig@video_stream_opencv@@@boost@@V?$allocator@V?$shared_ptr@$$CBVAbstractParamDescription@VideoStreamConfig@video_stream_opencv@@@boost@@@std@@@std@@AEAAPEAV?$shared_ptr@$$CBVAbstractParamDescription@VideoStreamConfig@video_stream_opencv@@@boost@@PEAV23@00@Z
	??$_Unfancy@D@std@@YAPEADPEAD@Z
	??$_Unfancy@N@std@@YAPEANPEAN@Z
	??$_Unfancy@U?$BoolParameter_@V?$allocator@X@std@@@dynamic_reconfigure@@@std@@YAPEAU?$BoolParameter_@V?$allocator@X@std@@@dynamic_reconfigure@@PEAU12@@Z
	??$_Unfancy@U?$DoubleParameter_@V?$allocator@X@std@@@dynamic_reconfigure@@@std@@YAPEAU?$DoubleParameter_@V?$allocator@X@std@@@dynamic_reconfigure@@PEAU12@@Z
	??$_Unfancy@U?$GroupState_@V?$allocator@X@std@@@dynamic_reconfigure@@@std@@YAPEAU?$GroupState_@V?$allocator@X@std@@@dynamic_reconfigure@@PEAU12@@Z
	??$_Unfancy@U?$Group_@V?$allocator@X@std@@@dynamic_reconfigure@@@std@@YAPEAU?$Group_@V?$allocator@X@std@@@dynamic_reconfigure@@PEAU12@@Z
	??$_Unfancy@U?$IntParameter_@V?$allocator@X@std@@@dynamic_reconfigure@@@std@@YAPEAU?$IntParameter_@V?$allocator@X@std@@@dynamic_reconfigure@@PEAU12@@Z
	??$_Unfancy@U?$ParamDescription_@V?$allocator@X@std@@@dynamic_reconfigure@@@std@@YAPEAU?$ParamDescription_@V?$allocator@X@std@@@dynamic_reconfigure@@PEAU12@@Z
	??$_Unfancy@U?$StrParameter_@V?$allocator@X@std@@@dynamic_reconfigure@@@std@@YAPEAU?$StrParameter_@V?$allocator@X@std@@@dynamic_reconfigure@@PEAU12@@Z
	??$_Unfancy@U_Container_proxy@std@@@std@@YAPEAU_Container_proxy@0@PEAU10@@Z
	??$_Unfancy@V?$shared_ptr@$$CBVAbstractGroupDescription@VideoStreamConfig@video_stream_opencv@@@boost@@@std@@YAPEAV?$shared_ptr@$$CBVAbstractGroupDescription@VideoStreamConfig@video_stream_opencv@@@boost@@PEAV12@@Z
	??$_Unfancy@V?$shared_ptr@$$CBVAbstractParamDescription@VideoStreamConfig@video_stream_opencv@@@boost@@@std@@YAPEAV?$shared_ptr@$$CBVAbstractParamDescription@VideoStreamConfig@video_stream_opencv@@@boost@@PEAV12@@Z
	??$_Unfancy@VMat@cv@@@std@@YAPEAVMat@cv@@PEAV12@@Z
	??$_Unfancy@_W@std@@YAPEA_WPEA_W@Z
	??$_Uninitialized_copy@PEAU?$ParamDescription_@V?$allocator@X@std@@@dynamic_reconfigure@@V?$allocator@U?$ParamDescription_@V?$allocator@X@std@@@dynamic_reconfigure@@@std@@@std@@YAPEAU?$ParamDescription_@V?$allocator@X@std@@@dynamic_reconfigure@@QEAU12@0PEAU12@AEAV?$allocator@U?$ParamDescription_@V?$allocator@X@std@@@dynamic_reconfigure@@@0@@Z
	??$_Uninitialized_copy@PEAV?$shared_ptr@$$CBVAbstractGroupDescription@VideoStreamConfig@video_stream_opencv@@@boost@@V?$allocator@V?$shared_ptr@$$CBVAbstractGroupDescription@VideoStreamConfig@video_stream_opencv@@@boost@@@std@@@std@@YAPEAV?$shared_ptr@$$CBVAbstractGroupDescription@VideoStreamConfig@video_stream_opencv@@@boost@@QEAV12@0PEAV12@AEAV?$allocator@V?$shared_ptr@$$CBVAbstractGroupDescription@VideoStreamConfig@video_stream_opencv@@@boost@@@0@@Z
	??$_Uninitialized_copy@PEAV?$shared_ptr@$$CBVAbstractParamDescription@VideoStreamConfig@video_stream_opencv@@@boost@@V?$allocator@V?$shared_ptr@$$CBVAbstractParamDescription@VideoStreamConfig@video_stream_opencv@@@boost@@@std@@@std@@YAPEAV?$shared_ptr@$$CBVAbstractParamDescription@VideoStreamConfig@video_stream_opencv@@@boost@@QEAV12@0PEAV12@AEAV?$allocator@V?$shared_ptr@$$CBVAbstractParamDescription@VideoStreamConfig@video_stream_opencv@@@boost@@@0@@Z
	??$_Uninitialized_copy_unchecked@PEAPEANPEAPEAN@std@@YAPEAPEANPEAPEANQEAPEAN0@Z
	??$_Uninitialized_copy_unchecked@PEAPEAVMat@cv@@PEAPEAV12@@std@@YAPEAPEAVMat@cv@@PEAPEAV12@QEAPEAV12@0@Z
	??$_Uninitialized_fill_n@V?$allocator@N@std@@@std@@YAPEANPEAN_KAEBNAEAV?$allocator@N@0@@Z
	??$_Uninitialized_move@PEANV?$allocator@N@std@@@std@@YAPEANQEAN0PEANAEAV?$allocator@N@0@@Z
	??$_Uninitialized_move@PEAU?$BoolParameter_@V?$allocator@X@std@@@dynamic_reconfigure@@V?$allocator@U?$BoolParameter_@V?$allocator@X@std@@@dynamic_reconfigure@@@std@@@std@@YAPEAU?$BoolParameter_@V?$allocator@X@std@@@dynamic_reconfigure@@QEAU12@0PEAU12@AEAV?$allocator@U?$BoolParameter_@V?$allocator@X@std@@@dynamic_reconfigure@@@0@@Z
	??$_Uninitialized_move@PEAU?$DoubleParameter_@V?$allocator@X@std@@@dynamic_reconfigure@@V?$allocator@U?$DoubleParameter_@V?$allocator@X@std@@@dynamic_reconfigure@@@std@@@std@@YAPEAU?$DoubleParameter_@V?$allocator@X@std@@@dynamic_reconfigure@@QEAU12@0PEAU12@AEAV?$allocator@U?$DoubleParameter_@V?$allocator@X@std@@@dynamic_reconfigure@@@0@@Z
	??$_Uninitialized_move@PEAU?$GroupState_@V?$allocator@X@std@@@dynamic_reconfigure@@V?$allocator@U?$GroupState_@V?$allocator@X@std@@@dynamic_reconfigure@@@std@@@std@@YAPEAU?$GroupState_@V?$allocator@X@std@@@dynamic_reconfigure@@QEAU12@0PEAU12@AEAV?$allocator@U?$GroupState_@V?$allocator@X@std@@@dynamic_reconfigure@@@0@@Z
	??$_Uninitialized_move@PEAU?$Group_@V?$allocator@X@std@@@dynamic_reconfigure@@V?$allocator@U?$Group_@V?$allocator@X@std@@@dynamic_reconfigure@@@std@@@std@@YAPEAU?$Group_@V?$allocator@X@std@@@dynamic_reconfigure@@QEAU12@0PEAU12@AEAV?$allocator@U?$Group_@V?$allocator@X@std@@@dynamic_reconfigure@@@0@@Z
	??$_Uninitialized_move@PEAU?$IntParameter_@V?$allocator@X@std@@@dynamic_reconfigure@@V?$allocator@U?$IntParameter_@V?$allocator@X@std@@@dynamic_reconfigure@@@std@@@std@@YAPEAU?$IntParameter_@V?$allocator@X@std@@@dynamic_reconfigure@@QEAU12@0PEAU12@AEAV?$allocator@U?$IntParameter_@V?$allocator@X@std@@@dynamic_reconfigure@@@0@@Z
	??$_Uninitialized_move@PEAU?$ParamDescription_@V?$allocator@X@std@@@dynamic_reconfigure@@V?$allocator@U?$ParamDescription_@V?$allocator@X@std@@@dynamic_reconfigure@@@std@@@std@@YAPEAU?$ParamDescription_@V?$allocator@X@std@@@dynamic_reconfigure@@QEAU12@0PEAU12@AEAV?$allocator@U?$ParamDescription_@V?$allocator@X@std@@@dynamic_reconfigure@@@0@@Z
	??$_Uninitialized_move@PEAU?$StrParameter_@V?$allocator@X@std@@@dynamic_reconfigure@@V?$allocator@U?$StrParameter_@V?$allocator@X@std@@@dynamic_reconfigure@@@std@@@std@@YAPEAU?$StrParameter_@V?$allocator@X@std@@@dynamic_reconfigure@@QEAU12@0PEAU12@AEAV?$allocator@U?$StrParameter_@V?$allocator@X@std@@@dynamic_reconfigure@@@0@@Z
	??$_Uninitialized_move@PEAV?$shared_ptr@$$CBVAbstractGroupDescription@VideoStreamConfig@video_stream_opencv@@@boost@@V?$allocator@V?$shared_ptr@$$CBVAbstractGroupDescription@VideoStreamConfig@video_stream_opencv@@@boost@@@std@@@std@@YAPEAV?$shared_ptr@$$CBVAbstractGroupDescription@VideoStreamConfig@video_stream_opencv@@@boost@@QEAV12@0PEAV12@AEAV?$allocator@V?$shared_ptr@$$CBVAbstractGroupDescription@VideoStreamConfig@video_stream_opencv@@@boost@@@0@@Z
	??$_Uninitialized_move@PEAV?$shared_ptr@$$CBVAbstractParamDescription@VideoStreamConfig@video_stream_opencv@@@boost@@V?$allocator@V?$shared_ptr@$$CBVAbstractParamDescription@VideoStreamConfig@video_stream_opencv@@@boost@@@std@@@std@@YAPEAV?$shared_ptr@$$CBVAbstractParamDescription@VideoStreamConfig@video_stream_opencv@@@boost@@QEAV12@0PEAV12@AEAV?$allocator@V?$shared_ptr@$$CBVAbstractParamDescription@VideoStreamConfig@video_stream_opencv@@@boost@@@0@@Z
	??$_Uninitialized_value_construct_n@V?$allocator@U?$BoolParameter_@V?$allocator@X@std@@@dynamic_reconfigure@@@std@@@std@@YAPEAU?$BoolParameter_@V?$allocator@X@std@@@dynamic_reconfigure@@PEAU12@_KAEAV?$allocator@U?$BoolParameter_@V?$allocator@X@std@@@dynamic_reconfigure@@@0@@Z
	??$_Uninitialized_value_construct_n@V?$allocator@U?$DoubleParameter_@V?$allocator@X@std@@@dynamic_reconfigure@@@std@@@std@@YAPEAU?$DoubleParameter_@V?$allocator@X@std@@@dynamic_reconfigure@@PEAU12@_KAEAV?$allocator@U?$DoubleParameter_@V?$allocator@X@std@@@dynamic_reconfigure@@@0@@Z
	??$_Uninitialized_value_construct_n@V?$allocator@U?$GroupState_@V?$allocator@X@std@@@dynamic_reconfigure@@@std@@@std@@YAPEAU?$GroupState_@V?$allocator@X@std@@@dynamic_reconfigure@@PEAU12@_KAEAV?$allocator@U?$GroupState_@V?$allocator@X@std@@@dynamic_reconfigure@@@0@@Z
	??$_Uninitialized_value_construct_n@V?$allocator@U?$IntParameter_@V?$allocator@X@std@@@dynamic_reconfigure@@@std@@@std@@YAPEAU?$IntParameter_@V?$allocator@X@std@@@dynamic_reconfigure@@PEAU12@_KAEAV?$allocator@U?$IntParameter_@V?$allocator@X@std@@@dynamic_reconfigure@@@0@@Z
	??$_Uninitialized_value_construct_n@V?$allocator@U?$StrParameter_@V?$allocator@X@std@@@dynamic_reconfigure@@@std@@@std@@YAPEAU?$StrParameter_@V?$allocator@X@std@@@dynamic_reconfigure@@PEAU12@_KAEAV?$allocator@U?$StrParameter_@V?$allocator@X@std@@@dynamic_reconfigure@@@0@@Z
	??$_Uninitialized_value_construct_n_unchecked1@PEAPEAN_K@std@@YAPEAPEANPEAPEAN_K@Z
	??$_Uninitialized_value_construct_n_unchecked1@PEAPEAVMat@cv@@_K@std@@YAPEAPEAVMat@cv@@PEAPEAV12@_K@Z
	??$_Voidify_iter@PEAN@std@@YAPEAXPEAN@Z
	??$_Voidify_iter@PEAPEAD@std@@YAPEAXPEAPEAD@Z
	??$_Voidify_iter@PEAPEAN@std@@YAPEAXPEAPEAN@Z
	??$_Voidify_iter@PEAPEAU?$_Tree_node@U?$pair@$$CBV?$basic_string@DU?$char_traits@D@std@@V?$allocator@D@2@@std@@PEAVAbstractMetaObjectBase@impl@class_loader@@@std@@PEAX@std@@@std@@YAPEAXPEAPEAU?$_Tree_node@U?$pair@$$CBV?$basic_string@DU?$char_traits@D@std@@V?$allocator@D@2@@std@@PEAVAbstractMetaObjectBase@impl@class_loader@@@std@@PEAX@0@@Z
	??$_Voidify_iter@PEAPEAVMat@cv@@@std@@YAPEAXPEAPEAVMat@cv@@@Z
	??$_Voidify_iter@PEAU?$BoolParameter_@V?$allocator@X@std@@@dynamic_reconfigure@@@std@@YAPEAXPEAU?$BoolParameter_@V?$allocator@X@std@@@dynamic_reconfigure@@@Z
	??$_Voidify_iter@PEAU?$DoubleParameter_@V?$allocator@X@std@@@dynamic_reconfigure@@@std@@YAPEAXPEAU?$DoubleParameter_@V?$allocator@X@std@@@dynamic_reconfigure@@@Z
	??$_Voidify_iter@PEAU?$GroupState_@V?$allocator@X@std@@@dynamic_reconfigure@@@std@@YAPEAXPEAU?$GroupState_@V?$allocator@X@std@@@dynamic_reconfigure@@@Z
	??$_Voidify_iter@PEAU?$Group_@V?$allocator@X@std@@@dynamic_reconfigure@@@std@@YAPEAXPEAU?$Group_@V?$allocator@X@std@@@dynamic_reconfigure@@@Z
	??$_Voidify_iter@PEAU?$IntParameter_@V?$allocator@X@std@@@dynamic_reconfigure@@@std@@YAPEAXPEAU?$IntParameter_@V?$allocator@X@std@@@dynamic_reconfigure@@@Z
	??$_Voidify_iter@PEAU?$ParamDescription_@V?$allocator@X@std@@@dynamic_reconfigure@@@std@@YAPEAXPEAU?$ParamDescription_@V?$allocator@X@std@@@dynamic_reconfigure@@@Z
	??$_Voidify_iter@PEAU?$StrParameter_@V?$allocator@X@std@@@dynamic_reconfigure@@@std@@YAPEAXPEAU?$StrParameter_@V?$allocator@X@std@@@dynamic_reconfigure@@@Z
	??$_Voidify_iter@PEAU?$pair@$$CBV?$basic_string@DU?$char_traits@D@std@@V?$allocator@D@2@@std@@PEAVAbstractMetaObjectBase@impl@class_loader@@@std@@@std@@YAPEAXPEAU?$pair@$$CBV?$basic_string@DU?$char_traits@D@std@@V?$allocator@D@2@@std@@PEAVAbstractMetaObjectBase@impl@class_loader@@@0@@Z
	??$_Voidify_iter@PEAU_Container_proxy@std@@@std@@YAPEAXPEAU_Container_proxy@0@@Z
	??$_Voidify_iter@PEAV?$shared_ptr@$$CBVAbstractGroupDescription@VideoStreamConfig@video_stream_opencv@@@boost@@@std@@YAPEAXPEAV?$shared_ptr@$$CBVAbstractGroupDescription@VideoStreamConfig@video_stream_opencv@@@boost@@@Z
	??$_Voidify_iter@PEAV?$shared_ptr@$$CBVAbstractParamDescription@VideoStreamConfig@video_stream_opencv@@@boost@@@std@@YAPEAXPEAV?$shared_ptr@$$CBVAbstractParamDescription@VideoStreamConfig@video_stream_opencv@@@boost@@@Z
	??$_Voidify_iter@PEAVMat@cv@@@std@@YAPEAXPEAVMat@cv@@@Z
	??$_Zero_range@PEAPEAN@std@@YAPEAPEANQEAPEAN0@Z
	??$_Zero_range@PEAPEAVMat@cv@@@std@@YAPEAPEAVMat@cv@@QEAPEAV12@0@Z
	??$addressof@$$CBU?$ConfigDescription_@V?$allocator@X@std@@@dynamic_reconfigure@@@boost@@YAPEBU?$ConfigDescription_@V?$allocator@X@std@@@dynamic_reconfigure@@AEBU12@@Z
	??$addressof@$$CBU?$Config_@V?$allocator@X@std@@@dynamic_reconfigure@@@boost@@YAPEBU?$Config_@V?$allocator@X@std@@@dynamic_reconfigure@@AEBU12@@Z
	??$addressof@$$CBV?$_String_val@U?$_Simple_types@D@std@@@std@@@std@@YAPEBV?$_String_val@U?$_Simple_types@D@std@@@0@AEBV10@@Z
	??$addressof@$$CBV?$_Tree_val@U?$_Tree_simple_types@U?$pair@$$CBV?$basic_string@DU?$char_traits@D@std@@V?$allocator@D@2@@std@@PEAVAbstractMetaObjectBase@impl@class_loader@@@std@@@std@@@std@@@std@@YAPEBV?$_Tree_val@U?$_Tree_simple_types@U?$pair@$$CBV?$basic_string@DU?$char_traits@D@std@@V?$allocator@D@2@@std@@PEAVAbstractMetaObjectBase@impl@class_loader@@@std@@@std@@@0@AEBV10@@Z
	??$addressof@$$CBV?$_Vector_val@U?$_Simple_types@U?$BoolParameter_@V?$allocator@X@std@@@dynamic_reconfigure@@@std@@@std@@@std@@YAPEBV?$_Vector_val@U?$_Simple_types@U?$BoolParameter_@V?$allocator@X@std@@@dynamic_reconfigure@@@std@@@0@AEBV10@@Z
	??$addressof@$$CBV?$_Vector_val@U?$_Simple_types@U?$DoubleParameter_@V?$allocator@X@std@@@dynamic_reconfigure@@@std@@@std@@@std@@YAPEBV?$_Vector_val@U?$_Simple_types@U?$DoubleParameter_@V?$allocator@X@std@@@dynamic_reconfigure@@@std@@@0@AEBV10@@Z
	??$addressof@$$CBV?$_Vector_val@U?$_Simple_types@U?$GroupState_@V?$allocator@X@std@@@dynamic_reconfigure@@@std@@@std@@@std@@YAPEBV?$_Vector_val@U?$_Simple_types@U?$GroupState_@V?$allocator@X@std@@@dynamic_reconfigure@@@std@@@0@AEBV10@@Z
	??$addressof@$$CBV?$_Vector_val@U?$_Simple_types@U?$Group_@V?$allocator@X@std@@@dynamic_reconfigure@@@std@@@std@@@std@@YAPEBV?$_Vector_val@U?$_Simple_types@U?$Group_@V?$allocator@X@std@@@dynamic_reconfigure@@@std@@@0@AEBV10@@Z
	??$addressof@$$CBV?$_Vector_val@U?$_Simple_types@U?$IntParameter_@V?$allocator@X@std@@@dynamic_reconfigure@@@std@@@std@@@std@@YAPEBV?$_Vector_val@U?$_Simple_types@U?$IntParameter_@V?$allocator@X@std@@@dynamic_reconfigure@@@std@@@0@AEBV10@@Z
	??$addressof@$$CBV?$_Vector_val@U?$_Simple_types@U?$ParamDescription_@V?$allocator@X@std@@@dynamic_reconfigure@@@std@@@std@@@std@@YAPEBV?$_Vector_val@U?$_Simple_types@U?$ParamDescription_@V?$allocator@X@std@@@dynamic_reconfigure@@@std@@@0@AEBV10@@Z
	??$addressof@$$CBV?$_Vector_val@U?$_Simple_types@U?$StrParameter_@V?$allocator@X@std@@@dynamic_reconfigure@@@std@@@std@@@std@@YAPEBV?$_Vector_val@U?$_Simple_types@U?$StrParameter_@V?$allocator@X@std@@@dynamic_reconfigure@@@std@@@0@AEBV10@@Z
	??$addressof@$$CBV?$_Vector_val@U?$_Simple_types@V?$shared_ptr@$$CBVAbstractGroupDescription@VideoStreamConfig@video_stream_opencv@@@boost@@@std@@@std@@@std@@YAPEBV?$_Vector_val@U?$_Simple_types@V?$shared_ptr@$$CBVAbstractGroupDescription@VideoStreamConfig@video_stream_opencv@@@boost@@@std@@@0@AEBV10@@Z
	??$addressof@$$CBV?$_Vector_val@U?$_Simple_types@V?$shared_ptr@$$CBVAbstractParamDescription@VideoStreamConfig@video_stream_opencv@@@boost@@@std@@@std@@@std@@YAPEBV?$_Vector_val@U?$_Simple_types@V?$shared_ptr@$$CBVAbstractParamDescription@VideoStreamConfig@video_stream_opencv@@@boost@@@std@@@0@AEBV10@@Z
	??$addressof@$$CBV?$basic_string@DU?$char_traits@D@std@@V?$allocator@D@2@@std@@@std@@YAPEBV?$basic_string@DU?$char_traits@D@std@@V?$allocator@D@2@@0@AEBV10@@Z
	??$addressof@$$CBV?$vector@U?$ParamDescription_@V?$allocator@X@std@@@dynamic_reconfigure@@V?$allocator@U?$ParamDescription_@V?$allocator@X@std@@@dynamic_reconfigure@@@std@@@std@@@std@@YAPEBV?$vector@U?$ParamDescription_@V?$allocator@X@std@@@dynamic_reconfigure@@V?$allocator@U?$ParamDescription_@V?$allocator@X@std@@@dynamic_reconfigure@@@std@@@0@AEBV10@@Z
	??$addressof@$$CBV?$vector@V?$shared_ptr@$$CBVAbstractParamDescription@VideoStreamConfig@video_stream_opencv@@@boost@@V?$allocator@V?$shared_ptr@$$CBVAbstractParamDescription@VideoStreamConfig@video_stream_opencv@@@boost@@@std@@@std@@@std@@YAPEBV?$vector@V?$shared_ptr@$$CBVAbstractParamDescription@VideoStreamConfig@video_stream_opencv@@@boost@@V?$allocator@V?$shared_ptr@$$CBVAbstractParamDescription@VideoStreamConfig@video_stream_opencv@@@boost@@@std@@@0@AEBV10@@Z
	??$addressof@D@std@@YAPEADAEAD@Z
	??$addressof@H@boost@@YAPEAHAEAH@Z
	??$addressof@N@boost@@YAPEANAEAN@Z
	??$addressof@PEAD@std@@YAPEAPEADAEAPEAD@Z
	??$addressof@PEAN@std@@YAPEAPEANAEAPEAN@Z
	??$addressof@PEAU?$_Tree_node@U?$pair@$$CBV?$basic_string@DU?$char_traits@D@std@@V?$allocator@D@2@@std@@PEAVAbstractMetaObjectBase@impl@class_loader@@@std@@PEAX@std@@@std@@YAPEAPEAU?$_Tree_node@U?$pair@$$CBV?$basic_string@DU?$char_traits@D@std@@V?$allocator@D@2@@std@@PEAVAbstractMetaObjectBase@impl@class_loader@@@std@@PEAX@0@AEAPEAU10@@Z
	??$addressof@PEAVMat@cv@@@std@@YAPEAPEAVMat@cv@@AEAPEAV12@@Z
	??$addressof@PEAVVideoStreamConfig@video_stream_opencv@@@boost@@YAPEAPEAVVideoStreamConfig@video_stream_opencv@@AEAPEAV12@@Z
	??$addressof@U?$checked_array_deleter@E@boost@@@boost@@YAPEAU?$checked_array_deleter@E@0@AEAU10@@Z
	??$addressof@U?$pair@$$CBV?$basic_string@DU?$char_traits@D@std@@V?$allocator@D@2@@std@@PEAVAbstractMetaObjectBase@impl@class_loader@@@std@@@std@@YAPEAU?$pair@$$CBV?$basic_string@DU?$char_traits@D@std@@V?$allocator@D@2@@std@@PEAVAbstractMetaObjectBase@impl@class_loader@@@0@AEAU10@@Z
	??$addressof@U_Container_proxy@std@@@std@@YAPEAU_Container_proxy@0@AEAU10@@Z
	??$addressof@V?$_Deque_val@U?$_Deque_simple_types@N@std@@@std@@@std@@YAPEAV?$_Deque_val@U?$_Deque_simple_types@N@std@@@0@AEAV10@@Z
	??$addressof@V?$_Deque_val@U?$_Deque_simple_types@VMat@cv@@@std@@@std@@@std@@YAPEAV?$_Deque_val@U?$_Deque_simple_types@VMat@cv@@@std@@@0@AEAV10@@Z
	??$addressof@V?$_String_val@U?$_Simple_types@D@std@@@std@@@std@@YAPEAV?$_String_val@U?$_Simple_types@D@std@@@0@AEAV10@@Z
	??$addressof@V?$_Tree_val@U?$_Tree_simple_types@U?$pair@$$CBV?$basic_string@DU?$char_traits@D@std@@V?$allocator@D@2@@std@@PEAVAbstractMetaObjectBase@impl@class_loader@@@std@@@std@@@std@@@std@@YAPEAV?$_Tree_val@U?$_Tree_simple_types@U?$pair@$$CBV?$basic_string@DU?$char_traits@D@std@@V?$allocator@D@2@@std@@PEAVAbstractMetaObjectBase@impl@class_loader@@@std@@@std@@@0@AEAV10@@Z
	??$addressof@V?$_Vector_val@U?$_Simple_types@U?$BoolParameter_@V?$allocator@X@std@@@dynamic_reconfigure@@@std@@@std@@@std@@YAPEAV?$_Vector_val@U?$_Simple_types@U?$BoolParameter_@V?$allocator@X@std@@@dynamic_reconfigure@@@std@@@0@AEAV10@@Z
	??$addressof@V?$_Vector_val@U?$_Simple_types@U?$DoubleParameter_@V?$allocator@X@std@@@dynamic_reconfigure@@@std@@@std@@@std@@YAPEAV?$_Vector_val@U?$_Simple_types@U?$DoubleParameter_@V?$allocator@X@std@@@dynamic_reconfigure@@@std@@@0@AEAV10@@Z
	??$addressof@V?$_Vector_val@U?$_Simple_types@U?$GroupState_@V?$allocator@X@std@@@dynamic_reconfigure@@@std@@@std@@@std@@YAPEAV?$_Vector_val@U?$_Simple_types@U?$GroupState_@V?$allocator@X@std@@@dynamic_reconfigure@@@std@@@0@AEAV10@@Z
	??$addressof@V?$_Vector_val@U?$_Simple_types@U?$IntParameter_@V?$allocator@X@std@@@dynamic_reconfigure@@@std@@@std@@@std@@YAPEAV?$_Vector_val@U?$_Simple_types@U?$IntParameter_@V?$allocator@X@std@@@dynamic_reconfigure@@@std@@@0@AEAV10@@Z
	??$addressof@V?$_Vector_val@U?$_Simple_types@U?$StrParameter_@V?$allocator@X@std@@@dynamic_reconfigure@@@std@@@std@@@std@@YAPEAV?$_Vector_val@U?$_Simple_types@U?$StrParameter_@V?$allocator@X@std@@@dynamic_reconfigure@@@std@@@0@AEAV10@@Z
	??$addressof@V?$_Vector_val@U?$_Simple_types@V?$shared_ptr@$$CBVAbstractGroupDescription@VideoStreamConfig@video_stream_opencv@@@boost@@@std@@@std@@@std@@YAPEAV?$_Vector_val@U?$_Simple_types@V?$shared_ptr@$$CBVAbstractGroupDescription@VideoStreamConfig@video_stream_opencv@@@boost@@@std@@@0@AEAV10@@Z
	??$addressof@V?$_Vector_val@U?$_Simple_types@V?$shared_ptr@$$CBVAbstractParamDescription@VideoStreamConfig@video_stream_opencv@@@boost@@@std@@@std@@@std@@YAPEAV?$_Vector_val@U?$_Simple_types@V?$shared_ptr@$$CBVAbstractParamDescription@VideoStreamConfig@video_stream_opencv@@@boost@@@std@@@0@AEAV10@@Z
	??$addressof@V?$basic_string@DU?$char_traits@D@std@@V?$allocator@D@2@@std@@@boost@@YAPEAV?$basic_string@DU?$char_traits@D@std@@V?$allocator@D@2@@std@@AEAV12@@Z
	??$addressof@V?$basic_string@DU?$char_traits@D@std@@V?$allocator@D@2@@std@@@std@@YAPEAV?$basic_string@DU?$char_traits@D@std@@V?$allocator@D@2@@0@AEAV10@@Z
	??$addressof@V?$basic_stringbuf@DU?$char_traits@D@std@@V?$allocator@D@2@@std@@@std@@YAPEAV?$basic_stringbuf@DU?$char_traits@D@std@@V?$allocator@D@2@@0@AEAV10@@Z
	??$addressof@V?$bind_t@VSerializedMessage@ros@@P6A?AV12@AEBU?$ConfigDescription_@V?$allocator@X@std@@@dynamic_reconfigure@@@ZV?$list1@V?$reference_wrapper@$$CBU?$ConfigDescription_@V?$allocator@X@std@@@dynamic_reconfigure@@@boost@@@_bi@boost@@@_bi@boost@@@boost@@YAPEAV?$bind_t@VSerializedMessage@ros@@P6A?AV12@AEBU?$ConfigDescription_@V?$allocator@X@std@@@dynamic_reconfigure@@@ZV?$list1@V?$reference_wrapper@$$CBU?$ConfigDescription_@V?$allocator@X@std@@@dynamic_reconfigure@@@boost@@@_bi@boost@@@_bi@0@AEAV120@@Z
	??$addressof@V?$bind_t@VSerializedMessage@ros@@P6A?AV12@AEBU?$Config_@V?$allocator@X@std@@@dynamic_reconfigure@@@ZV?$list1@V?$reference_wrapper@$$CBU?$Config_@V?$allocator@X@std@@@dynamic_reconfigure@@@boost@@@_bi@boost@@@_bi@boost@@@boost@@YAPEAV?$bind_t@VSerializedMessage@ros@@P6A?AV12@AEBU?$Config_@V?$allocator@X@std@@@dynamic_reconfigure@@@ZV?$list1@V?$reference_wrapper@$$CBU?$Config_@V?$allocator@X@std@@@dynamic_reconfigure@@@boost@@@_bi@boost@@@_bi@0@AEAV120@@Z
	??$addressof@V?$bind_t@XV?$mf1@XVVideoStreamNodelet@video_stream_opencv@@AEBUTimerEvent@ros@@@_mfi@boost@@V?$list2@V?$value@PEAVVideoStreamNodelet@video_stream_opencv@@@_bi@boost@@U?$arg@$00@3@@_bi@3@@_bi@boost@@@boost@@YAPEAV?$bind_t@XV?$mf1@XVVideoStreamNodelet@video_stream_opencv@@AEBUTimerEvent@ros@@@_mfi@boost@@V?$list2@V?$value@PEAVVideoStreamNodelet@video_stream_opencv@@@_bi@boost@@U?$arg@$00@3@@_bi@3@@_bi@0@AEAV120@@Z
	??$addressof@V?$bind_t@XV?$mf1@XVVideoStreamNodelet@video_stream_opencv@@AEBVSingleSubscriberPublisher@image_transport@@@_mfi@boost@@V?$list2@V?$value@PEAVVideoStreamNodelet@video_stream_opencv@@@_bi@boost@@U?$arg@$00@3@@_bi@3@@_bi@boost@@@boost@@YAPEAV?$bind_t@XV?$mf1@XVVideoStreamNodelet@video_stream_opencv@@AEBVSingleSubscriberPublisher@image_transport@@@_mfi@boost@@V?$list2@V?$value@PEAVVideoStreamNodelet@video_stream_opencv@@@_bi@boost@@U?$arg@$00@3@@_bi@3@@_bi@0@AEAV120@@Z
	??$addressof@V?$bind_t@XV?$mf1@XVVideoStreamNodelet@video_stream_opencv@@AEBVSingleSubscriberPublisher@ros@@@_mfi@boost@@V?$list2@V?$value@PEAVVideoStreamNodelet@video_stream_opencv@@@_bi@boost@@U?$arg@$00@3@@_bi@3@@_bi@boost@@@boost@@YAPEAV?$bind_t@XV?$mf1@XVVideoStreamNodelet@video_stream_opencv@@AEBVSingleSubscriberPublisher@ros@@@_mfi@boost@@V?$list2@V?$value@PEAVVideoStreamNodelet@video_stream_opencv@@@_bi@boost@@U?$arg@$00@3@@_bi@3@@_bi@0@AEAV120@@Z
	??$addressof@V?$bind_t@XV?$mf2@XVVideoStreamNodelet@video_stream_opencv@@AEAVVideoStreamConfig@2@I@_mfi@boost@@V?$list3@V?$value@PEAVVideoStreamNodelet@video_stream_opencv@@@_bi@boost@@U?$arg@$00@3@U?$arg@$01@3@@_bi@3@@_bi@boost@@@boost@@YAPEAV?$bind_t@XV?$mf2@XVVideoStreamNodelet@video_stream_opencv@@AEAVVideoStreamConfig@2@I@_mfi@boost@@V?$list3@V?$value@PEAVVideoStreamNodelet@video_stream_opencv@@@_bi@boost@@U?$arg@$00@3@U?$arg@$01@3@@_bi@3@@_bi@0@AEAV120@@Z
	??$addressof@V?$bind_t@_NV?$mf2@_NV?$Server@VVideoStreamConfig@video_stream_opencv@@@dynamic_reconfigure@@AEAU?$ReconfigureRequest_@V?$allocator@X@std@@@2@AEAU?$ReconfigureResponse_@V?$allocator@X@std@@@2@@_mfi@boost@@V?$list3@V?$value@PEAV?$Server@VVideoStreamConfig@video_stream_opencv@@@dynamic_reconfigure@@@_bi@boost@@U?$arg@$00@3@U?$arg@$01@3@@_bi@3@@_bi@boost@@@boost@@YAPEAV?$bind_t@_NV?$mf2@_NV?$Server@VVideoStreamConfig@video_stream_opencv@@@dynamic_reconfigure@@AEAU?$ReconfigureRequest_@V?$allocator@X@std@@@2@AEAU?$ReconfigureResponse_@V?$allocator@X@std@@@2@@_mfi@boost@@V?$list3@V?$value@PEAV?$Server@VVideoStreamConfig@video_stream_opencv@@@dynamic_reconfigure@@@_bi@boost@@U?$arg@$00@3@U?$arg@$01@3@@_bi@3@@_bi@0@AEAV120@@Z
	??$addressof@V?$sp_ms_deleter@U?$ReconfigureRequest_@V?$allocator@X@std@@@dynamic_reconfigure@@@detail@boost@@@boost@@YAPEAV?$sp_ms_deleter@U?$ReconfigureRequest_@V?$allocator@X@std@@@dynamic_reconfigure@@@detail@0@AEAV120@@Z
	??$addressof@V?$sp_ms_deleter@U?$ReconfigureResponse_@V?$allocator@X@std@@@dynamic_reconfigure@@@detail@boost@@@boost@@YAPEAV?$sp_ms_deleter@U?$ReconfigureResponse_@V?$allocator@X@std@@@dynamic_reconfigure@@@detail@0@AEAV120@@Z
	??$addressof@V?$sp_ms_deleter@V?$Server@VVideoStreamConfig@video_stream_opencv@@@dynamic_reconfigure@@@detail@boost@@@boost@@YAPEAV?$sp_ms_deleter@V?$Server@VVideoStreamConfig@video_stream_opencv@@@dynamic_reconfigure@@@detail@0@AEAV120@@Z
	??$addressof@V?$sp_ms_deleter@V?$ServiceCallbackHelperT@U?$ServiceSpec@U?$ReconfigureRequest_@V?$allocator@X@std@@@dynamic_reconfigure@@U?$ReconfigureResponse_@V?$allocator@X@std@@@2@@ros@@@ros@@@detail@boost@@@boost@@YAPEAV?$sp_ms_deleter@V?$ServiceCallbackHelperT@U?$ServiceSpec@U?$ReconfigureRequest_@V?$allocator@X@std@@@dynamic_reconfigure@@U?$ReconfigureResponse_@V?$allocator@X@std@@@2@@ros@@@ros@@@detail@0@AEAV120@@Z
	??$addressof@V?$sp_ms_deleter@VCvImage@cv_bridge@@@detail@boost@@@boost@@YAPEAV?$sp_ms_deleter@VCvImage@cv_bridge@@@detail@0@AEAV120@@Z
	??$addressof@V?$vector@NV?$allocator@N@std@@@std@@@std@@YAPEAV?$vector@NV?$allocator@N@std@@@0@AEAV10@@Z
	??$addressof@VVideoStreamConfig@video_stream_opencv@@@boost@@YAPEAVVideoStreamConfig@video_stream_opencv@@AEAV12@@Z
	??$addressof@Vany@boost@@@boost@@YAPEAVany@0@AEAV10@@Z
	??$addressof@_N@boost@@YAPEA_NAEA_N@Z
	??$advance@PEAU?$ParamDescription_@V?$allocator@X@std@@@dynamic_reconfigure@@_J@std@@YAXAEAPEAU?$ParamDescription_@V?$allocator@X@std@@@dynamic_reconfigure@@_J@Z
	??$advance@PEAV?$shared_ptr@$$CBVAbstractParamDescription@VideoStreamConfig@video_stream_opencv@@@boost@@_J@std@@YAXAEAPEAV?$shared_ptr@$$CBVAbstractParamDescription@VideoStreamConfig@video_stream_opencv@@@boost@@_J@Z
	??$advertise@U?$ConfigDescription_@V?$allocator@X@std@@@dynamic_reconfigure@@@NodeHandle@ros@@QEAA?AVPublisher@1@AEBV?$basic_string@DU?$char_traits@D@std@@V?$allocator@D@2@@std@@I_N@Z
	??$advertise@U?$Config_@V?$allocator@X@std@@@dynamic_reconfigure@@@NodeHandle@ros@@QEAA?AVPublisher@1@AEBV?$basic_string@DU?$char_traits@D@std@@V?$allocator@D@2@@std@@I_N@Z
	??$advertiseService@V?$Server@VVideoStreamConfig@video_stream_opencv@@@dynamic_reconfigure@@U?$ReconfigureRequest_@V?$allocator@X@std@@@2@U?$ReconfigureResponse_@V?$allocator@X@std@@@2@@NodeHandle@ros@@QEAA?AVServiceServer@1@AEBV?$basic_string@DU?$char_traits@D@std@@V?$allocator@D@2@@std@@P8?$Server@VVideoStreamConfig@video_stream_opencv@@@dynamic_reconfigure@@EAA_NAEAU?$ReconfigureRequest_@V?$allocator@X@std@@@6@AEAU?$ReconfigureResponse_@V?$allocator@X@std@@@6@@ZPEAV56@@Z
	??$allInOne@UIStream@serialization@ros@@AEAU?$BoolParameter_@V?$allocator@X@std@@@dynamic_reconfigure@@@?$Serializer@U?$BoolParameter_@V?$allocator@X@std@@@dynamic_reconfigure@@@serialization@ros@@SAXAEAUIStream@12@AEAU?$BoolParameter_@V?$allocator@X@std@@@dynamic_reconfigure@@@Z
	??$allInOne@UIStream@serialization@ros@@AEAU?$Config_@V?$allocator@X@std@@@dynamic_reconfigure@@@?$Serializer@U?$Config_@V?$allocator@X@std@@@dynamic_reconfigure@@@serialization@ros@@SAXAEAUIStream@12@AEAU?$Config_@V?$allocator@X@std@@@dynamic_reconfigure@@@Z
	??$allInOne@UIStream@serialization@ros@@AEAU?$DoubleParameter_@V?$allocator@X@std@@@dynamic_reconfigure@@@?$Serializer@U?$DoubleParameter_@V?$allocator@X@std@@@dynamic_reconfigure@@@serialization@ros@@SAXAEAUIStream@12@AEAU?$DoubleParameter_@V?$allocator@X@std@@@dynamic_reconfigure@@@Z
	??$allInOne@UIStream@serialization@ros@@AEAU?$GroupState_@V?$allocator@X@std@@@dynamic_reconfigure@@@?$Serializer@U?$GroupState_@V?$allocator@X@std@@@dynamic_reconfigure@@@serialization@ros@@SAXAEAUIStream@12@AEAU?$GroupState_@V?$allocator@X@std@@@dynamic_reconfigure@@@Z
	??$allInOne@UIStream@serialization@ros@@AEAU?$IntParameter_@V?$allocator@X@std@@@dynamic_reconfigure@@@?$Serializer@U?$IntParameter_@V?$allocator@X@std@@@dynamic_reconfigure@@@serialization@ros@@SAXAEAUIStream@12@AEAU?$IntParameter_@V?$allocator@X@std@@@dynamic_reconfigure@@@Z
	??$allInOne@UIStream@serialization@ros@@AEAU?$ReconfigureRequest_@V?$allocator@X@std@@@dynamic_reconfigure@@@?$Serializer@U?$ReconfigureRequest_@V?$allocator@X@std@@@dynamic_reconfigure@@@serialization@ros@@SAXAEAUIStream@12@AEAU?$ReconfigureRequest_@V?$allocator@X@std@@@dynamic_reconfigure@@@Z
	??$allInOne@UIStream@serialization@ros@@AEAU?$StrParameter_@V?$allocator@X@std@@@dynamic_reconfigure@@@?$Serializer@U?$StrParameter_@V?$allocator@X@std@@@dynamic_reconfigure@@@serialization@ros@@SAXAEAUIStream@12@AEAU?$StrParameter_@V?$allocator@X@std@@@dynamic_reconfigure@@@Z
	??$allInOne@ULStream@serialization@ros@@AEBU?$BoolParameter_@V?$allocator@X@std@@@dynamic_reconfigure@@@?$Serializer@U?$BoolParameter_@V?$allocator@X@std@@@dynamic_reconfigure@@@serialization@ros@@SAXAEAULStream@12@AEBU?$BoolParameter_@V?$allocator@X@std@@@dynamic_reconfigure@@@Z
	??$allInOne@ULStream@serialization@ros@@AEBU?$ConfigDescription_@V?$allocator@X@std@@@dynamic_reconfigure@@@?$Serializer@U?$ConfigDescription_@V?$allocator@X@std@@@dynamic_reconfigure@@@serialization@ros@@SAXAEAULStream@12@AEBU?$ConfigDescription_@V?$allocator@X@std@@@dynamic_reconfigure@@@Z
	??$allInOne@ULStream@serialization@ros@@AEBU?$Config_@V?$allocator@X@std@@@dynamic_reconfigure@@@?$Serializer@U?$Config_@V?$allocator@X@std@@@dynamic_reconfigure@@@serialization@ros@@SAXAEAULStream@12@AEBU?$Config_@V?$allocator@X@std@@@dynamic_reconfigure@@@Z
	??$allInOne@ULStream@serialization@ros@@AEBU?$DoubleParameter_@V?$allocator@X@std@@@dynamic_reconfigure@@@?$Serializer@U?$DoubleParameter_@V?$allocator@X@std@@@dynamic_reconfigure@@@serialization@ros@@SAXAEAULStream@12@AEBU?$DoubleParameter_@V?$allocator@X@std@@@dynamic_reconfigure@@@Z
	??$allInOne@ULStream@serialization@ros@@AEBU?$GroupState_@V?$allocator@X@std@@@dynamic_reconfigure@@@?$Serializer@U?$GroupState_@V?$allocator@X@std@@@dynamic_reconfigure@@@serialization@ros@@SAXAEAULStream@12@AEBU?$GroupState_@V?$allocator@X@std@@@dynamic_reconfigure@@@Z
	??$allInOne@ULStream@serialization@ros@@AEBU?$Group_@V?$allocator@X@std@@@dynamic_reconfigure@@@?$Serializer@U?$Group_@V?$allocator@X@std@@@dynamic_reconfigure@@@serialization@ros@@SAXAEAULStream@12@AEBU?$Group_@V?$allocator@X@std@@@dynamic_reconfigure@@@Z
	??$allInOne@ULStream@serialization@ros@@AEBU?$IntParameter_@V?$allocator@X@std@@@dynamic_reconfigure@@@?$Serializer@U?$IntParameter_@V?$allocator@X@std@@@dynamic_reconfigure@@@serialization@ros@@SAXAEAULStream@12@AEBU?$IntParameter_@V?$allocator@X@std@@@dynamic_reconfigure@@@Z
	??$allInOne@ULStream@serialization@ros@@AEBU?$ParamDescription_@V?$allocator@X@std@@@dynamic_reconfigure@@@?$Serializer@U?$ParamDescription_@V?$allocator@X@std@@@dynamic_reconfigure@@@serialization@ros@@SAXAEAULStream@12@AEBU?$ParamDescription_@V?$allocator@X@std@@@dynamic_reconfigure@@@Z
	??$allInOne@ULStream@serialization@ros@@AEBU?$ReconfigureResponse_@V?$allocator@X@std@@@dynamic_reconfigure@@@?$Serializer@U?$ReconfigureResponse_@V?$allocator@X@std@@@dynamic_reconfigure@@@serialization@ros@@SAXAEAULStream@12@AEBU?$ReconfigureResponse_@V?$allocator@X@std@@@dynamic_reconfigure@@@Z
	??$allInOne@ULStream@serialization@ros@@AEBU?$StrParameter_@V?$allocator@X@std@@@dynamic_reconfigure@@@?$Serializer@U?$StrParameter_@V?$allocator@X@std@@@dynamic_reconfigure@@@serialization@ros@@SAXAEAULStream@12@AEBU?$StrParameter_@V?$allocator@X@std@@@dynamic_reconfigure@@@Z
	??$allInOne@UOStream@serialization@ros@@AEBU?$BoolParameter_@V?$allocator@X@std@@@dynamic_reconfigure@@@?$Serializer@U?$BoolParameter_@V?$allocator@X@std@@@dynamic_reconfigure@@@serialization@ros@@SAXAEAUOStream@12@AEBU?$BoolParameter_@V?$allocator@X@std@@@dynamic_reconfigure@@@Z
	??$allInOne@UOStream@serialization@ros@@AEBU?$ConfigDescription_@V?$allocator@X@std@@@dynamic_reconfigure@@@?$Serializer@U?$ConfigDescription_@V?$allocator@X@std@@@dynamic_reconfigure@@@serialization@ros@@SAXAEAUOStream@12@AEBU?$ConfigDescription_@V?$allocator@X@std@@@dynamic_reconfigure@@@Z
	??$allInOne@UOStream@serialization@ros@@AEBU?$Config_@V?$allocator@X@std@@@dynamic_reconfigure@@@?$Serializer@U?$Config_@V?$allocator@X@std@@@dynamic_reconfigure@@@serialization@ros@@SAXAEAUOStream@12@AEBU?$Config_@V?$allocator@X@std@@@dynamic_reconfigure@@@Z
	??$allInOne@UOStream@serialization@ros@@AEBU?$DoubleParameter_@V?$allocator@X@std@@@dynamic_reconfigure@@@?$Serializer@U?$DoubleParameter_@V?$allocator@X@std@@@dynamic_reconfigure@@@serialization@ros@@SAXAEAUOStream@12@AEBU?$DoubleParameter_@V?$allocator@X@std@@@dynamic_reconfigure@@@Z
	??$allInOne@UOStream@serialization@ros@@AEBU?$GroupState_@V?$allocator@X@std@@@dynamic_reconfigure@@@?$Serializer@U?$GroupState_@V?$allocator@X@std@@@dynamic_reconfigure@@@serialization@ros@@SAXAEAUOStream@12@AEBU?$GroupState_@V?$allocator@X@std@@@dynamic_reconfigure@@@Z
	??$allInOne@UOStream@serialization@ros@@AEBU?$Group_@V?$allocator@X@std@@@dynamic_reconfigure@@@?$Serializer@U?$Group_@V?$allocator@X@std@@@dynamic_reconfigure@@@serialization@ros@@SAXAEAUOStream@12@AEBU?$Group_@V?$allocator@X@std@@@dynamic_reconfigure@@@Z
	??$allInOne@UOStream@serialization@ros@@AEBU?$IntParameter_@V?$allocator@X@std@@@dynamic_reconfigure@@@?$Serializer@U?$IntParameter_@V?$allocator@X@std@@@dynamic_reconfigure@@@serialization@ros@@SAXAEAUOStream@12@AEBU?$IntParameter_@V?$allocator@X@std@@@dynamic_reconfigure@@@Z
	??$allInOne@UOStream@serialization@ros@@AEBU?$ParamDescription_@V?$allocator@X@std@@@dynamic_reconfigure@@@?$Serializer@U?$ParamDescription_@V?$allocator@X@std@@@dynamic_reconfigure@@@serialization@ros@@SAXAEAUOStream@12@AEBU?$ParamDescription_@V?$allocator@X@std@@@dynamic_reconfigure@@@Z
	??$allInOne@UOStream@serialization@ros@@AEBU?$ReconfigureResponse_@V?$allocator@X@std@@@dynamic_reconfigure@@@?$Serializer@U?$ReconfigureResponse_@V?$allocator@X@std@@@dynamic_reconfigure@@@serialization@ros@@SAXAEAUOStream@12@AEBU?$ReconfigureResponse_@V?$allocator@X@std@@@dynamic_reconfigure@@@Z
	??$allInOne@UOStream@serialization@ros@@AEBU?$StrParameter_@V?$allocator@X@std@@@dynamic_reconfigure@@@?$Serializer@U?$StrParameter_@V?$allocator@X@std@@@dynamic_reconfigure@@@serialization@ros@@SAXAEAUOStream@12@AEBU?$StrParameter_@V?$allocator@X@std@@@dynamic_reconfigure@@@Z
	??$any_cast@$$CBVVideoStreamConfig@video_stream_opencv@@@boost@@YAPEBVVideoStreamConfig@video_stream_opencv@@PEAVany@0@@Z
	??$any_cast@AEBVVideoStreamConfig@video_stream_opencv@@@boost@@YAAEBVVideoStreamConfig@video_stream_opencv@@AEAVany@0@@Z
	??$any_cast@H@boost@@YAHAEAVany@0@@Z
	??$any_cast@H@boost@@YAPEAHPEAVany@0@@Z
	??$any_cast@N@boost@@YANAEAVany@0@@Z
	??$any_cast@N@boost@@YAPEANPEAVany@0@@Z
	??$any_cast@PEAVVideoStreamConfig@video_stream_opencv@@@boost@@YAPEAPEAVVideoStreamConfig@video_stream_opencv@@PEAVany@0@@Z
	??$any_cast@PEAVVideoStreamConfig@video_stream_opencv@@@boost@@YAPEAVVideoStreamConfig@video_stream_opencv@@AEAVany@0@@Z
	??$any_cast@V?$basic_string@DU?$char_traits@D@std@@V?$allocator@D@2@@std@@@boost@@YA?AV?$basic_string@DU?$char_traits@D@std@@V?$allocator@D@2@@std@@AEAVany@0@@Z
	??$any_cast@V?$basic_string@DU?$char_traits@D@std@@V?$allocator@D@2@@std@@@boost@@YAPEAV?$basic_string@DU?$char_traits@D@std@@V?$allocator@D@2@@std@@PEAVany@0@@Z
	??$any_cast@VVideoStreamConfig@video_stream_opencv@@@boost@@YA?AVVideoStreamConfig@video_stream_opencv@@AEBVany@0@@Z
	??$any_cast@_N@boost@@YAPEA_NPEAVany@0@@Z
	??$any_cast@_N@boost@@YA_NAEAVany@0@@Z
	??$appendGroup@VDEFAULT@VideoStreamConfig@video_stream_opencv@@@ConfigTools@dynamic_reconfigure@@SAXAEAU?$Config_@V?$allocator@X@std@@@1@AEBV?$basic_string@DU?$char_traits@D@std@@V?$allocator@D@2@@std@@HHAEBVDEFAULT@VideoStreamConfig@video_stream_opencv@@@Z
	??$appendParameter@H@ConfigTools@dynamic_reconfigure@@SAXAEAU?$Config_@V?$allocator@X@std@@@1@AEBV?$basic_string@DU?$char_traits@D@std@@V?$allocator@D@2@@std@@AEBH@Z
	??$appendParameter@N@ConfigTools@dynamic_reconfigure@@SAXAEAU?$Config_@V?$allocator@X@std@@@1@AEBV?$basic_string@DU?$char_traits@D@std@@V?$allocator@D@2@@std@@AEBN@Z
	??$appendParameter@V?$basic_string@DU?$char_traits@D@std@@V?$allocator@D@2@@std@@@ConfigTools@dynamic_reconfigure@@SAXAEAU?$Config_@V?$allocator@X@std@@@1@AEBV?$basic_string@DU?$char_traits@D@std@@V?$allocator@D@2@@std@@1@Z
	??$appendParameter@_N@ConfigTools@dynamic_reconfigure@@SAXAEAU?$Config_@V?$allocator@X@std@@@1@AEBV?$basic_string@DU?$char_traits@D@std@@V?$allocator@D@2@@std@@AEB_N@Z
	??$assign@PEAU?$ParamDescription_@V?$allocator@X@std@@@dynamic_reconfigure@@$0A@@?$vector@U?$ParamDescription_@V?$allocator@X@std@@@dynamic_reconfigure@@V?$allocator@U?$ParamDescription_@V?$allocator@X@std@@@dynamic_reconfigure@@@std@@@std@@QEAAXPEAU?$ParamDescription_@V?$allocator@X@std@@@dynamic_reconfigure@@0@Z
	??$assign@PEAV?$shared_ptr@$$CBVAbstractParamDescription@VideoStreamConfig@video_stream_opencv@@@boost@@$0A@@?$vector@V?$shared_ptr@$$CBVAbstractParamDescription@VideoStreamConfig@video_stream_opencv@@@boost@@V?$allocator@V?$shared_ptr@$$CBVAbstractParamDescription@VideoStreamConfig@video_stream_opencv@@@boost@@@std@@@std@@QEAAXPEAV?$shared_ptr@$$CBVAbstractParamDescription@VideoStreamConfig@video_stream_opencv@@@boost@@0@Z
	??$assign_functor@V?$bind_t@VSerializedMessage@ros@@P6A?AV12@AEBU?$ConfigDescription_@V?$allocator@X@std@@@dynamic_reconfigure@@@ZV?$list1@V?$reference_wrapper@$$CBU?$ConfigDescription_@V?$allocator@X@std@@@dynamic_reconfigure@@@boost@@@_bi@boost@@@_bi@boost@@@?$basic_vtable0@VSerializedMessage@ros@@@function@detail@boost@@AEBAXV?$bind_t@VSerializedMessage@ros@@P6A?AV12@AEBU?$ConfigDescription_@V?$allocator@X@std@@@dynamic_reconfigure@@@ZV?$list1@V?$reference_wrapper@$$CBU?$ConfigDescription_@V?$allocator@X@std@@@dynamic_reconfigure@@@boost@@@_bi@boost@@@_bi@3@AEATfunction_buffer@123@U?$integral_constant@_N$00@3@@Z
	??$assign_functor@V?$bind_t@VSerializedMessage@ros@@P6A?AV12@AEBU?$Config_@V?$allocator@X@std@@@dynamic_reconfigure@@@ZV?$list1@V?$reference_wrapper@$$CBU?$Config_@V?$allocator@X@std@@@dynamic_reconfigure@@@boost@@@_bi@boost@@@_bi@boost@@@?$basic_vtable0@VSerializedMessage@ros@@@function@detail@boost@@AEBAXV?$bind_t@VSerializedMessage@ros@@P6A?AV12@AEBU?$Config_@V?$allocator@X@std@@@dynamic_reconfigure@@@ZV?$list1@V?$reference_wrapper@$$CBU?$Config_@V?$allocator@X@std@@@dynamic_reconfigure@@@boost@@@_bi@boost@@@_bi@3@AEATfunction_buffer@123@U?$integral_constant@_N$00@3@@Z
	??$assign_functor@V?$bind_t@XV?$mf1@XVVideoStreamNodelet@video_stream_opencv@@AEBUTimerEvent@ros@@@_mfi@boost@@V?$list2@V?$value@PEAVVideoStreamNodelet@video_stream_opencv@@@_bi@boost@@U?$arg@$00@3@@_bi@3@@_bi@boost@@@?$basic_vtable1@XAEBUTimerEvent@ros@@@function@detail@boost@@AEBAXV?$bind_t@XV?$mf1@XVVideoStreamNodelet@video_stream_opencv@@AEBUTimerEvent@ros@@@_mfi@boost@@V?$list2@V?$value@PEAVVideoStreamNodelet@video_stream_opencv@@@_bi@boost@@U?$arg@$00@3@@_bi@3@@_bi@3@AEATfunction_buffer@123@U?$integral_constant@_N$00@3@@Z
	??$assign_functor@V?$bind_t@XV?$mf1@XVVideoStreamNodelet@video_stream_opencv@@AEBVSingleSubscriberPublisher@image_transport@@@_mfi@boost@@V?$list2@V?$value@PEAVVideoStreamNodelet@video_stream_opencv@@@_bi@boost@@U?$arg@$00@3@@_bi@3@@_bi@boost@@@?$basic_vtable1@XAEBVSingleSubscriberPublisher@image_transport@@@function@detail@boost@@AEBAXV?$bind_t@XV?$mf1@XVVideoStreamNodelet@video_stream_opencv@@AEBVSingleSubscriberPublisher@image_transport@@@_mfi@boost@@V?$list2@V?$value@PEAVVideoStreamNodelet@video_stream_opencv@@@_bi@boost@@U?$arg@$00@3@@_bi@3@@_bi@3@AEATfunction_buffer@123@U?$integral_constant@_N$00@3@@Z
	??$assign_functor@V?$bind_t@XV?$mf1@XVVideoStreamNodelet@video_stream_opencv@@AEBVSingleSubscriberPublisher@ros@@@_mfi@boost@@V?$list2@V?$value@PEAVVideoStreamNodelet@video_stream_opencv@@@_bi@boost@@U?$arg@$00@3@@_bi@3@@_bi@boost@@@?$basic_vtable1@XAEBVSingleSubscriberPublisher@ros@@@function@detail@boost@@AEBAXV?$bind_t@XV?$mf1@XVVideoStreamNodelet@video_stream_opencv@@AEBVSingleSubscriberPublisher@ros@@@_mfi@boost@@V?$list2@V?$value@PEAVVideoStreamNodelet@video_stream_opencv@@@_bi@boost@@U?$arg@$00@3@@_bi@3@@_bi@3@AEATfunction_buffer@123@U?$integral_constant@_N$00@3@@Z
	??$assign_functor@V?$bind_t@XV?$mf2@XVVideoStreamNodelet@video_stream_opencv@@AEAVVideoStreamConfig@2@I@_mfi@boost@@V?$list3@V?$value@PEAVVideoStreamNodelet@video_stream_opencv@@@_bi@boost@@U?$arg@$00@3@U?$arg@$01@3@@_bi@3@@_bi@boost@@@?$basic_vtable2@XAEAVVideoStreamConfig@video_stream_opencv@@I@function@detail@boost@@AEBAXV?$bind_t@XV?$mf2@XVVideoStreamNodelet@video_stream_opencv@@AEAVVideoStreamConfig@2@I@_mfi@boost@@V?$list3@V?$value@PEAVVideoStreamNodelet@video_stream_opencv@@@_bi@boost@@U?$arg@$00@3@U?$arg@$01@3@@_bi@3@@_bi@3@AEATfunction_buffer@123@U?$integral_constant@_N$00@3@@Z
	??$assign_functor@V?$bind_t@_NV?$mf2@_NV?$Server@VVideoStreamConfig@video_stream_opencv@@@dynamic_reconfigure@@AEAU?$ReconfigureRequest_@V?$allocator@X@std@@@2@AEAU?$ReconfigureResponse_@V?$allocator@X@std@@@2@@_mfi@boost@@V?$list3@V?$value@PEAV?$Server@VVideoStreamConfig@video_stream_opencv@@@dynamic_reconfigure@@@_bi@boost@@U?$arg@$00@3@U?$arg@$01@3@@_bi@3@@_bi@boost@@@?$basic_vtable2@_NAEAU?$ReconfigureRequest_@V?$allocator@X@std@@@dynamic_reconfigure@@AEAU?$ReconfigureResponse_@V?$allocator@X@std@@@2@@function@detail@boost@@AEBAXV?$bind_t@_NV?$mf2@_NV?$Server@VVideoStreamConfig@video_stream_opencv@@@dynamic_reconfigure@@AEAU?$ReconfigureRequest_@V?$allocator@X@std@@@2@AEAU?$ReconfigureResponse_@V?$allocator@X@std@@@2@@_mfi@boost@@V?$list3@V?$value@PEAV?$Server@VVideoStreamConfig@video_stream_opencv@@@dynamic_reconfigure@@@_bi@boost@@U?$arg@$00@3@U?$arg@$01@3@@_bi@3@@_bi@3@AEATfunction_buffer@123@U?$integral_constant@_N$00@3@@Z
	??$assign_to@P6A?AV?$shared_ptr@U?$ReconfigureRequest_@V?$allocator@X@std@@@dynamic_reconfigure@@@boost@@XZ@?$basic_vtable0@V?$shared_ptr@U?$ReconfigureRequest_@V?$allocator@X@std@@@dynamic_reconfigure@@@boost@@@function@detail@boost@@AEBA_NP6A?AV?$shared_ptr@U?$ReconfigureRequest_@V?$allocator@X@std@@@dynamic_reconfigure@@@3@XZAEATfunction_buffer@123@Ufunction_ptr_tag@123@@Z
	??$assign_to@P6A?AV?$shared_ptr@U?$ReconfigureRequest_@V?$allocator@X@std@@@dynamic_reconfigure@@@boost@@XZ@?$basic_vtable0@V?$shared_ptr@U?$ReconfigureRequest_@V?$allocator@X@std@@@dynamic_reconfigure@@@boost@@@function@detail@boost@@QEBA_NP6A?AV?$shared_ptr@U?$ReconfigureRequest_@V?$allocator@X@std@@@dynamic_reconfigure@@@3@XZAEATfunction_buffer@123@@Z
	??$assign_to@P6A?AV?$shared_ptr@U?$ReconfigureRequest_@V?$allocator@X@std@@@dynamic_reconfigure@@@boost@@XZ@?$function0@V?$shared_ptr@U?$ReconfigureRequest_@V?$allocator@X@std@@@dynamic_reconfigure@@@boost@@@boost@@AEAAXP6A?AV?$shared_ptr@U?$ReconfigureRequest_@V?$allocator@X@std@@@dynamic_reconfigure@@@1@XZ@Z
	??$assign_to@P6A?AV?$shared_ptr@U?$ReconfigureResponse_@V?$allocator@X@std@@@dynamic_reconfigure@@@boost@@XZ@?$basic_vtable0@V?$shared_ptr@U?$ReconfigureResponse_@V?$allocator@X@std@@@dynamic_reconfigure@@@boost@@@function@detail@boost@@AEBA_NP6A?AV?$shared_ptr@U?$ReconfigureResponse_@V?$allocator@X@std@@@dynamic_reconfigure@@@3@XZAEATfunction_buffer@123@Ufunction_ptr_tag@123@@Z
	??$assign_to@P6A?AV?$shared_ptr@U?$ReconfigureResponse_@V?$allocator@X@std@@@dynamic_reconfigure@@@boost@@XZ@?$basic_vtable0@V?$shared_ptr@U?$ReconfigureResponse_@V?$allocator@X@std@@@dynamic_reconfigure@@@boost@@@function@detail@boost@@QEBA_NP6A?AV?$shared_ptr@U?$ReconfigureResponse_@V?$allocator@X@std@@@dynamic_reconfigure@@@3@XZAEATfunction_buffer@123@@Z
	??$assign_to@P6A?AV?$shared_ptr@U?$ReconfigureResponse_@V?$allocator@X@std@@@dynamic_reconfigure@@@boost@@XZ@?$function0@V?$shared_ptr@U?$ReconfigureResponse_@V?$allocator@X@std@@@dynamic_reconfigure@@@boost@@@boost@@AEAAXP6A?AV?$shared_ptr@U?$ReconfigureResponse_@V?$allocator@X@std@@@dynamic_reconfigure@@@1@XZ@Z
	??$assign_to@V?$bind_t@VSerializedMessage@ros@@P6A?AV12@AEBU?$ConfigDescription_@V?$allocator@X@std@@@dynamic_reconfigure@@@ZV?$list1@V?$reference_wrapper@$$CBU?$ConfigDescription_@V?$allocator@X@std@@@dynamic_reconfigure@@@boost@@@_bi@boost@@@_bi@boost@@@?$basic_vtable0@VSerializedMessage@ros@@@function@detail@boost@@AEBA_NV?$bind_t@VSerializedMessage@ros@@P6A?AV12@AEBU?$ConfigDescription_@V?$allocator@X@std@@@dynamic_reconfigure@@@ZV?$list1@V?$reference_wrapper@$$CBU?$ConfigDescription_@V?$allocator@X@std@@@dynamic_reconfigure@@@boost@@@_bi@boost@@@_bi@3@AEATfunction_buffer@123@Ufunction_obj_tag@123@@Z
	??$assign_to@V?$bind_t@VSerializedMessage@ros@@P6A?AV12@AEBU?$ConfigDescription_@V?$allocator@X@std@@@dynamic_reconfigure@@@ZV?$list1@V?$reference_wrapper@$$CBU?$ConfigDescription_@V?$allocator@X@std@@@dynamic_reconfigure@@@boost@@@_bi@boost@@@_bi@boost@@@?$basic_vtable0@VSerializedMessage@ros@@@function@detail@boost@@QEBA_NV?$bind_t@VSerializedMessage@ros@@P6A?AV12@AEBU?$ConfigDescription_@V?$allocator@X@std@@@dynamic_reconfigure@@@ZV?$list1@V?$reference_wrapper@$$CBU?$ConfigDescription_@V?$allocator@X@std@@@dynamic_reconfigure@@@boost@@@_bi@boost@@@_bi@3@AEATfunction_buffer@123@@Z
	??$assign_to@V?$bind_t@VSerializedMessage@ros@@P6A?AV12@AEBU?$ConfigDescription_@V?$allocator@X@std@@@dynamic_reconfigure@@@ZV?$list1@V?$reference_wrapper@$$CBU?$ConfigDescription_@V?$allocator@X@std@@@dynamic_reconfigure@@@boost@@@_bi@boost@@@_bi@boost@@@?$function0@VSerializedMessage@ros@@@boost@@AEAAXV?$bind_t@VSerializedMessage@ros@@P6A?AV12@AEBU?$ConfigDescription_@V?$allocator@X@std@@@dynamic_reconfigure@@@ZV?$list1@V?$reference_wrapper@$$CBU?$ConfigDescription_@V?$allocator@X@std@@@dynamic_reconfigure@@@boost@@@_bi@boost@@@_bi@1@@Z
	??$assign_to@V?$bind_t@VSerializedMessage@ros@@P6A?AV12@AEBU?$Config_@V?$allocator@X@std@@@dynamic_reconfigure@@@ZV?$list1@V?$reference_wrapper@$$CBU?$Config_@V?$allocator@X@std@@@dynamic_reconfigure@@@boost@@@_bi@boost@@@_bi@boost@@@?$basic_vtable0@VSerializedMessage@ros@@@function@detail@boost@@AEBA_NV?$bind_t@VSerializedMessage@ros@@P6A?AV12@AEBU?$Config_@V?$allocator@X@std@@@dynamic_reconfigure@@@ZV?$list1@V?$reference_wrapper@$$CBU?$Config_@V?$allocator@X@std@@@dynamic_reconfigure@@@boost@@@_bi@boost@@@_bi@3@AEATfunction_buffer@123@Ufunction_obj_tag@123@@Z
	??$assign_to@V?$bind_t@VSerializedMessage@ros@@P6A?AV12@AEBU?$Config_@V?$allocator@X@std@@@dynamic_reconfigure@@@ZV?$list1@V?$reference_wrapper@$$CBU?$Config_@V?$allocator@X@std@@@dynamic_reconfigure@@@boost@@@_bi@boost@@@_bi@boost@@@?$basic_vtable0@VSerializedMessage@ros@@@function@detail@boost@@QEBA_NV?$bind_t@VSerializedMessage@ros@@P6A?AV12@AEBU?$Config_@V?$allocator@X@std@@@dynamic_reconfigure@@@ZV?$list1@V?$reference_wrapper@$$CBU?$Config_@V?$allocator@X@std@@@dynamic_reconfigure@@@boost@@@_bi@boost@@@_bi@3@AEATfunction_buffer@123@@Z
	??$assign_to@V?$bind_t@VSerializedMessage@ros@@P6A?AV12@AEBU?$Config_@V?$allocator@X@std@@@dynamic_reconfigure@@@ZV?$list1@V?$reference_wrapper@$$CBU?$Config_@V?$allocator@X@std@@@dynamic_reconfigure@@@boost@@@_bi@boost@@@_bi@boost@@@?$function0@VSerializedMessage@ros@@@boost@@AEAAXV?$bind_t@VSerializedMessage@ros@@P6A?AV12@AEBU?$Config_@V?$allocator@X@std@@@dynamic_reconfigure@@@ZV?$list1@V?$reference_wrapper@$$CBU?$Config_@V?$allocator@X@std@@@dynamic_reconfigure@@@boost@@@_bi@boost@@@_bi@1@@Z
	??$assign_to@V?$bind_t@XV?$mf1@XVVideoStreamNodelet@video_stream_opencv@@AEBUTimerEvent@ros@@@_mfi@boost@@V?$list2@V?$value@PEAVVideoStreamNodelet@video_stream_opencv@@@_bi@boost@@U?$arg@$00@3@@_bi@3@@_bi@boost@@@?$basic_vtable1@XAEBUTimerEvent@ros@@@function@detail@boost@@AEBA_NV?$bind_t@XV?$mf1@XVVideoStreamNodelet@video_stream_opencv@@AEBUTimerEvent@ros@@@_mfi@boost@@V?$list2@V?$value@PEAVVideoStreamNodelet@video_stream_opencv@@@_bi@boost@@U?$arg@$00@3@@_bi@3@@_bi@3@AEATfunction_buffer@123@Ufunction_obj_tag@123@@Z
	??$assign_to@V?$bind_t@XV?$mf1@XVVideoStreamNodelet@video_stream_opencv@@AEBUTimerEvent@ros@@@_mfi@boost@@V?$list2@V?$value@PEAVVideoStreamNodelet@video_stream_opencv@@@_bi@boost@@U?$arg@$00@3@@_bi@3@@_bi@boost@@@?$basic_vtable1@XAEBUTimerEvent@ros@@@function@detail@boost@@QEBA_NV?$bind_t@XV?$mf1@XVVideoStreamNodelet@video_stream_opencv@@AEBUTimerEvent@ros@@@_mfi@boost@@V?$list2@V?$value@PEAVVideoStreamNodelet@video_stream_opencv@@@_bi@boost@@U?$arg@$00@3@@_bi@3@@_bi@3@AEATfunction_buffer@123@@Z
	??$assign_to@V?$bind_t@XV?$mf1@XVVideoStreamNodelet@video_stream_opencv@@AEBUTimerEvent@ros@@@_mfi@boost@@V?$list2@V?$value@PEAVVideoStreamNodelet@video_stream_opencv@@@_bi@boost@@U?$arg@$00@3@@_bi@3@@_bi@boost@@@?$function1@XAEBUTimerEvent@ros@@@boost@@AEAAXV?$bind_t@XV?$mf1@XVVideoStreamNodelet@video_stream_opencv@@AEBUTimerEvent@ros@@@_mfi@boost@@V?$list2@V?$value@PEAVVideoStreamNodelet@video_stream_opencv@@@_bi@boost@@U?$arg@$00@3@@_bi@3@@_bi@1@@Z
	??$assign_to@V?$bind_t@XV?$mf1@XVVideoStreamNodelet@video_stream_opencv@@AEBVSingleSubscriberPublisher@image_transport@@@_mfi@boost@@V?$list2@V?$value@PEAVVideoStreamNodelet@video_stream_opencv@@@_bi@boost@@U?$arg@$00@3@@_bi@3@@_bi@boost@@@?$basic_vtable1@XAEBVSingleSubscriberPublisher@image_transport@@@function@detail@boost@@AEBA_NV?$bind_t@XV?$mf1@XVVideoStreamNodelet@video_stream_opencv@@AEBVSingleSubscriberPublisher@image_transport@@@_mfi@boost@@V?$list2@V?$value@PEAVVideoStreamNodelet@video_stream_opencv@@@_bi@boost@@U?$arg@$00@3@@_bi@3@@_bi@3@AEATfunction_buffer@123@Ufunction_obj_tag@123@@Z
	??$assign_to@V?$bind_t@XV?$mf1@XVVideoStreamNodelet@video_stream_opencv@@AEBVSingleSubscriberPublisher@image_transport@@@_mfi@boost@@V?$list2@V?$value@PEAVVideoStreamNodelet@video_stream_opencv@@@_bi@boost@@U?$arg@$00@3@@_bi@3@@_bi@boost@@@?$basic_vtable1@XAEBVSingleSubscriberPublisher@image_transport@@@function@detail@boost@@QEBA_NV?$bind_t@XV?$mf1@XVVideoStreamNodelet@video_stream_opencv@@AEBVSingleSubscriberPublisher@image_transport@@@_mfi@boost@@V?$list2@V?$value@PEAVVideoStreamNodelet@video_stream_opencv@@@_bi@boost@@U?$arg@$00@3@@_bi@3@@_bi@3@AEATfunction_buffer@123@@Z
	??$assign_to@V?$bind_t@XV?$mf1@XVVideoStreamNodelet@video_stream_opencv@@AEBVSingleSubscriberPublisher@image_transport@@@_mfi@boost@@V?$list2@V?$value@PEAVVideoStreamNodelet@video_stream_opencv@@@_bi@boost@@U?$arg@$00@3@@_bi@3@@_bi@boost@@@?$function1@XAEBVSingleSubscriberPublisher@image_transport@@@boost@@AEAAXV?$bind_t@XV?$mf1@XVVideoStreamNodelet@video_stream_opencv@@AEBVSingleSubscriberPublisher@image_transport@@@_mfi@boost@@V?$list2@V?$value@PEAVVideoStreamNodelet@video_stream_opencv@@@_bi@boost@@U?$arg@$00@3@@_bi@3@@_bi@1@@Z
	??$assign_to@V?$bind_t@XV?$mf1@XVVideoStreamNodelet@video_stream_opencv@@AEBVSingleSubscriberPublisher@ros@@@_mfi@boost@@V?$list2@V?$value@PEAVVideoStreamNodelet@video_stream_opencv@@@_bi@boost@@U?$arg@$00@3@@_bi@3@@_bi@boost@@@?$basic_vtable1@XAEBVSingleSubscriberPublisher@ros@@@function@detail@boost@@AEBA_NV?$bind_t@XV?$mf1@XVVideoStreamNodelet@video_stream_opencv@@AEBVSingleSubscriberPublisher@ros@@@_mfi@boost@@V?$list2@V?$value@PEAVVideoStreamNodelet@video_stream_opencv@@@_bi@boost@@U?$arg@$00@3@@_bi@3@@_bi@3@AEATfunction_buffer@123@Ufunction_obj_tag@123@@Z
	??$assign_to@V?$bind_t@XV?$mf1@XVVideoStreamNodelet@video_stream_opencv@@AEBVSingleSubscriberPublisher@ros@@@_mfi@boost@@V?$list2@V?$value@PEAVVideoStreamNodelet@video_stream_opencv@@@_bi@boost@@U?$arg@$00@3@@_bi@3@@_bi@boost@@@?$basic_vtable1@XAEBVSingleSubscriberPublisher@ros@@@function@detail@boost@@QEBA_NV?$bind_t@XV?$mf1@XVVideoStreamNodelet@video_stream_opencv@@AEBVSingleSubscriberPublisher@ros@@@_mfi@boost@@V?$list2@V?$value@PEAVVideoStreamNodelet@video_stream_opencv@@@_bi@boost@@U?$arg@$00@3@@_bi@3@@_bi@3@AEATfunction_buffer@123@@Z
	??$assign_to@V?$bind_t@XV?$mf1@XVVideoStreamNodelet@video_stream_opencv@@AEBVSingleSubscriberPublisher@ros@@@_mfi@boost@@V?$list2@V?$value@PEAVVideoStreamNodelet@video_stream_opencv@@@_bi@boost@@U?$arg@$00@3@@_bi@3@@_bi@boost@@@?$function1@XAEBVSingleSubscriberPublisher@ros@@@boost@@AEAAXV?$bind_t@XV?$mf1@XVVideoStreamNodelet@video_stream_opencv@@AEBVSingleSubscriberPublisher@ros@@@_mfi@boost@@V?$list2@V?$value@PEAVVideoStreamNodelet@video_stream_opencv@@@_bi@boost@@U?$arg@$00@3@@_bi@3@@_bi@1@@Z
	??$assign_to@V?$bind_t@XV?$mf2@XVVideoStreamNodelet@video_stream_opencv@@AEAVVideoStreamConfig@2@I@_mfi@boost@@V?$list3@V?$value@PEAVVideoStreamNodelet@video_stream_opencv@@@_bi@boost@@U?$arg@$00@3@U?$arg@$01@3@@_bi@3@@_bi@boost@@@?$basic_vtable2@XAEAVVideoStreamConfig@video_stream_opencv@@I@function@detail@boost@@AEBA_NV?$bind_t@XV?$mf2@XVVideoStreamNodelet@video_stream_opencv@@AEAVVideoStreamConfig@2@I@_mfi@boost@@V?$list3@V?$value@PEAVVideoStreamNodelet@video_stream_opencv@@@_bi@boost@@U?$arg@$00@3@U?$arg@$01@3@@_bi@3@@_bi@3@AEATfunction_buffer@123@Ufunction_obj_tag@123@@Z
	??$assign_to@V?$bind_t@XV?$mf2@XVVideoStreamNodelet@video_stream_opencv@@AEAVVideoStreamConfig@2@I@_mfi@boost@@V?$list3@V?$value@PEAVVideoStreamNodelet@video_stream_opencv@@@_bi@boost@@U?$arg@$00@3@U?$arg@$01@3@@_bi@3@@_bi@boost@@@?$basic_vtable2@XAEAVVideoStreamConfig@video_stream_opencv@@I@function@detail@boost@@QEBA_NV?$bind_t@XV?$mf2@XVVideoStreamNodelet@video_stream_opencv@@AEAVVideoStreamConfig@2@I@_mfi@boost@@V?$list3@V?$value@PEAVVideoStreamNodelet@video_stream_opencv@@@_bi@boost@@U?$arg@$00@3@U?$arg@$01@3@@_bi@3@@_bi@3@AEATfunction_buffer@123@@Z
	??$assign_to@V?$bind_t@XV?$mf2@XVVideoStreamNodelet@video_stream_opencv@@AEAVVideoStreamConfig@2@I@_mfi@boost@@V?$list3@V?$value@PEAVVideoStreamNodelet@video_stream_opencv@@@_bi@boost@@U?$arg@$00@3@U?$arg@$01@3@@_bi@3@@_bi@boost@@@?$function2@XAEAVVideoStreamConfig@video_stream_opencv@@I@boost@@AEAAXV?$bind_t@XV?$mf2@XVVideoStreamNodelet@video_stream_opencv@@AEAVVideoStreamConfig@2@I@_mfi@boost@@V?$list3@V?$value@PEAVVideoStreamNodelet@video_stream_opencv@@@_bi@boost@@U?$arg@$00@3@U?$arg@$01@3@@_bi@3@@_bi@1@@Z
	??$assign_to@V?$bind_t@_NV?$mf2@_NV?$Server@VVideoStreamConfig@video_stream_opencv@@@dynamic_reconfigure@@AEAU?$ReconfigureRequest_@V?$allocator@X@std@@@2@AEAU?$ReconfigureResponse_@V?$allocator@X@std@@@2@@_mfi@boost@@V?$list3@V?$value@PEAV?$Server@VVideoStreamConfig@video_stream_opencv@@@dynamic_reconfigure@@@_bi@boost@@U?$arg@$00@3@U?$arg@$01@3@@_bi@3@@_bi@boost@@@?$basic_vtable2@_NAEAU?$ReconfigureRequest_@V?$allocator@X@std@@@dynamic_reconfigure@@AEAU?$ReconfigureResponse_@V?$allocator@X@std@@@2@@function@detail@boost@@AEBA_NV?$bind_t@_NV?$mf2@_NV?$Server@VVideoStreamConfig@video_stream_opencv@@@dynamic_reconfigure@@AEAU?$ReconfigureRequest_@V?$allocator@X@std@@@2@AEAU?$ReconfigureResponse_@V?$allocator@X@std@@@2@@_mfi@boost@@V?$list3@V?$value@PEAV?$Server@VVideoStreamConfig@video_stream_opencv@@@dynamic_reconfigure@@@_bi@boost@@U?$arg@$00@3@U?$arg@$01@3@@_bi@3@@_bi@3@AEATfunction_buffer@123@Ufunction_obj_tag@123@@Z
	??$assign_to@V?$bind_t@_NV?$mf2@_NV?$Server@VVideoStreamConfig@video_stream_opencv@@@dynamic_reconfigure@@AEAU?$ReconfigureRequest_@V?$allocator@X@std@@@2@AEAU?$ReconfigureResponse_@V?$allocator@X@std@@@2@@_mfi@boost@@V?$list3@V?$value@PEAV?$Server@VVideoStreamConfig@video_stream_opencv@@@dynamic_reconfigure@@@_bi@boost@@U?$arg@$00@3@U?$arg@$01@3@@_bi@3@@_bi@boost@@@?$basic_vtable2@_NAEAU?$ReconfigureRequest_@V?$allocator@X@std@@@dynamic_reconfigure@@AEAU?$ReconfigureResponse_@V?$allocator@X@std@@@2@@function@detail@boost@@QEBA_NV?$bind_t@_NV?$mf2@_NV?$Server@VVideoStreamConfig@video_stream_opencv@@@dynamic_reconfigure@@AEAU?$ReconfigureRequest_@V?$allocator@X@std@@@2@AEAU?$ReconfigureResponse_@V?$allocator@X@std@@@2@@_mfi@boost@@V?$list3@V?$value@PEAV?$Server@VVideoStreamConfig@video_stream_opencv@@@dynamic_reconfigure@@@_bi@boost@@U?$arg@$00@3@U?$arg@$01@3@@_bi@3@@_bi@3@AEATfunction_buffer@123@@Z
	??$assign_to@V?$bind_t@_NV?$mf2@_NV?$Server@VVideoStreamConfig@video_stream_opencv@@@dynamic_reconfigure@@AEAU?$ReconfigureRequest_@V?$allocator@X@std@@@2@AEAU?$ReconfigureResponse_@V?$allocator@X@std@@@2@@_mfi@boost@@V?$list3@V?$value@PEAV?$Server@VVideoStreamConfig@video_stream_opencv@@@dynamic_reconfigure@@@_bi@boost@@U?$arg@$00@3@U?$arg@$01@3@@_bi@3@@_bi@boost@@@?$function2@_NAEAU?$ReconfigureRequest_@V?$allocator@X@std@@@dynamic_reconfigure@@AEAU?$ReconfigureResponse_@V?$allocator@X@std@@@2@@boost@@AEAAXV?$bind_t@_NV?$mf2@_NV?$Server@VVideoStreamConfig@video_stream_opencv@@@dynamic_reconfigure@@AEAU?$ReconfigureRequest_@V?$allocator@X@std@@@2@AEAU?$ReconfigureResponse_@V?$allocator@X@std@@@2@@_mfi@boost@@V?$list3@V?$value@PEAV?$Server@VVideoStreamConfig@video_stream_opencv@@@dynamic_reconfigure@@@_bi@boost@@U?$arg@$00@3@U?$arg@$01@3@@_bi@3@@_bi@1@@Z
	??$bind@VSerializedMessage@ros@@AEBU?$ConfigDescription_@V?$allocator@X@std@@@dynamic_reconfigure@@V?$reference_wrapper@$$CBU?$ConfigDescription_@V?$allocator@X@std@@@dynamic_reconfigure@@@boost@@@boost@@YA?AV?$bind_t@VSerializedMessage@ros@@P6A?AV12@AEBU?$ConfigDescription_@V?$allocator@X@std@@@dynamic_reconfigure@@@ZV?$list1@V?$reference_wrapper@$$CBU?$ConfigDescription_@V?$allocator@X@std@@@dynamic_reconfigure@@@boost@@@_bi@boost@@@_bi@0@P6A?AVSerializedMessage@ros@@AEBU?$ConfigDescription_@V?$allocator@X@std@@@dynamic_reconfigure@@@ZV?$reference_wrapper@$$CBU?$ConfigDescription_@V?$allocator@X@std@@@dynamic_reconfigure@@@0@@Z
	??$bind@VSerializedMessage@ros@@AEBU?$Config_@V?$allocator@X@std@@@dynamic_reconfigure@@V?$reference_wrapper@$$CBU?$Config_@V?$allocator@X@std@@@dynamic_reconfigure@@@boost@@@boost@@YA?AV?$bind_t@VSerializedMessage@ros@@P6A?AV12@AEBU?$Config_@V?$allocator@X@std@@@dynamic_reconfigure@@@ZV?$list1@V?$reference_wrapper@$$CBU?$Config_@V?$allocator@X@std@@@dynamic_reconfigure@@@boost@@@_bi@boost@@@_bi@0@P6A?AVSerializedMessage@ros@@AEBU?$Config_@V?$allocator@X@std@@@dynamic_reconfigure@@@ZV?$reference_wrapper@$$CBU?$Config_@V?$allocator@X@std@@@dynamic_reconfigure@@@0@@Z
	??$bind@XVVideoStreamNodelet@video_stream_opencv@@AEAVVideoStreamConfig@2@IPEAV12@U?$arg@$00@boost@@U?$arg@$01@5@@boost@@YA?AV?$bind_t@XV?$mf2@XVVideoStreamNodelet@video_stream_opencv@@AEAVVideoStreamConfig@2@I@_mfi@boost@@V?$list3@V?$value@PEAVVideoStreamNodelet@video_stream_opencv@@@_bi@boost@@U?$arg@$00@3@U?$arg@$01@3@@_bi@3@@_bi@0@P8VideoStreamNodelet@video_stream_opencv@@EAAXAEAVVideoStreamConfig@4@I@ZPEAV34@U?$arg@$00@0@U?$arg@$01@0@@Z
	??$bind@XVVideoStreamNodelet@video_stream_opencv@@AEBUTimerEvent@ros@@PEAV12@U?$arg@$00@boost@@@boost@@YA?AV?$bind_t@XV?$mf1@XVVideoStreamNodelet@video_stream_opencv@@AEBUTimerEvent@ros@@@_mfi@boost@@V?$list2@V?$value@PEAVVideoStreamNodelet@video_stream_opencv@@@_bi@boost@@U?$arg@$00@3@@_bi@3@@_bi@0@P8VideoStreamNodelet@video_stream_opencv@@EAAXAEBUTimerEvent@ros@@@ZPEAV34@U?$arg@$00@0@@Z
	??$bind@XVVideoStreamNodelet@video_stream_opencv@@AEBVSingleSubscriberPublisher@image_transport@@PEAV12@U?$arg@$00@boost@@@boost@@YA?AV?$bind_t@XV?$mf1@XVVideoStreamNodelet@video_stream_opencv@@AEBVSingleSubscriberPublisher@image_transport@@@_mfi@boost@@V?$list2@V?$value@PEAVVideoStreamNodelet@video_stream_opencv@@@_bi@boost@@U?$arg@$00@3@@_bi@3@@_bi@0@P8VideoStreamNodelet@video_stream_opencv@@EAAXAEBVSingleSubscriberPublisher@image_transport@@@ZPEAV34@U?$arg@$00@0@@Z
	??$bind@XVVideoStreamNodelet@video_stream_opencv@@AEBVSingleSubscriberPublisher@ros@@PEAV12@U?$arg@$00@boost@@@boost@@YA?AV?$bind_t@XV?$mf1@XVVideoStreamNodelet@video_stream_opencv@@AEBVSingleSubscriberPublisher@ros@@@_mfi@boost@@V?$list2@V?$value@PEAVVideoStreamNodelet@video_stream_opencv@@@_bi@boost@@U?$arg@$00@3@@_bi@3@@_bi@0@P8VideoStreamNodelet@video_stream_opencv@@EAAXAEBVSingleSubscriberPublisher@ros@@@ZPEAV34@U?$arg@$00@0@@Z
	??$bind@XVVideoStreamNodelet@video_stream_opencv@@PEAV12@@boost@@YA?AV?$bind_t@XV?$mf0@XVVideoStreamNodelet@video_stream_opencv@@@_mfi@boost@@V?$list1@V?$value@PEAVVideoStreamNodelet@video_stream_opencv@@@_bi@boost@@@_bi@3@@_bi@0@P8VideoStreamNodelet@video_stream_opencv@@EAAXXZPEAV34@@Z
	??$bind@_NV?$Server@VVideoStreamConfig@video_stream_opencv@@@dynamic_reconfigure@@AEAU?$ReconfigureRequest_@V?$allocator@X@std@@@2@AEAU?$ReconfigureResponse_@V?$allocator@X@std@@@2@PEAV12@U?$arg@$00@boost@@U?$arg@$01@6@@boost@@YA?AV?$bind_t@_NV?$mf2@_NV?$Server@VVideoStreamConfig@video_stream_opencv@@@dynamic_reconfigure@@AEAU?$ReconfigureRequest_@V?$allocator@X@std@@@2@AEAU?$ReconfigureResponse_@V?$allocator@X@std@@@2@@_mfi@boost@@V?$list3@V?$value@PEAV?$Server@VVideoStreamConfig@video_stream_opencv@@@dynamic_reconfigure@@@_bi@boost@@U?$arg@$00@3@U?$arg@$01@3@@_bi@3@@_bi@0@P8?$Server@VVideoStreamConfig@video_stream_opencv@@@dynamic_reconfigure@@EAA_NAEAU?$ReconfigureRequest_@V?$allocator@X@std@@@4@AEAU?$ReconfigureResponse_@V?$allocator@X@std@@@4@@ZPEAV34@U?$arg@$00@0@U?$arg@$01@0@@Z
	??$buffer_fill@DU?$char_traits@D@std@@@detail@io@boost@@YA_NAEAV?$basic_streambuf@DU?$char_traits@D@std@@@std@@D_K@Z
	??$checked_array_delete@E@boost@@YAXPEAE@Z
	??$checked_delete@V?$GroupDescription@VDEFAULT@VideoStreamConfig@video_stream_opencv@@V23@@VideoStreamConfig@video_stream_opencv@@@boost@@YAXPEAV?$GroupDescription@VDEFAULT@VideoStreamConfig@video_stream_opencv@@V23@@VideoStreamConfig@video_stream_opencv@@@Z
	??$checked_delete@V?$ParamDescription@H@VideoStreamConfig@video_stream_opencv@@@boost@@YAXPEAV?$ParamDescription@H@VideoStreamConfig@video_stream_opencv@@@Z
	??$checked_delete@V?$ParamDescription@N@VideoStreamConfig@video_stream_opencv@@@boost@@YAXPEAV?$ParamDescription@N@VideoStreamConfig@video_stream_opencv@@@Z
	??$checked_delete@V?$ParamDescription@V?$basic_string@DU?$char_traits@D@std@@V?$allocator@D@2@@std@@@VideoStreamConfig@video_stream_opencv@@@boost@@YAXPEAV?$ParamDescription@V?$basic_string@DU?$char_traits@D@std@@V?$allocator@D@2@@std@@@VideoStreamConfig@video_stream_opencv@@@Z
	??$checked_delete@V?$ParamDescription@_N@VideoStreamConfig@video_stream_opencv@@@boost@@YAXPEAV?$ParamDescription@_N@VideoStreamConfig@video_stream_opencv@@@Z
	??$checked_delete@VNodeHandle@ros@@@boost@@YAXPEAVNodeHandle@ros@@@Z
	??$checked_delete@VVideoCapture@cv@@@boost@@YAXPEAVVideoCapture@cv@@@Z
	??$construct@NAEBN@?$_Default_allocator_traits@V?$allocator@N@std@@@std@@SAXAEAV?$allocator@N@1@QEANAEBN@Z
	??$construct@NN@?$_Default_allocator_traits@V?$allocator@N@std@@@std@@SAXAEAV?$allocator@N@1@QEAN$$QEAN@Z
	??$construct@U?$BoolParameter_@V?$allocator@X@std@@@dynamic_reconfigure@@$$V@?$_Default_allocator_traits@V?$allocator@U?$BoolParameter_@V?$allocator@X@std@@@dynamic_reconfigure@@@std@@@std@@SAXAEAV?$allocator@U?$BoolParameter_@V?$allocator@X@std@@@dynamic_reconfigure@@@1@QEAU?$BoolParameter_@V?$allocator@X@std@@@dynamic_reconfigure@@@Z
	??$construct@U?$BoolParameter_@V?$allocator@X@std@@@dynamic_reconfigure@@U12@@?$_Default_allocator_traits@V?$allocator@U?$BoolParameter_@V?$allocator@X@std@@@dynamic_reconfigure@@@std@@@std@@SAXAEAV?$allocator@U?$BoolParameter_@V?$allocator@X@std@@@dynamic_reconfigure@@@1@QEAU?$BoolParameter_@V?$allocator@X@std@@@dynamic_reconfigure@@$$QEAU34@@Z
	??$construct@U?$DoubleParameter_@V?$allocator@X@std@@@dynamic_reconfigure@@$$V@?$_Default_allocator_traits@V?$allocator@U?$DoubleParameter_@V?$allocator@X@std@@@dynamic_reconfigure@@@std@@@std@@SAXAEAV?$allocator@U?$DoubleParameter_@V?$allocator@X@std@@@dynamic_reconfigure@@@1@QEAU?$DoubleParameter_@V?$allocator@X@std@@@dynamic_reconfigure@@@Z
	??$construct@U?$DoubleParameter_@V?$allocator@X@std@@@dynamic_reconfigure@@U12@@?$_Default_allocator_traits@V?$allocator@U?$DoubleParameter_@V?$allocator@X@std@@@dynamic_reconfigure@@@std@@@std@@SAXAEAV?$allocator@U?$DoubleParameter_@V?$allocator@X@std@@@dynamic_reconfigure@@@1@QEAU?$DoubleParameter_@V?$allocator@X@std@@@dynamic_reconfigure@@$$QEAU34@@Z
	??$construct@U?$GroupState_@V?$allocator@X@std@@@dynamic_reconfigure@@$$V@?$_Default_allocator_traits@V?$allocator@U?$GroupState_@V?$allocator@X@std@@@dynamic_reconfigure@@@std@@@std@@SAXAEAV?$allocator@U?$GroupState_@V?$allocator@X@std@@@dynamic_reconfigure@@@1@QEAU?$GroupState_@V?$allocator@X@std@@@dynamic_reconfigure@@@Z
	??$construct@U?$GroupState_@V?$allocator@X@std@@@dynamic_reconfigure@@AEBU12@@?$_Default_allocator_traits@V?$allocator@U?$GroupState_@V?$allocator@X@std@@@dynamic_reconfigure@@@std@@@std@@SAXAEAV?$allocator@U?$GroupState_@V?$allocator@X@std@@@dynamic_reconfigure@@@1@QEAU?$GroupState_@V?$allocator@X@std@@@dynamic_reconfigure@@AEBU34@@Z
	??$construct@U?$GroupState_@V?$allocator@X@std@@@dynamic_reconfigure@@U12@@?$_Default_allocator_traits@V?$allocator@U?$GroupState_@V?$allocator@X@std@@@dynamic_reconfigure@@@std@@@std@@SAXAEAV?$allocator@U?$GroupState_@V?$allocator@X@std@@@dynamic_reconfigure@@@1@QEAU?$GroupState_@V?$allocator@X@std@@@dynamic_reconfigure@@$$QEAU34@@Z
	??$construct@U?$Group_@V?$allocator@X@std@@@dynamic_reconfigure@@AEBU12@@?$_Default_allocator_traits@V?$allocator@U?$Group_@V?$allocator@X@std@@@dynamic_reconfigure@@@std@@@std@@SAXAEAV?$allocator@U?$Group_@V?$allocator@X@std@@@dynamic_reconfigure@@@1@QEAU?$Group_@V?$allocator@X@std@@@dynamic_reconfigure@@AEBU34@@Z
	??$construct@U?$Group_@V?$allocator@X@std@@@dynamic_reconfigure@@U12@@?$_Default_allocator_traits@V?$allocator@U?$Group_@V?$allocator@X@std@@@dynamic_reconfigure@@@std@@@std@@SAXAEAV?$allocator@U?$Group_@V?$allocator@X@std@@@dynamic_reconfigure@@@1@QEAU?$Group_@V?$allocator@X@std@@@dynamic_reconfigure@@$$QEAU34@@Z
	??$construct@U?$IntParameter_@V?$allocator@X@std@@@dynamic_reconfigure@@$$V@?$_Default_allocator_traits@V?$allocator@U?$IntParameter_@V?$allocator@X@std@@@dynamic_reconfigure@@@std@@@std@@SAXAEAV?$allocator@U?$IntParameter_@V?$allocator@X@std@@@dynamic_reconfigure@@@1@QEAU?$IntParameter_@V?$allocator@X@std@@@dynamic_reconfigure@@@Z
	??$construct@U?$IntParameter_@V?$allocator@X@std@@@dynamic_reconfigure@@U12@@?$_Default_allocator_traits@V?$allocator@U?$IntParameter_@V?$allocator@X@std@@@dynamic_reconfigure@@@std@@@std@@SAXAEAV?$allocator@U?$IntParameter_@V?$allocator@X@std@@@dynamic_reconfigure@@@1@QEAU?$IntParameter_@V?$allocator@X@std@@@dynamic_reconfigure@@$$QEAU34@@Z
	??$construct@U?$ParamDescription_@V?$allocator@X@std@@@dynamic_reconfigure@@AEAU12@@?$_Default_allocator_traits@V?$allocator@U?$ParamDescription_@V?$allocator@X@std@@@dynamic_reconfigure@@@std@@@std@@SAXAEAV?$allocator@U?$ParamDescription_@V?$allocator@X@std@@@dynamic_reconfigure@@@1@QEAU?$ParamDescription_@V?$allocator@X@std@@@dynamic_reconfigure@@AEAU34@@Z
	??$construct@U?$ParamDescription_@V?$allocator@X@std@@@dynamic_reconfigure@@U12@@?$_Default_allocator_traits@V?$allocator@U?$ParamDescription_@V?$allocator@X@std@@@dynamic_reconfigure@@@std@@@std@@SAXAEAV?$allocator@U?$ParamDescription_@V?$allocator@X@std@@@dynamic_reconfigure@@@1@QEAU?$ParamDescription_@V?$allocator@X@std@@@dynamic_reconfigure@@$$QEAU34@@Z
	??$construct@U?$StrParameter_@V?$allocator@X@std@@@dynamic_reconfigure@@$$V@?$_Default_allocator_traits@V?$allocator@U?$StrParameter_@V?$allocator@X@std@@@dynamic_reconfigure@@@std@@@std@@SAXAEAV?$allocator@U?$StrParameter_@V?$allocator@X@std@@@dynamic_reconfigure@@@1@QEAU?$StrParameter_@V?$allocator@X@std@@@dynamic_reconfigure@@@Z
	??$construct@U?$StrParameter_@V?$allocator@X@std@@@dynamic_reconfigure@@U12@@?$_Default_allocator_traits@V?$allocator@U?$StrParameter_@V?$allocator@X@std@@@dynamic_reconfigure@@@std@@@std@@SAXAEAV?$allocator@U?$StrParameter_@V?$allocator@X@std@@@dynamic_reconfigure@@@1@QEAU?$StrParameter_@V?$allocator@X@std@@@dynamic_reconfigure@@$$QEAU34@@Z
	??$construct@U?$pair@$$CBV?$basic_string@DU?$char_traits@D@std@@V?$allocator@D@2@@std@@PEAVAbstractMetaObjectBase@impl@class_loader@@@std@@AEBUpiecewise_construct_t@2@V?$tuple@AEBV?$basic_string@DU?$char_traits@D@std@@V?$allocator@D@2@@std@@@2@V?$tuple@$$V@2@@?$_Default_allocator_traits@V?$allocator@U?$_Tree_node@U?$pair@$$CBV?$basic_string@DU?$char_traits@D@std@@V?$allocator@D@2@@std@@PEAVAbstractMetaObjectBase@impl@class_loader@@@std@@PEAX@std@@@std@@@std@@SAXAEAV?$allocator@U?$_Tree_node@U?$pair@$$CBV?$basic_string@DU?$char_traits@D@std@@V?$allocator@D@2@@std@@PEAVAbstractMetaObjectBase@impl@class_loader@@@std@@PEAX@std@@@1@QEAU?$pair@$$CBV?$basic_string@DU?$char_traits@D@std@@V?$allocator@D@2@@std@@PEAVAbstractMetaObjectBase@impl@class_loader@@@1@AEBUpiecewise_construct_t@1@$$QEAV?$tuple@AEBV?$basic_string@DU?$char_traits@D@std@@V?$allocator@D@2@@std@@@1@$$QEAV?$tuple@$$V@1@@Z
	??$construct@V?$shared_ptr@$$CBVAbstractGroupDescription@VideoStreamConfig@video_stream_opencv@@@boost@@AEAV12@@?$_Default_allocator_traits@V?$allocator@V?$shared_ptr@$$CBVAbstractGroupDescription@VideoStreamConfig@video_stream_opencv@@@boost@@@std@@@std@@SAXAEAV?$allocator@V?$shared_ptr@$$CBVAbstractGroupDescription@VideoStreamConfig@video_stream_opencv@@@boost@@@1@QEAV?$shared_ptr@$$CBVAbstractGroupDescription@VideoStreamConfig@video_stream_opencv@@@boost@@AEAV34@@Z
	??$construct@V?$shared_ptr@$$CBVAbstractGroupDescription@VideoStreamConfig@video_stream_opencv@@@boost@@V12@@?$_Default_allocator_traits@V?$allocator@V?$shared_ptr@$$CBVAbstractGroupDescription@VideoStreamConfig@video_stream_opencv@@@boost@@@std@@@std@@SAXAEAV?$allocator@V?$shared_ptr@$$CBVAbstractGroupDescription@VideoStreamConfig@video_stream_opencv@@@boost@@@1@QEAV?$shared_ptr@$$CBVAbstractGroupDescription@VideoStreamConfig@video_stream_opencv@@@boost@@$$QEAV34@@Z
	??$construct@V?$shared_ptr@$$CBVAbstractParamDescription@VideoStreamConfig@video_stream_opencv@@@boost@@AEAV12@@?$_Default_allocator_traits@V?$allocator@V?$shared_ptr@$$CBVAbstractParamDescription@VideoStreamConfig@video_stream_opencv@@@boost@@@std@@@std@@SAXAEAV?$allocator@V?$shared_ptr@$$CBVAbstractParamDescription@VideoStreamConfig@video_stream_opencv@@@boost@@@1@QEAV?$shared_ptr@$$CBVAbstractParamDescription@VideoStreamConfig@video_stream_opencv@@@boost@@AEAV34@@Z
	??$construct@V?$shared_ptr@$$CBVAbstractParamDescription@VideoStreamConfig@video_stream_opencv@@@boost@@V12@@?$_Default_allocator_traits@V?$allocator@V?$shared_ptr@$$CBVAbstractParamDescription@VideoStreamConfig@video_stream_opencv@@@boost@@@std@@@std@@SAXAEAV?$allocator@V?$shared_ptr@$$CBVAbstractParamDescription@VideoStreamConfig@video_stream_opencv@@@boost@@@1@QEAV?$shared_ptr@$$CBVAbstractParamDescription@VideoStreamConfig@video_stream_opencv@@@boost@@$$QEAV34@@Z
	??$construct@VMat@cv@@V12@@?$_Default_allocator_traits@V?$allocator@VMat@cv@@@std@@@std@@SAXAEAV?$allocator@VMat@cv@@@1@QEAVMat@cv@@$$QEAV34@@Z
	??$convert@V?$array@N$08@boost@@@?$converter@V?$generic_list@N@assign_detail@boost@@V?$_Deque_iterator@V?$_Deque_val@U?$_Deque_simple_types@N@std@@@std@@@std@@@assign_detail@boost@@AEBA?AV?$array@N$08@2@PEBV32@Uarray_type_tag@12@@Z
	??$convert@V?$array@N$0M@@boost@@@?$converter@V?$generic_list@N@assign_detail@boost@@V?$_Deque_iterator@V?$_Deque_val@U?$_Deque_simple_types@N@std@@@std@@@std@@@assign_detail@boost@@AEBA?AV?$array@N$0M@@2@PEBV32@Uarray_type_tag@12@@Z
	??$convert_to_container@V?$array@N$08@boost@@@?$converter@V?$generic_list@N@assign_detail@boost@@V?$_Deque_iterator@V?$_Deque_val@U?$_Deque_simple_types@N@std@@@std@@@std@@@assign_detail@boost@@QEBA?AV?$array@N$08@2@XZ
	??$convert_to_container@V?$array@N$0M@@boost@@@?$converter@V?$generic_list@N@assign_detail@boost@@V?$_Deque_iterator@V?$_Deque_val@U?$_Deque_simple_types@N@std@@@std@@@std@@@assign_detail@boost@@QEBA?AV?$array@N$0M@@2@XZ
	??$createTimer@VVideoStreamNodelet@video_stream_opencv@@@NodeHandle@ros@@QEBA?AVTimer@1@VDuration@1@P8VideoStreamNodelet@video_stream_opencv@@EAAXAEBUTimerEvent@1@@ZPEAV45@_N4@Z
	??$datatype@U?$ConfigDescription_@V?$allocator@X@std@@@dynamic_reconfigure@@@message_traits@ros@@YAPEBDXZ
	??$datatype@U?$Config_@V?$allocator@X@std@@@dynamic_reconfigure@@@message_traits@ros@@YAPEBDXZ
	??$datatype@U?$ReconfigureRequest_@V?$allocator@X@std@@@dynamic_reconfigure@@@message_traits@ros@@YAPEBDXZ
	??$datatype@U?$ReconfigureRequest_@V?$allocator@X@std@@@dynamic_reconfigure@@@service_traits@ros@@YAPEBDXZ
	??$datatype@U?$ReconfigureResponse_@V?$allocator@X@std@@@dynamic_reconfigure@@@message_traits@ros@@YAPEBDXZ
	??$decay_copy@V?$bind_t@XV?$mf0@XVVideoStreamNodelet@video_stream_opencv@@@_mfi@boost@@V?$list1@V?$value@PEAVVideoStreamNodelet@video_stream_opencv@@@_bi@boost@@@_bi@3@@_bi@boost@@@thread_detail@boost@@YA?AV?$bind_t@XV?$mf0@XVVideoStreamNodelet@video_stream_opencv@@@_mfi@boost@@V?$list1@V?$value@PEAVVideoStreamNodelet@video_stream_opencv@@@_bi@boost@@@_bi@3@@_bi@1@$$QEAV231@@Z
	??$defaultServiceCreateFunction@U?$ReconfigureRequest_@V?$allocator@X@std@@@dynamic_reconfigure@@@ros@@YA?AV?$shared_ptr@U?$ReconfigureRequest_@V?$allocator@X@std@@@dynamic_reconfigure@@@boost@@XZ
	??$defaultServiceCreateFunction@U?$ReconfigureResponse_@V?$allocator@X@std@@@dynamic_reconfigure@@@ros@@YA?AV?$shared_ptr@U?$ReconfigureResponse_@V?$allocator@X@std@@@dynamic_reconfigure@@@boost@@XZ
	??$definition@U?$ConfigDescription_@V?$allocator@X@std@@@dynamic_reconfigure@@@message_traits@ros@@YAPEBDXZ
	??$definition@U?$Config_@V?$allocator@X@std@@@dynamic_reconfigure@@@message_traits@ros@@YAPEBDXZ
	??$deserialize@EUIStream@serialization@ros@@@serialization@ros@@YAXAEAUIStream@01@AEAE@Z
	??$deserialize@HUIStream@serialization@ros@@@serialization@ros@@YAXAEAUIStream@01@AEAH@Z
	??$deserialize@IUIStream@serialization@ros@@@serialization@ros@@YAXAEAUIStream@01@AEAI@Z
	??$deserialize@NUIStream@serialization@ros@@@serialization@ros@@YAXAEAUIStream@01@AEAN@Z
	??$deserialize@U?$BoolParameter_@V?$allocator@X@std@@@dynamic_reconfigure@@UIStream@serialization@ros@@@serialization@ros@@YAXAEAUIStream@01@AEAU?$BoolParameter_@V?$allocator@X@std@@@dynamic_reconfigure@@@Z
	??$deserialize@U?$BoolParameter_@V?$allocator@X@std@@@dynamic_reconfigure@@V?$allocator@U?$BoolParameter_@V?$allocator@X@std@@@dynamic_reconfigure@@@std@@UIStream@serialization@ros@@@serialization@ros@@YAXAEAUIStream@01@AEAV?$vector@U?$BoolParameter_@V?$allocator@X@std@@@dynamic_reconfigure@@V?$allocator@U?$BoolParameter_@V?$allocator@X@std@@@dynamic_reconfigure@@@std@@@std@@@Z
	??$deserialize@U?$Config_@V?$allocator@X@std@@@dynamic_reconfigure@@UIStream@serialization@ros@@@serialization@ros@@YAXAEAUIStream@01@AEAU?$Config_@V?$allocator@X@std@@@dynamic_reconfigure@@@Z
	??$deserialize@U?$DoubleParameter_@V?$allocator@X@std@@@dynamic_reconfigure@@UIStream@serialization@ros@@@serialization@ros@@YAXAEAUIStream@01@AEAU?$DoubleParameter_@V?$allocator@X@std@@@dynamic_reconfigure@@@Z
	??$deserialize@U?$DoubleParameter_@V?$allocator@X@std@@@dynamic_reconfigure@@V?$allocator@U?$DoubleParameter_@V?$allocator@X@std@@@dynamic_reconfigure@@@std@@UIStream@serialization@ros@@@serialization@ros@@YAXAEAUIStream@01@AEAV?$vector@U?$DoubleParameter_@V?$allocator@X@std@@@dynamic_reconfigure@@V?$allocator@U?$DoubleParameter_@V?$allocator@X@std@@@dynamic_reconfigure@@@std@@@std@@@Z
	??$deserialize@U?$GroupState_@V?$allocator@X@std@@@dynamic_reconfigure@@UIStream@serialization@ros@@@serialization@ros@@YAXAEAUIStream@01@AEAU?$GroupState_@V?$allocator@X@std@@@dynamic_reconfigure@@@Z
	??$deserialize@U?$GroupState_@V?$allocator@X@std@@@dynamic_reconfigure@@V?$allocator@U?$GroupState_@V?$allocator@X@std@@@dynamic_reconfigure@@@std@@UIStream@serialization@ros@@@serialization@ros@@YAXAEAUIStream@01@AEAV?$vector@U?$GroupState_@V?$allocator@X@std@@@dynamic_reconfigure@@V?$allocator@U?$GroupState_@V?$allocator@X@std@@@dynamic_reconfigure@@@std@@@std@@@Z
	??$deserialize@U?$IntParameter_@V?$allocator@X@std@@@dynamic_reconfigure@@UIStream@serialization@ros@@@serialization@ros@@YAXAEAUIStream@01@AEAU?$IntParameter_@V?$allocator@X@std@@@dynamic_reconfigure@@@Z
	??$deserialize@U?$IntParameter_@V?$allocator@X@std@@@dynamic_reconfigure@@V?$allocator@U?$IntParameter_@V?$allocator@X@std@@@dynamic_reconfigure@@@std@@UIStream@serialization@ros@@@serialization@ros@@YAXAEAUIStream@01@AEAV?$vector@U?$IntParameter_@V?$allocator@X@std@@@dynamic_reconfigure@@V?$allocator@U?$IntParameter_@V?$allocator@X@std@@@dynamic_reconfigure@@@std@@@std@@@Z
	??$deserialize@U?$ReconfigureRequest_@V?$allocator@X@std@@@dynamic_reconfigure@@UIStream@serialization@ros@@@serialization@ros@@YAXAEAUIStream@01@AEAU?$ReconfigureRequest_@V?$allocator@X@std@@@dynamic_reconfigure@@@Z
	??$deserialize@U?$StrParameter_@V?$allocator@X@std@@@dynamic_reconfigure@@UIStream@serialization@ros@@@serialization@ros@@YAXAEAUIStream@01@AEAU?$StrParameter_@V?$allocator@X@std@@@dynamic_reconfigure@@@Z
	??$deserialize@U?$StrParameter_@V?$allocator@X@std@@@dynamic_reconfigure@@V?$allocator@U?$StrParameter_@V?$allocator@X@std@@@dynamic_reconfigure@@@std@@UIStream@serialization@ros@@@serialization@ros@@YAXAEAUIStream@01@AEAV?$vector@U?$StrParameter_@V?$allocator@X@std@@@dynamic_reconfigure@@V?$allocator@U?$StrParameter_@V?$allocator@X@std@@@dynamic_reconfigure@@@std@@@std@@@Z
	??$deserialize@V?$basic_string@DU?$char_traits@D@std@@V?$allocator@D@2@@std@@UIStream@serialization@ros@@@serialization@ros@@YAXAEAUIStream@01@AEAV?$basic_string@DU?$char_traits@D@std@@V?$allocator@D@2@@std@@@Z
	??$deserializeMessage@U?$ReconfigureRequest_@V?$allocator@X@std@@@dynamic_reconfigure@@@serialization@ros@@YAXAEBVSerializedMessage@1@AEAU?$ReconfigureRequest_@V?$allocator@X@std@@@dynamic_reconfigure@@@Z
	??$destroy@N@?$_Default_allocator_traits@V?$allocator@N@std@@@std@@SAXAEAV?$allocator@N@1@QEAN@Z
	??$destroy@U?$BoolParameter_@V?$allocator@X@std@@@dynamic_reconfigure@@@?$_Default_allocator_traits@V?$allocator@U?$BoolParameter_@V?$allocator@X@std@@@dynamic_reconfigure@@@std@@@std@@SAXAEAV?$allocator@U?$BoolParameter_@V?$allocator@X@std@@@dynamic_reconfigure@@@1@QEAU?$BoolParameter_@V?$allocator@X@std@@@dynamic_reconfigure@@@Z
	??$destroy@U?$DoubleParameter_@V?$allocator@X@std@@@dynamic_reconfigure@@@?$_Default_allocator_traits@V?$allocator@U?$DoubleParameter_@V?$allocator@X@std@@@dynamic_reconfigure@@@std@@@std@@SAXAEAV?$allocator@U?$DoubleParameter_@V?$allocator@X@std@@@dynamic_reconfigure@@@1@QEAU?$DoubleParameter_@V?$allocator@X@std@@@dynamic_reconfigure@@@Z
	??$destroy@U?$GroupState_@V?$allocator@X@std@@@dynamic_reconfigure@@@?$_Default_allocator_traits@V?$allocator@U?$GroupState_@V?$allocator@X@std@@@dynamic_reconfigure@@@std@@@std@@SAXAEAV?$allocator@U?$GroupState_@V?$allocator@X@std@@@dynamic_reconfigure@@@1@QEAU?$GroupState_@V?$allocator@X@std@@@dynamic_reconfigure@@@Z
	??$destroy@U?$Group_@V?$allocator@X@std@@@dynamic_reconfigure@@@?$_Default_allocator_traits@V?$allocator@U?$Group_@V?$allocator@X@std@@@dynamic_reconfigure@@@std@@@std@@SAXAEAV?$allocator@U?$Group_@V?$allocator@X@std@@@dynamic_reconfigure@@@1@QEAU?$Group_@V?$allocator@X@std@@@dynamic_reconfigure@@@Z
	??$destroy@U?$IntParameter_@V?$allocator@X@std@@@dynamic_reconfigure@@@?$_Default_allocator_traits@V?$allocator@U?$IntParameter_@V?$allocator@X@std@@@dynamic_reconfigure@@@std@@@std@@SAXAEAV?$allocator@U?$IntParameter_@V?$allocator@X@std@@@dynamic_reconfigure@@@1@QEAU?$IntParameter_@V?$allocator@X@std@@@dynamic_reconfigure@@@Z
	??$destroy@U?$ParamDescription_@V?$allocator@X@std@@@dynamic_reconfigure@@@?$_Default_allocator_traits@V?$allocator@U?$ParamDescription_@V?$allocator@X@std@@@dynamic_reconfigure@@@std@@@std@@SAXAEAV?$allocator@U?$ParamDescription_@V?$allocator@X@std@@@dynamic_reconfigure@@@1@QEAU?$ParamDescription_@V?$allocator@X@std@@@dynamic_reconfigure@@@Z
	??$destroy@U?$StrParameter_@V?$allocator@X@std@@@dynamic_reconfigure@@@?$_Default_allocator_traits@V?$allocator@U?$StrParameter_@V?$allocator@X@std@@@dynamic_reconfigure@@@std@@@std@@SAXAEAV?$allocator@U?$StrParameter_@V?$allocator@X@std@@@dynamic_reconfigure@@@1@QEAU?$StrParameter_@V?$allocator@X@std@@@dynamic_reconfigure@@@Z
	??$destroy@U?$pair@$$CBV?$basic_string@DU?$char_traits@D@std@@V?$allocator@D@2@@std@@PEAVAbstractMetaObjectBase@impl@class_loader@@@std@@@?$_Default_allocator_traits@V?$allocator@U?$_Tree_node@U?$pair@$$CBV?$basic_string@DU?$char_traits@D@std@@V?$allocator@D@2@@std@@PEAVAbstractMetaObjectBase@impl@class_loader@@@std@@PEAX@std@@@std@@@std@@SAXAEAV?$allocator@U?$_Tree_node@U?$pair@$$CBV?$basic_string@DU?$char_traits@D@std@@V?$allocator@D@2@@std@@PEAVAbstractMetaObjectBase@impl@class_loader@@@std@@PEAX@std@@@1@QEAU?$pair@$$CBV?$basic_string@DU?$char_traits@D@std@@V?$allocator@D@2@@std@@PEAVAbstractMetaObjectBase@impl@class_loader@@@1@@Z
	??$destroy@V?$shared_ptr@$$CBVAbstractGroupDescription@VideoStreamConfig@video_stream_opencv@@@boost@@@?$_Default_allocator_traits@V?$allocator@V?$shared_ptr@$$CBVAbstractGroupDescription@VideoStreamConfig@video_stream_opencv@@@boost@@@std@@@std@@SAXAEAV?$allocator@V?$shared_ptr@$$CBVAbstractGroupDescription@VideoStreamConfig@video_stream_opencv@@@boost@@@1@QEAV?$shared_ptr@$$CBVAbstractGroupDescription@VideoStreamConfig@video_stream_opencv@@@boost@@@Z
	??$destroy@V?$shared_ptr@$$CBVAbstractParamDescription@VideoStreamConfig@video_stream_opencv@@@boost@@@?$_Default_allocator_traits@V?$allocator@V?$shared_ptr@$$CBVAbstractParamDescription@VideoStreamConfig@video_stream_opencv@@@boost@@@std@@@std@@SAXAEAV?$allocator@V?$shared_ptr@$$CBVAbstractParamDescription@VideoStreamConfig@video_stream_opencv@@@boost@@@1@QEAV?$shared_ptr@$$CBVAbstractParamDescription@VideoStreamConfig@video_stream_opencv@@@boost@@@Z
	??$destroy@VMat@cv@@@?$_Default_allocator_traits@V?$allocator@VMat@cv@@@std@@@std@@SAXAEAV?$allocator@VMat@cv@@@1@QEAVMat@cv@@@Z
	??$dispatch@V?$basic_string@_WU?$char_traits@_W@std@@V?$allocator@_W@2@@std@@@path_traits@filesystem@boost@@YAXAEBV?$basic_string@DU?$char_traits@D@std@@V?$allocator@D@2@@std@@AEAV?$basic_string@_WU?$char_traits@_W@std@@V?$allocator@_W@2@@4@@Z
	??$distance@PEAU?$ParamDescription_@V?$allocator@X@std@@@dynamic_reconfigure@@@std@@YA_JPEAU?$ParamDescription_@V?$allocator@X@std@@@dynamic_reconfigure@@0@Z
	??$distance@PEAV?$shared_ptr@$$CBVAbstractParamDescription@VideoStreamConfig@video_stream_opencv@@@boost@@@std@@YA_JPEAV?$shared_ptr@$$CBVAbstractParamDescription@VideoStreamConfig@video_stream_opencv@@@boost@@0@Z
	??$emplace_back@AEBU?$GroupState_@V?$allocator@X@std@@@dynamic_reconfigure@@@?$vector@U?$GroupState_@V?$allocator@X@std@@@dynamic_reconfigure@@V?$allocator@U?$GroupState_@V?$allocator@X@std@@@dynamic_reconfigure@@@std@@@std@@QEAA?A_TAEBU?$GroupState_@V?$allocator@X@std@@@dynamic_reconfigure@@@Z
	??$emplace_back@AEBU?$Group_@V?$allocator@X@std@@@dynamic_reconfigure@@@?$vector@U?$Group_@V?$allocator@X@std@@@dynamic_reconfigure@@V?$allocator@U?$Group_@V?$allocator@X@std@@@dynamic_reconfigure@@@std@@@std@@QEAA?A_TAEBU?$Group_@V?$allocator@X@std@@@dynamic_reconfigure@@@Z
	??$emplace_back@U?$BoolParameter_@V?$allocator@X@std@@@dynamic_reconfigure@@@?$vector@U?$BoolParameter_@V?$allocator@X@std@@@dynamic_reconfigure@@V?$allocator@U?$BoolParameter_@V?$allocator@X@std@@@dynamic_reconfigure@@@std@@@std@@QEAA?A_T$$QEAU?$BoolParameter_@V?$allocator@X@std@@@dynamic_reconfigure@@@Z
	??$emplace_back@U?$DoubleParameter_@V?$allocator@X@std@@@dynamic_reconfigure@@@?$vector@U?$DoubleParameter_@V?$allocator@X@std@@@dynamic_reconfigure@@V?$allocator@U?$DoubleParameter_@V?$allocator@X@std@@@dynamic_reconfigure@@@std@@@std@@QEAA?A_T$$QEAU?$DoubleParameter_@V?$allocator@X@std@@@dynamic_reconfigure@@@Z
	??$emplace_back@U?$IntParameter_@V?$allocator@X@std@@@dynamic_reconfigure@@@?$vector@U?$IntParameter_@V?$allocator@X@std@@@dynamic_reconfigure@@V?$allocator@U?$IntParameter_@V?$allocator@X@std@@@dynamic_reconfigure@@@std@@@std@@QEAA?A_T$$QEAU?$IntParameter_@V?$allocator@X@std@@@dynamic_reconfigure@@@Z
	??$emplace_back@U?$ParamDescription_@V?$allocator@X@std@@@dynamic_reconfigure@@@?$vector@U?$ParamDescription_@V?$allocator@X@std@@@dynamic_reconfigure@@V?$allocator@U?$ParamDescription_@V?$allocator@X@std@@@dynamic_reconfigure@@@std@@@std@@QEAA?A_T$$QEAU?$ParamDescription_@V?$allocator@X@std@@@dynamic_reconfigure@@@Z
	??$emplace_back@U?$StrParameter_@V?$allocator@X@std@@@dynamic_reconfigure@@@?$vector@U?$StrParameter_@V?$allocator@X@std@@@dynamic_reconfigure@@V?$allocator@U?$StrParameter_@V?$allocator@X@std@@@dynamic_reconfigure@@@std@@@std@@QEAA?A_T$$QEAU?$StrParameter_@V?$allocator@X@std@@@dynamic_reconfigure@@@Z
	??$emplace_back@V?$shared_ptr@$$CBVAbstractGroupDescription@VideoStreamConfig@video_stream_opencv@@@boost@@@?$vector@V?$shared_ptr@$$CBVAbstractGroupDescription@VideoStreamConfig@video_stream_opencv@@@boost@@V?$allocator@V?$shared_ptr@$$CBVAbstractGroupDescription@VideoStreamConfig@video_stream_opencv@@@boost@@@std@@@std@@QEAA?A_T$$QEAV?$shared_ptr@$$CBVAbstractGroupDescription@VideoStreamConfig@video_stream_opencv@@@boost@@@Z
	??$emplace_back@V?$shared_ptr@$$CBVAbstractParamDescription@VideoStreamConfig@video_stream_opencv@@@boost@@@?$vector@V?$shared_ptr@$$CBVAbstractParamDescription@VideoStreamConfig@video_stream_opencv@@@boost@@V?$allocator@V?$shared_ptr@$$CBVAbstractParamDescription@VideoStreamConfig@video_stream_opencv@@@boost@@@std@@@std@@QEAA?A_T$$QEAV?$shared_ptr@$$CBVAbstractParamDescription@VideoStreamConfig@video_stream_opencv@@@boost@@@Z
	??$exchange@PEAN$$T@std@@YAPEANAEAPEAN$$QEA$$T@Z
	??$exchange@PEAU?$ParamDescription_@V?$allocator@X@std@@@dynamic_reconfigure@@$$T@std@@YAPEAU?$ParamDescription_@V?$allocator@X@std@@@dynamic_reconfigure@@AEAPEAU12@$$QEA$$T@Z
	??$exchange@PEAU?$_Tree_node@U?$pair@$$CBV?$basic_string@DU?$char_traits@D@std@@V?$allocator@D@2@@std@@PEAVAbstractMetaObjectBase@impl@class_loader@@@std@@PEAX@std@@$$T@std@@YAPEAU?$_Tree_node@U?$pair@$$CBV?$basic_string@DU?$char_traits@D@std@@V?$allocator@D@2@@std@@PEAVAbstractMetaObjectBase@impl@class_loader@@@std@@PEAX@0@AEAPEAU10@$$QEA$$T@Z
	??$exchange@PEAU_Container_proxy@std@@$$T@std@@YAPEAU_Container_proxy@0@AEAPEAU10@$$QEA$$T@Z
	??$fill_n@PEAN_KN@std@@YAPEANPEAN_KAEBN@Z
	??$forward@AEAPEAD@std@@YAAEAPEADAEAPEAD@Z
	??$forward@AEAPEAN@std@@YAAEAPEANAEAPEAN@Z
	??$forward@AEAPEAU?$_Tree_node@U?$pair@$$CBV?$basic_string@DU?$char_traits@D@std@@V?$allocator@D@2@@std@@PEAVAbstractMetaObjectBase@impl@class_loader@@@std@@PEAX@std@@@std@@YAAEAPEAU?$_Tree_node@U?$pair@$$CBV?$basic_string@DU?$char_traits@D@std@@V?$allocator@D@2@@std@@PEAVAbstractMetaObjectBase@impl@class_loader@@@std@@PEAX@0@AEAPEAU10@@Z
	??$forward@AEAPEAVMat@cv@@@std@@YAAEAPEAVMat@cv@@AEAPEAV12@@Z
	??$forward@AEAU?$ParamDescription_@V?$allocator@X@std@@@dynamic_reconfigure@@@std@@YAAEAU?$ParamDescription_@V?$allocator@X@std@@@dynamic_reconfigure@@AEAU12@@Z
	??$forward@AEAU?$ReconfigureRequest_@V?$allocator@X@std@@@dynamic_reconfigure@@@std@@YAAEAU?$ReconfigureRequest_@V?$allocator@X@std@@@dynamic_reconfigure@@AEAU12@@Z
	??$forward@AEAU?$ReconfigureResponse_@V?$allocator@X@std@@@dynamic_reconfigure@@@std@@YAAEAU?$ReconfigureResponse_@V?$allocator@X@std@@@dynamic_reconfigure@@AEAU12@@Z
	??$forward@AEAV?$shared_ptr@$$CBVAbstractGroupDescription@VideoStreamConfig@video_stream_opencv@@@boost@@@std@@YAAEAV?$shared_ptr@$$CBVAbstractGroupDescription@VideoStreamConfig@video_stream_opencv@@@boost@@AEAV12@@Z
	??$forward@AEAV?$shared_ptr@$$CBVAbstractParamDescription@VideoStreamConfig@video_stream_opencv@@@boost@@@std@@YAAEAV?$shared_ptr@$$CBVAbstractParamDescription@VideoStreamConfig@video_stream_opencv@@@boost@@AEAV12@@Z
	??$forward@AEAVVideoStreamConfig@video_stream_opencv@@@std@@YAAEAVVideoStreamConfig@video_stream_opencv@@AEAV12@@Z
	??$forward@AEBN@std@@YAAEBNAEBN@Z
	??$forward@AEBQEAD@std@@YAAEBQEADAEBQEAD@Z
	??$forward@AEBQEAU?$_Tree_node@U?$pair@$$CBV?$basic_string@DU?$char_traits@D@std@@V?$allocator@D@2@@std@@PEAVAbstractMetaObjectBase@impl@class_loader@@@std@@PEAX@std@@@std@@YAAEBQEAU?$_Tree_node@U?$pair@$$CBV?$basic_string@DU?$char_traits@D@std@@V?$allocator@D@2@@std@@PEAVAbstractMetaObjectBase@impl@class_loader@@@std@@PEAX@0@AEBQEAU10@@Z
	??$forward@AEBU?$GroupState_@V?$allocator@X@std@@@dynamic_reconfigure@@@std@@YAAEBU?$GroupState_@V?$allocator@X@std@@@dynamic_reconfigure@@AEBU12@@Z
	??$forward@AEBU?$Group_@V?$allocator@X@std@@@dynamic_reconfigure@@@std@@YAAEBU?$Group_@V?$allocator@X@std@@@dynamic_reconfigure@@AEBU12@@Z
	??$forward@AEBUTimerEvent@ros@@@std@@YAAEBUTimerEvent@ros@@AEBU12@@Z
	??$forward@AEBUpiecewise_construct_t@std@@@std@@YAAEBUpiecewise_construct_t@0@AEBU10@@Z
	??$forward@AEBV?$basic_string@DU?$char_traits@D@std@@V?$allocator@D@2@@std@@@std@@YAAEBV?$basic_string@DU?$char_traits@D@std@@V?$allocator@D@2@@0@AEBV10@@Z
	??$forward@AEBVSingleSubscriberPublisher@image_transport@@@std@@YAAEBVSingleSubscriberPublisher@image_transport@@AEBV12@@Z
	??$forward@AEBVSingleSubscriberPublisher@ros@@@std@@YAAEBVSingleSubscriberPublisher@ros@@AEBV12@@Z
	??$forward@I@std@@YA$$QEAIAEAI@Z
	??$forward@N@boost@@YA$$QEANAEAN@Z
	??$forward@N@std@@YA$$QEANAEAN@Z
	??$forward@PEAN@std@@YA$$QEAPEANAEAPEAN@Z
	??$forward@PEAPEAN@std@@YA$$QEAPEAPEANAEAPEAPEAN@Z
	??$forward@PEAPEAVMat@cv@@@std@@YA$$QEAPEAPEAVMat@cv@@AEAPEAPEAV12@@Z
	??$forward@PEAU?$ParamDescription_@V?$allocator@X@std@@@dynamic_reconfigure@@@std@@YA$$QEAPEAU?$ParamDescription_@V?$allocator@X@std@@@dynamic_reconfigure@@AEAPEAU12@@Z
	??$forward@PEAU?$_Tree_node@U?$pair@$$CBV?$basic_string@DU?$char_traits@D@std@@V?$allocator@D@2@@std@@PEAVAbstractMetaObjectBase@impl@class_loader@@@std@@PEAX@std@@@std@@YA$$QEAPEAU?$_Tree_node@U?$pair@$$CBV?$basic_string@DU?$char_traits@D@std@@V?$allocator@D@2@@std@@PEAVAbstractMetaObjectBase@impl@class_loader@@@std@@PEAX@0@AEAPEAU10@@Z
	??$forward@PEAU_Container_base12@std@@@std@@YA$$QEAPEAU_Container_base12@0@AEAPEAU10@@Z
	??$forward@U?$BoolParameter_@V?$allocator@X@std@@@dynamic_reconfigure@@@std@@YA$$QEAU?$BoolParameter_@V?$allocator@X@std@@@dynamic_reconfigure@@AEAU12@@Z
	??$forward@U?$DoubleParameter_@V?$allocator@X@std@@@dynamic_reconfigure@@@std@@YA$$QEAU?$DoubleParameter_@V?$allocator@X@std@@@dynamic_reconfigure@@AEAU12@@Z
	??$forward@U?$GroupState_@V?$allocator@X@std@@@dynamic_reconfigure@@@std@@YA$$QEAU?$GroupState_@V?$allocator@X@std@@@dynamic_reconfigure@@AEAU12@@Z
	??$forward@U?$Group_@V?$allocator@X@std@@@dynamic_reconfigure@@@std@@YA$$QEAU?$Group_@V?$allocator@X@std@@@dynamic_reconfigure@@AEAU12@@Z
	??$forward@U?$IntParameter_@V?$allocator@X@std@@@dynamic_reconfigure@@@std@@YA$$QEAU?$IntParameter_@V?$allocator@X@std@@@dynamic_reconfigure@@AEAU12@@Z
	??$forward@U?$ParamDescription_@V?$allocator@X@std@@@dynamic_reconfigure@@@std@@YA$$QEAU?$ParamDescription_@V?$allocator@X@std@@@dynamic_reconfigure@@AEAU12@@Z
	??$forward@U?$StrParameter_@V?$allocator@X@std@@@dynamic_reconfigure@@@std@@YA$$QEAU?$StrParameter_@V?$allocator@X@std@@@dynamic_reconfigure@@AEAU12@@Z
	??$forward@V?$allocator@D@std@@@std@@YA$$QEAV?$allocator@D@0@AEAV10@@Z
	??$forward@V?$allocator@N@std@@@std@@YA$$QEAV?$allocator@N@0@AEAV10@@Z
	??$forward@V?$allocator@U?$ParamDescription_@V?$allocator@X@std@@@dynamic_reconfigure@@@std@@@std@@YA$$QEAV?$allocator@U?$ParamDescription_@V?$allocator@X@std@@@dynamic_reconfigure@@@0@AEAV10@@Z
	??$forward@V?$allocator@V?$shared_ptr@$$CBVAbstractGroupDescription@VideoStreamConfig@video_stream_opencv@@@boost@@@std@@@std@@YA$$QEAV?$allocator@V?$shared_ptr@$$CBVAbstractGroupDescription@VideoStreamConfig@video_stream_opencv@@@boost@@@0@AEAV10@@Z
	??$forward@V?$allocator@V?$shared_ptr@$$CBVAbstractParamDescription@VideoStreamConfig@video_stream_opencv@@@boost@@@std@@@std@@YA$$QEAV?$allocator@V?$shared_ptr@$$CBVAbstractParamDescription@VideoStreamConfig@video_stream_opencv@@@boost@@@0@AEAV10@@Z
	??$forward@V?$bind_t@XV?$mf0@XVVideoStreamNodelet@video_stream_opencv@@@_mfi@boost@@V?$list1@V?$value@PEAVVideoStreamNodelet@video_stream_opencv@@@_bi@boost@@@_bi@3@@_bi@boost@@@boost@@YA$$QEAV?$bind_t@XV?$mf0@XVVideoStreamNodelet@video_stream_opencv@@@_mfi@boost@@V?$list1@V?$value@PEAVVideoStreamNodelet@video_stream_opencv@@@_bi@boost@@@_bi@3@@_bi@0@AEAV120@@Z
	??$forward@V?$shared_ptr@$$CBVAbstractGroupDescription@VideoStreamConfig@video_stream_opencv@@@boost@@@std@@YA$$QEAV?$shared_ptr@$$CBVAbstractGroupDescription@VideoStreamConfig@video_stream_opencv@@@boost@@AEAV12@@Z
	??$forward@V?$shared_ptr@$$CBVAbstractParamDescription@VideoStreamConfig@video_stream_opencv@@@boost@@@std@@YA$$QEAV?$shared_ptr@$$CBVAbstractParamDescription@VideoStreamConfig@video_stream_opencv@@@boost@@AEAV12@@Z
	??$forward@V?$tuple@$$V@std@@@std@@YA$$QEAV?$tuple@$$V@0@AEAV10@@Z
	??$forward@V?$tuple@AEBV?$basic_string@DU?$char_traits@D@std@@V?$allocator@D@2@@std@@@std@@@std@@YA$$QEAV?$tuple@AEBV?$basic_string@DU?$char_traits@D@std@@V?$allocator@D@2@@std@@@0@AEAV10@@Z
	??$forward@VMat@cv@@@std@@YA$$QEAVMat@cv@@AEAV12@@Z
	??$forward@_N@std@@YA$$QEA_NAEA_N@Z
	??$forward_as_tuple@$$V@std@@YA?AV?$tuple@$$V@0@XZ
	??$forward_as_tuple@AEBV?$basic_string@DU?$char_traits@D@std@@V?$allocator@D@2@@std@@@std@@YA?AV?$tuple@AEBV?$basic_string@DU?$char_traits@D@std@@V?$allocator@D@2@@std@@@0@AEBV?$basic_string@DU?$char_traits@D@std@@V?$allocator@D@2@@0@@Z
	??$getFactoryMapForBaseClass@VNodelet@nodelet@@@impl@class_loader@@YAAEAV?$map@V?$basic_string@DU?$char_traits@D@std@@V?$allocator@D@2@@std@@PEAVAbstractMetaObjectBase@impl@class_loader@@U?$less@V?$basic_string@DU?$char_traits@D@std@@V?$allocator@D@2@@std@@@2@V?$allocator@U?$pair@$$CBV?$basic_string@DU?$char_traits@D@std@@V?$allocator@D@2@@std@@PEAVAbstractMetaObjectBase@impl@class_loader@@@std@@@2@@std@@XZ
	??$getGroupState@VDEFAULT@VideoStreamConfig@video_stream_opencv@@@ConfigTools@dynamic_reconfigure@@SA_NAEBU?$Config_@V?$allocator@X@std@@@1@AEBV?$basic_string@DU?$char_traits@D@std@@V?$allocator@D@2@@std@@AEAVDEFAULT@VideoStreamConfig@video_stream_opencv@@@Z
	??$getParameter@H@ConfigTools@dynamic_reconfigure@@SA_NAEBU?$Config_@V?$allocator@X@std@@@1@AEBV?$basic_string@DU?$char_traits@D@std@@V?$allocator@D@2@@std@@AEAH@Z
	??$getParameter@N@ConfigTools@dynamic_reconfigure@@SA_NAEBU?$Config_@V?$allocator@X@std@@@1@AEBV?$basic_string@DU?$char_traits@D@std@@V?$allocator@D@2@@std@@AEAN@Z
	??$getParameter@U?$BoolParameter_@V?$allocator@X@std@@@dynamic_reconfigure@@_N@ConfigTools@dynamic_reconfigure@@SA_NAEBV?$vector@U?$BoolParameter_@V?$allocator@X@std@@@dynamic_reconfigure@@V?$allocator@U?$BoolParameter_@V?$allocator@X@std@@@dynamic_reconfigure@@@std@@@std@@AEBV?$basic_string@DU?$char_traits@D@std@@V?$allocator@D@2@@3@AEA_N@Z
	??$getParameter@U?$DoubleParameter_@V?$allocator@X@std@@@dynamic_reconfigure@@N@ConfigTools@dynamic_reconfigure@@SA_NAEBV?$vector@U?$DoubleParameter_@V?$allocator@X@std@@@dynamic_reconfigure@@V?$allocator@U?$DoubleParameter_@V?$allocator@X@std@@@dynamic_reconfigure@@@std@@@std@@AEBV?$basic_string@DU?$char_traits@D@std@@V?$allocator@D@2@@3@AEAN@Z
	??$getParameter@U?$IntParameter_@V?$allocator@X@std@@@dynamic_reconfigure@@H@ConfigTools@dynamic_reconfigure@@SA_NAEBV?$vector@U?$IntParameter_@V?$allocator@X@std@@@dynamic_reconfigure@@V?$allocator@U?$IntParameter_@V?$allocator@X@std@@@dynamic_reconfigure@@@std@@@std@@AEBV?$basic_string@DU?$char_traits@D@std@@V?$allocator@D@2@@3@AEAH@Z
	??$getParameter@U?$StrParameter_@V?$allocator@X@std@@@dynamic_reconfigure@@V?$basic_string@DU?$char_traits@D@std@@V?$allocator@D@2@@std@@@ConfigTools@dynamic_reconfigure@@SA_NAEBV?$vector@U?$StrParameter_@V?$allocator@X@std@@@dynamic_reconfigure@@V?$allocator@U?$StrParameter_@V?$allocator@X@std@@@dynamic_reconfigure@@@std@@@std@@AEBV?$basic_string@DU?$char_traits@D@std@@V?$allocator@D@2@@3@AEAV43@@Z
	??$getParameter@V?$basic_string@DU?$char_traits@D@std@@V?$allocator@D@2@@std@@@ConfigTools@dynamic_reconfigure@@SA_NAEBU?$Config_@V?$allocator@X@std@@@1@AEBV?$basic_string@DU?$char_traits@D@std@@V?$allocator@D@2@@std@@AEAV34@@Z
	??$getParameter@_N@ConfigTools@dynamic_reconfigure@@SA_NAEBU?$Config_@V?$allocator@X@std@@@1@AEBV?$basic_string@DU?$char_traits@D@std@@V?$allocator@D@2@@std@@AEA_N@Z
	??$get_local_deleter@U?$checked_array_deleter@E@boost@@@detail@boost@@YAPEAU?$checked_array_deleter@E@1@PEAU21@@Z
	??$get_local_deleter@V?$sp_ms_deleter@U?$ReconfigureRequest_@V?$allocator@X@std@@@dynamic_reconfigure@@@detail@boost@@@detail@boost@@YAPEAV?$sp_ms_deleter@U?$ReconfigureRequest_@V?$allocator@X@std@@@dynamic_reconfigure@@@01@PEAV201@@Z
	??$get_local_deleter@V?$sp_ms_deleter@U?$ReconfigureResponse_@V?$allocator@X@std@@@dynamic_reconfigure@@@detail@boost@@@detail@boost@@YAPEAV?$sp_ms_deleter@U?$ReconfigureResponse_@V?$allocator@X@std@@@dynamic_reconfigure@@@01@PEAV201@@Z
	??$get_local_deleter@V?$sp_ms_deleter@V?$Server@VVideoStreamConfig@video_stream_opencv@@@dynamic_reconfigure@@@detail@boost@@@detail@boost@@YAPEAV?$sp_ms_deleter@V?$Server@VVideoStreamConfig@video_stream_opencv@@@dynamic_reconfigure@@@01@PEAV201@@Z
	??$get_local_deleter@V?$sp_ms_deleter@V?$ServiceCallbackHelperT@U?$ServiceSpec@U?$ReconfigureRequest_@V?$allocator@X@std@@@dynamic_reconfigure@@U?$ReconfigureResponse_@V?$allocator@X@std@@@2@@ros@@@ros@@@detail@boost@@@detail@boost@@YAPEAV?$sp_ms_deleter@V?$ServiceCallbackHelperT@U?$ServiceSpec@U?$ReconfigureRequest_@V?$allocator@X@std@@@dynamic_reconfigure@@U?$ReconfigureResponse_@V?$allocator@X@std@@@2@@ros@@@ros@@@01@PEAV201@@Z
	??$get_local_deleter@V?$sp_ms_deleter@VCvImage@cv_bridge@@@detail@boost@@@detail@boost@@YAPEAV?$sp_ms_deleter@VCvImage@cv_bridge@@@01@PEAV201@@Z
	??$hasHeader@U?$ConfigDescription_@V?$allocator@X@std@@@dynamic_reconfigure@@@message_traits@ros@@YA_NXZ
	??$hasHeader@U?$Config_@V?$allocator@X@std@@@dynamic_reconfigure@@@message_traits@ros@@YA_NXZ
	??$heap_delete@Uthread_data_base@detail@boost@@@detail@boost@@YAXPEAUthread_data_base@01@@Z
	??$heap_new@V?$thread_data@V?$bind_t@XV?$mf0@XVVideoStreamNodelet@video_stream_opencv@@@_mfi@boost@@V?$list1@V?$value@PEAVVideoStreamNodelet@video_stream_opencv@@@_bi@boost@@@_bi@3@@_bi@boost@@@detail@boost@@V?$bind_t@XV?$mf0@XVVideoStreamNodelet@video_stream_opencv@@@_mfi@boost@@V?$list1@V?$value@PEAVVideoStreamNodelet@video_stream_opencv@@@_bi@boost@@@_bi@3@@_bi@3@@detail@boost@@YAPEAV?$thread_data@V?$bind_t@XV?$mf0@XVVideoStreamNodelet@video_stream_opencv@@@_mfi@boost@@V?$list1@V?$value@PEAVVideoStreamNodelet@video_stream_opencv@@@_bi@boost@@@_bi@3@@_bi@boost@@@01@$$QEAV?$bind_t@XV?$mf0@XVVideoStreamNodelet@video_stream_opencv@@@_mfi@boost@@V?$list1@V?$value@PEAVVideoStreamNodelet@video_stream_opencv@@@_bi@boost@@@_bi@3@@_bi@1@@Z
	??$init@U?$ConfigDescription_@V?$allocator@X@std@@@dynamic_reconfigure@@@AdvertiseOptions@ros@@QEAAXAEBV?$basic_string@DU?$char_traits@D@std@@V?$allocator@D@2@@std@@IAEBV?$function@$$A6AXAEBVSingleSubscriberPublisher@ros@@@Z@boost@@1@Z
	??$init@U?$Config_@V?$allocator@X@std@@@dynamic_reconfigure@@@AdvertiseOptions@ros@@QEAAXAEBV?$basic_string@DU?$char_traits@D@std@@V?$allocator@D@2@@std@@IAEBV?$function@$$A6AXAEBVSingleSubscriberPublisher@ros@@@Z@boost@@1@Z
	??$init@U?$ReconfigureRequest_@V?$allocator@X@std@@@dynamic_reconfigure@@U?$ReconfigureResponse_@V?$allocator@X@std@@@2@@AdvertiseServiceOptions@ros@@QEAAXAEBV?$basic_string@DU?$char_traits@D@std@@V?$allocator@D@2@@std@@AEBV?$function@$$A6A_NAEAU?$ReconfigureRequest_@V?$allocator@X@std@@@dynamic_reconfigure@@AEAU?$ReconfigureResponse_@V?$allocator@X@std@@@2@@Z@boost@@@Z
	??$list_of@N@assign@boost@@YA?AV?$generic_list@N@assign_detail@1@$$QEAN@Z
	??$make_shared@U?$ReconfigureRequest_@V?$allocator@X@std@@@dynamic_reconfigure@@$$V@boost@@YA?AV?$shared_ptr@U?$ReconfigureRequest_@V?$allocator@X@std@@@dynamic_reconfigure@@@0@XZ
	??$make_shared@U?$ReconfigureResponse_@V?$allocator@X@std@@@dynamic_reconfigure@@$$V@boost@@YA?AV?$shared_ptr@U?$ReconfigureResponse_@V?$allocator@X@std@@@dynamic_reconfigure@@@0@XZ
	??$make_shared@V?$Server@VVideoStreamConfig@video_stream_opencv@@@dynamic_reconfigure@@AEAVNodeHandle@ros@@@boost@@YA?AV?$shared_ptr@V?$Server@VVideoStreamConfig@video_stream_opencv@@@dynamic_reconfigure@@@0@AEAVNodeHandle@ros@@@Z
	??$make_shared@V?$ServiceCallbackHelperT@U?$ServiceSpec@U?$ReconfigureRequest_@V?$allocator@X@std@@@dynamic_reconfigure@@U?$ReconfigureResponse_@V?$allocator@X@std@@@2@@ros@@@ros@@AEBV?$function@$$A6A_NAEAU?$ReconfigureRequest_@V?$allocator@X@std@@@dynamic_reconfigure@@AEAU?$ReconfigureResponse_@V?$allocator@X@std@@@2@@Z@boost@@@boost@@YA?AV?$shared_ptr@V?$ServiceCallbackHelperT@U?$ServiceSpec@U?$ReconfigureRequest_@V?$allocator@X@std@@@dynamic_reconfigure@@U?$ReconfigureResponse_@V?$allocator@X@std@@@2@@ros@@@ros@@@0@AEBV?$function@$$A6A_NAEAU?$ReconfigureRequest_@V?$allocator@X@std@@@dynamic_reconfigure@@AEAU?$ReconfigureResponse_@V?$allocator@X@std@@@2@@Z@0@@Z
	??$make_shared@VCvImage@cv_bridge@@AEAU?$Header_@V?$allocator@X@std@@@std_msgs@@AEAY04$$CBDAEAVMat@cv@@@boost@@YA?AV?$shared_ptr@VCvImage@cv_bridge@@@0@AEAU?$Header_@V?$allocator@X@std@@@std_msgs@@AEAY04$$CBDAEAVMat@cv@@@Z
	??$make_thread_info@V?$bind_t@XV?$mf0@XVVideoStreamNodelet@video_stream_opencv@@@_mfi@boost@@V?$list1@V?$value@PEAVVideoStreamNodelet@video_stream_opencv@@@_bi@boost@@@_bi@3@@_bi@boost@@@thread@boost@@CA?AV?$intrusive_ptr@Uthread_data_base@detail@boost@@@1@$$QEAV?$bind_t@XV?$mf0@XVVideoStreamNodelet@video_stream_opencv@@@_mfi@boost@@V?$list1@V?$value@PEAVVideoStreamNodelet@video_stream_opencv@@@_bi@boost@@@_bi@3@@_bi@1@@Z
	??$max@PEAD@std@@YAAEBQEADAEBQEAD0@Z
	??$max@_K@std@@YAAEB_KAEB_K0@Z
	??$md5sum@U?$ConfigDescription_@V?$allocator@X@std@@@dynamic_reconfigure@@@message_traits@ros@@YAPEBDXZ
	??$md5sum@U?$Config_@V?$allocator@X@std@@@dynamic_reconfigure@@@message_traits@ros@@YAPEBDXZ
	??$md5sum@U?$ReconfigureRequest_@V?$allocator@X@std@@@dynamic_reconfigure@@@service_traits@ros@@YAPEBDXZ
	??$md5sum@U?$ReconfigureResponse_@V?$allocator@X@std@@@dynamic_reconfigure@@@service_traits@ros@@YAPEBDXZ
	??$min@_K@std@@YAAEB_KAEB_K0@Z
	??$move@AEAN@boost@@YA$$QEANAEAN@Z
	??$move@AEAN@std@@YA$$QEANAEAN@Z
	??$move@AEAPEAE@std@@YA$$QEAPEAEAEAPEAE@Z
	??$move@AEAPEAU?$Image_@V?$allocator@X@std@@@sensor_msgs@@@std@@YA$$QEAPEAU?$Image_@V?$allocator@X@std@@@sensor_msgs@@AEAPEAU12@@Z
	??$move@AEAPEAU?$ReconfigureRequest_@V?$allocator@X@std@@@dynamic_reconfigure@@@std@@YA$$QEAPEAU?$ReconfigureRequest_@V?$allocator@X@std@@@dynamic_reconfigure@@AEAPEAU12@@Z
	??$move@AEAPEAU?$ReconfigureResponse_@V?$allocator@X@std@@@dynamic_reconfigure@@@std@@YA$$QEAPEAU?$ReconfigureResponse_@V?$allocator@X@std@@@dynamic_reconfigure@@AEAPEAU12@@Z
	??$move@AEAPEAV?$Server@VVideoStreamConfig@video_stream_opencv@@@dynamic_reconfigure@@@std@@YA$$QEAPEAV?$Server@VVideoStreamConfig@video_stream_opencv@@@dynamic_reconfigure@@AEAPEAV12@@Z
	??$move@AEAPEAV?$map@V?$basic_string@DU?$char_traits@D@std@@V?$allocator@D@2@@std@@V12@U?$less@V?$basic_string@DU?$char_traits@D@std@@V?$allocator@D@2@@std@@@2@V?$allocator@U?$pair@$$CBV?$basic_string@DU?$char_traits@D@std@@V?$allocator@D@2@@std@@V12@@std@@@2@@std@@@std@@YA$$QEAPEAV?$map@V?$basic_string@DU?$char_traits@D@std@@V?$allocator@D@2@@std@@V12@U?$less@V?$basic_string@DU?$char_traits@D@std@@V?$allocator@D@2@@std@@@2@V?$allocator@U?$pair@$$CBV?$basic_string@DU?$char_traits@D@std@@V?$allocator@D@2@@std@@V12@@std@@@2@@0@AEAPEAV10@@Z
	??$move@AEAPEAVCvImage@cv_bridge@@@std@@YA$$QEAPEAVCvImage@cv_bridge@@AEAPEAV12@@Z
	??$move@AEAPEAVNodeHandle@ros@@@std@@YA$$QEAPEAVNodeHandle@ros@@AEAPEAV12@@Z
	??$move@AEAPEAVServiceCallbackHelper@ros@@@std@@YA$$QEAPEAVServiceCallbackHelper@ros@@AEAPEAV12@@Z
	??$move@AEAPEAVVideoCapture@cv@@@std@@YA$$QEAPEAVVideoCapture@cv@@AEAPEAV12@@Z
	??$move@AEAPEBVAbstractParamDescription@VideoStreamConfig@video_stream_opencv@@@std@@YA$$QEAPEBVAbstractParamDescription@VideoStreamConfig@video_stream_opencv@@AEAPEBV123@@Z
	??$move@AEAU?$BoolParameter_@V?$allocator@X@std@@@dynamic_reconfigure@@@std@@YA$$QEAU?$BoolParameter_@V?$allocator@X@std@@@dynamic_reconfigure@@AEAU12@@Z
	??$move@AEAU?$DoubleParameter_@V?$allocator@X@std@@@dynamic_reconfigure@@@std@@YA$$QEAU?$DoubleParameter_@V?$allocator@X@std@@@dynamic_reconfigure@@AEAU12@@Z
	??$move@AEAU?$GroupState_@V?$allocator@X@std@@@dynamic_reconfigure@@@std@@YA$$QEAU?$GroupState_@V?$allocator@X@std@@@dynamic_reconfigure@@AEAU12@@Z
	??$move@AEAU?$Group_@V?$allocator@X@std@@@dynamic_reconfigure@@@std@@YA$$QEAU?$Group_@V?$allocator@X@std@@@dynamic_reconfigure@@AEAU12@@Z
	??$move@AEAU?$IntParameter_@V?$allocator@X@std@@@dynamic_reconfigure@@@std@@YA$$QEAU?$IntParameter_@V?$allocator@X@std@@@dynamic_reconfigure@@AEAU12@@Z
	??$move@AEAU?$ParamDescription_@V?$allocator@X@std@@@dynamic_reconfigure@@@std@@YA$$QEAU?$ParamDescription_@V?$allocator@X@std@@@dynamic_reconfigure@@AEAU12@@Z
	??$move@AEAU?$StrParameter_@V?$allocator@X@std@@@dynamic_reconfigure@@@std@@YA$$QEAU?$StrParameter_@V?$allocator@X@std@@@dynamic_reconfigure@@AEAU12@@Z
	??$move@AEAV?$allocator@D@std@@@std@@YA$$QEAV?$allocator@D@0@AEAV10@@Z
	??$move@AEAV?$allocator@N@std@@@std@@YA$$QEAV?$allocator@N@0@AEAV10@@Z
	??$move@AEAV?$allocator@U?$ParamDescription_@V?$allocator@X@std@@@dynamic_reconfigure@@@std@@@std@@YA$$QEAV?$allocator@U?$ParamDescription_@V?$allocator@X@std@@@dynamic_reconfigure@@@0@AEAV10@@Z
	??$move@AEAV?$basic_string@DU?$char_traits@D@std@@V?$allocator@D@2@@std@@@std@@YA$$QEAV?$basic_string@DU?$char_traits@D@std@@V?$allocator@D@2@@0@AEAV10@@Z
	??$move@AEAV?$shared_ptr@$$CBVAbstractGroupDescription@VideoStreamConfig@video_stream_opencv@@@boost@@@std@@YA$$QEAV?$shared_ptr@$$CBVAbstractGroupDescription@VideoStreamConfig@video_stream_opencv@@@boost@@AEAV12@@Z
	??$move@AEAV?$shared_ptr@$$CBVAbstractParamDescription@VideoStreamConfig@video_stream_opencv@@@boost@@@std@@YA$$QEAV?$shared_ptr@$$CBVAbstractParamDescription@VideoStreamConfig@video_stream_opencv@@@boost@@AEAV12@@Z
	??$move@AEAV?$tuple@AEBV?$basic_string@DU?$char_traits@D@std@@V?$allocator@D@2@@std@@@std@@@std@@YA$$QEAV?$tuple@AEBV?$basic_string@DU?$char_traits@D@std@@V?$allocator@D@2@@std@@@0@AEAV10@@Z
	??$move@AEAVMat@cv@@@std@@YA$$QEAVMat@cv@@AEAV12@@Z
	??$next@E@IStream@serialization@ros@@QEAAXAEAE@Z
	??$next@E@LStream@serialization@ros@@QEAAXAEBE@Z
	??$next@E@OStream@serialization@ros@@QEAAXAEBE@Z
	??$next@H@IStream@serialization@ros@@QEAAXAEAH@Z
	??$next@H@LStream@serialization@ros@@QEAAXAEBH@Z
	??$next@H@OStream@serialization@ros@@QEAAXAEBH@Z
	??$next@I@IStream@serialization@ros@@QEAAXAEAI@Z
	??$next@I@LStream@serialization@ros@@QEAAXAEBI@Z
	??$next@I@OStream@serialization@ros@@QEAAXAEBI@Z
	??$next@N@IStream@serialization@ros@@QEAAXAEAN@Z
	??$next@N@LStream@serialization@ros@@QEAAXAEBN@Z
	??$next@N@OStream@serialization@ros@@QEAAXAEBN@Z
	??$next@PEAU?$ParamDescription_@V?$allocator@X@std@@@dynamic_reconfigure@@@std@@YAPEAU?$ParamDescription_@V?$allocator@X@std@@@dynamic_reconfigure@@PEAU12@_J@Z
	??$next@PEAV?$shared_ptr@$$CBVAbstractParamDescription@VideoStreamConfig@video_stream_opencv@@@boost@@@std@@YAPEAV?$shared_ptr@$$CBVAbstractParamDescription@VideoStreamConfig@video_stream_opencv@@@boost@@PEAV12@_J@Z
	??$next@U?$BoolParameter_@V?$allocator@X@std@@@dynamic_reconfigure@@@IStream@serialization@ros@@QEAAXAEAU?$BoolParameter_@V?$allocator@X@std@@@dynamic_reconfigure@@@Z
	??$next@U?$BoolParameter_@V?$allocator@X@std@@@dynamic_reconfigure@@@OStream@serialization@ros@@QEAAXAEBU?$BoolParameter_@V?$allocator@X@std@@@dynamic_reconfigure@@@Z
	??$next@U?$Config_@V?$allocator@X@std@@@dynamic_reconfigure@@@IStream@serialization@ros@@QEAAXAEAU?$Config_@V?$allocator@X@std@@@dynamic_reconfigure@@@Z
	??$next@U?$Config_@V?$allocator@X@std@@@dynamic_reconfigure@@@LStream@serialization@ros@@QEAAXAEBU?$Config_@V?$allocator@X@std@@@dynamic_reconfigure@@@Z
	??$next@U?$Config_@V?$allocator@X@std@@@dynamic_reconfigure@@@OStream@serialization@ros@@QEAAXAEBU?$Config_@V?$allocator@X@std@@@dynamic_reconfigure@@@Z
	??$next@U?$DoubleParameter_@V?$allocator@X@std@@@dynamic_reconfigure@@@IStream@serialization@ros@@QEAAXAEAU?$DoubleParameter_@V?$allocator@X@std@@@dynamic_reconfigure@@@Z
	??$next@U?$DoubleParameter_@V?$allocator@X@std@@@dynamic_reconfigure@@@OStream@serialization@ros@@QEAAXAEBU?$DoubleParameter_@V?$allocator@X@std@@@dynamic_reconfigure@@@Z
	??$next@U?$GroupState_@V?$allocator@X@std@@@dynamic_reconfigure@@@IStream@serialization@ros@@QEAAXAEAU?$GroupState_@V?$allocator@X@std@@@dynamic_reconfigure@@@Z
	??$next@U?$GroupState_@V?$allocator@X@std@@@dynamic_reconfigure@@@OStream@serialization@ros@@QEAAXAEBU?$GroupState_@V?$allocator@X@std@@@dynamic_reconfigure@@@Z
	??$next@U?$Group_@V?$allocator@X@std@@@dynamic_reconfigure@@@OStream@serialization@ros@@QEAAXAEBU?$Group_@V?$allocator@X@std@@@dynamic_reconfigure@@@Z
	??$next@U?$IntParameter_@V?$allocator@X@std@@@dynamic_reconfigure@@@IStream@serialization@ros@@QEAAXAEAU?$IntParameter_@V?$allocator@X@std@@@dynamic_reconfigure@@@Z
	??$next@U?$IntParameter_@V?$allocator@X@std@@@dynamic_reconfigure@@@OStream@serialization@ros@@QEAAXAEBU?$IntParameter_@V?$allocator@X@std@@@dynamic_reconfigure@@@Z
	??$next@U?$ParamDescription_@V?$allocator@X@std@@@dynamic_reconfigure@@@OStream@serialization@ros@@QEAAXAEBU?$ParamDescription_@V?$allocator@X@std@@@dynamic_reconfigure@@@Z
	??$next@U?$StrParameter_@V?$allocator@X@std@@@dynamic_reconfigure@@@IStream@serialization@ros@@QEAAXAEAU?$StrParameter_@V?$allocator@X@std@@@dynamic_reconfigure@@@Z
	??$next@U?$StrParameter_@V?$allocator@X@std@@@dynamic_reconfigure@@@OStream@serialization@ros@@QEAAXAEBU?$StrParameter_@V?$allocator@X@std@@@dynamic_reconfigure@@@Z
	??$next@V?$basic_string@DU?$char_traits@D@std@@V?$allocator@D@2@@std@@@IStream@serialization@ros@@QEAAXAEAV?$basic_string@DU?$char_traits@D@std@@V?$allocator@D@2@@std@@@Z
	??$next@V?$basic_string@DU?$char_traits@D@std@@V?$allocator@D@2@@std@@@LStream@serialization@ros@@QEAAXAEBV?$basic_string@DU?$char_traits@D@std@@V?$allocator@D@2@@std@@@Z
	??$next@V?$basic_string@DU?$char_traits@D@std@@V?$allocator@D@2@@std@@@OStream@serialization@ros@@QEAAXAEBV?$basic_string@DU?$char_traits@D@std@@V?$allocator@D@2@@std@@@Z
	??$next@V?$vector@U?$BoolParameter_@V?$allocator@X@std@@@dynamic_reconfigure@@V?$allocator@U?$BoolParameter_@V?$allocator@X@std@@@dynamic_reconfigure@@@std@@@std@@@IStream@serialization@ros@@QEAAXAEAV?$vector@U?$BoolParameter_@V?$allocator@X@std@@@dynamic_reconfigure@@V?$allocator@U?$BoolParameter_@V?$allocator@X@std@@@dynamic_reconfigure@@@std@@@std@@@Z
	??$next@V?$vector@U?$BoolParameter_@V?$allocator@X@std@@@dynamic_reconfigure@@V?$allocator@U?$BoolParameter_@V?$allocator@X@std@@@dynamic_reconfigure@@@std@@@std@@@LStream@serialization@ros@@QEAAXAEBV?$vector@U?$BoolParameter_@V?$allocator@X@std@@@dynamic_reconfigure@@V?$allocator@U?$BoolParameter_@V?$allocator@X@std@@@dynamic_reconfigure@@@std@@@std@@@Z
	??$next@V?$vector@U?$BoolParameter_@V?$allocator@X@std@@@dynamic_reconfigure@@V?$allocator@U?$BoolParameter_@V?$allocator@X@std@@@dynamic_reconfigure@@@std@@@std@@@OStream@serialization@ros@@QEAAXAEBV?$vector@U?$BoolParameter_@V?$allocator@X@std@@@dynamic_reconfigure@@V?$allocator@U?$BoolParameter_@V?$allocator@X@std@@@dynamic_reconfigure@@@std@@@std@@@Z
	??$next@V?$vector@U?$DoubleParameter_@V?$allocator@X@std@@@dynamic_reconfigure@@V?$allocator@U?$DoubleParameter_@V?$allocator@X@std@@@dynamic_reconfigure@@@std@@@std@@@IStream@serialization@ros@@QEAAXAEAV?$vector@U?$DoubleParameter_@V?$allocator@X@std@@@dynamic_reconfigure@@V?$allocator@U?$DoubleParameter_@V?$allocator@X@std@@@dynamic_reconfigure@@@std@@@std@@@Z
	??$next@V?$vector@U?$DoubleParameter_@V?$allocator@X@std@@@dynamic_reconfigure@@V?$allocator@U?$DoubleParameter_@V?$allocator@X@std@@@dynamic_reconfigure@@@std@@@std@@@LStream@serialization@ros@@QEAAXAEBV?$vector@U?$DoubleParameter_@V?$allocator@X@std@@@dynamic_reconfigure@@V?$allocator@U?$DoubleParameter_@V?$allocator@X@std@@@dynamic_reconfigure@@@std@@@std@@@Z
	??$next@V?$vector@U?$DoubleParameter_@V?$allocator@X@std@@@dynamic_reconfigure@@V?$allocator@U?$DoubleParameter_@V?$allocator@X@std@@@dynamic_reconfigure@@@std@@@std@@@OStream@serialization@ros@@QEAAXAEBV?$vector@U?$DoubleParameter_@V?$allocator@X@std@@@dynamic_reconfigure@@V?$allocator@U?$DoubleParameter_@V?$allocator@X@std@@@dynamic_reconfigure@@@std@@@std@@@Z
	??$next@V?$vector@U?$GroupState_@V?$allocator@X@std@@@dynamic_reconfigure@@V?$allocator@U?$GroupState_@V?$allocator@X@std@@@dynamic_reconfigure@@@std@@@std@@@IStream@serialization@ros@@QEAAXAEAV?$vector@U?$GroupState_@V?$allocator@X@std@@@dynamic_reconfigure@@V?$allocator@U?$GroupState_@V?$allocator@X@std@@@dynamic_reconfigure@@@std@@@std@@@Z
	??$next@V?$vector@U?$GroupState_@V?$allocator@X@std@@@dynamic_reconfigure@@V?$allocator@U?$GroupState_@V?$allocator@X@std@@@dynamic_reconfigure@@@std@@@std@@@LStream@serialization@ros@@QEAAXAEBV?$vector@U?$GroupState_@V?$allocator@X@std@@@dynamic_reconfigure@@V?$allocator@U?$GroupState_@V?$allocator@X@std@@@dynamic_reconfigure@@@std@@@std@@@Z
	??$next@V?$vector@U?$GroupState_@V?$allocator@X@std@@@dynamic_reconfigure@@V?$allocator@U?$GroupState_@V?$allocator@X@std@@@dynamic_reconfigure@@@std@@@std@@@OStream@serialization@ros@@QEAAXAEBV?$vector@U?$GroupState_@V?$allocator@X@std@@@dynamic_reconfigure@@V?$allocator@U?$GroupState_@V?$allocator@X@std@@@dynamic_reconfigure@@@std@@@std@@@Z
	??$next@V?$vector@U?$Group_@V?$allocator@X@std@@@dynamic_reconfigure@@V?$allocator@U?$Group_@V?$allocator@X@std@@@dynamic_reconfigure@@@std@@@std@@@LStream@serialization@ros@@QEAAXAEBV?$vector@U?$Group_@V?$allocator@X@std@@@dynamic_reconfigure@@V?$allocator@U?$Group_@V?$allocator@X@std@@@dynamic_reconfigure@@@std@@@std@@@Z
	??$next@V?$vector@U?$Group_@V?$allocator@X@std@@@dynamic_reconfigure@@V?$allocator@U?$Group_@V?$allocator@X@std@@@dynamic_reconfigure@@@std@@@std@@@OStream@serialization@ros@@QEAAXAEBV?$vector@U?$Group_@V?$allocator@X@std@@@dynamic_reconfigure@@V?$allocator@U?$Group_@V?$allocator@X@std@@@dynamic_reconfigure@@@std@@@std@@@Z
	??$next@V?$vector@U?$IntParameter_@V?$allocator@X@std@@@dynamic_reconfigure@@V?$allocator@U?$IntParameter_@V?$allocator@X@std@@@dynamic_reconfigure@@@std@@@std@@@IStream@serialization@ros@@QEAAXAEAV?$vector@U?$IntParameter_@V?$allocator@X@std@@@dynamic_reconfigure@@V?$allocator@U?$IntParameter_@V?$allocator@X@std@@@dynamic_reconfigure@@@std@@@std@@@Z
	??$next@V?$vector@U?$IntParameter_@V?$allocator@X@std@@@dynamic_reconfigure@@V?$allocator@U?$IntParameter_@V?$allocator@X@std@@@dynamic_reconfigure@@@std@@@std@@@LStream@serialization@ros@@QEAAXAEBV?$vector@U?$IntParameter_@V?$allocator@X@std@@@dynamic_reconfigure@@V?$allocator@U?$IntParameter_@V?$allocator@X@std@@@dynamic_reconfigure@@@std@@@std@@@Z
	??$next@V?$vector@U?$IntParameter_@V?$allocator@X@std@@@dynamic_reconfigure@@V?$allocator@U?$IntParameter_@V?$allocator@X@std@@@dynamic_reconfigure@@@std@@@std@@@OStream@serialization@ros@@QEAAXAEBV?$vector@U?$IntParameter_@V?$allocator@X@std@@@dynamic_reconfigure@@V?$allocator@U?$IntParameter_@V?$allocator@X@std@@@dynamic_reconfigure@@@std@@@std@@@Z
	??$next@V?$vector@U?$ParamDescription_@V?$allocator@X@std@@@dynamic_reconfigure@@V?$allocator@U?$ParamDescription_@V?$allocator@X@std@@@dynamic_reconfigure@@@std@@@std@@@LStream@serialization@ros@@QEAAXAEBV?$vector@U?$ParamDescription_@V?$allocator@X@std@@@dynamic_reconfigure@@V?$allocator@U?$ParamDescription_@V?$allocator@X@std@@@dynamic_reconfigure@@@std@@@std@@@Z
	??$next@V?$vector@U?$ParamDescription_@V?$allocator@X@std@@@dynamic_reconfigure@@V?$allocator@U?$ParamDescription_@V?$allocator@X@std@@@dynamic_reconfigure@@@std@@@std@@@OStream@serialization@ros@@QEAAXAEBV?$vector@U?$ParamDescription_@V?$allocator@X@std@@@dynamic_reconfigure@@V?$allocator@U?$ParamDescription_@V?$allocator@X@std@@@dynamic_reconfigure@@@std@@@std@@@Z
	??$next@V?$vector@U?$StrParameter_@V?$allocator@X@std@@@dynamic_reconfigure@@V?$allocator@U?$StrParameter_@V?$allocator@X@std@@@dynamic_reconfigure@@@std@@@std@@@IStream@serialization@ros@@QEAAXAEAV?$vector@U?$StrParameter_@V?$allocator@X@std@@@dynamic_reconfigure@@V?$allocator@U?$StrParameter_@V?$allocator@X@std@@@dynamic_reconfigure@@@std@@@std@@@Z
	??$next@V?$vector@U?$StrParameter_@V?$allocator@X@std@@@dynamic_reconfigure@@V?$allocator@U?$StrParameter_@V?$allocator@X@std@@@dynamic_reconfigure@@@std@@@std@@@LStream@serialization@ros@@QEAAXAEBV?$vector@U?$StrParameter_@V?$allocator@X@std@@@dynamic_reconfigure@@V?$allocator@U?$StrParameter_@V?$allocator@X@std@@@dynamic_reconfigure@@@std@@@std@@@Z
	??$next@V?$vector@U?$StrParameter_@V?$allocator@X@std@@@dynamic_reconfigure@@V?$allocator@U?$StrParameter_@V?$allocator@X@std@@@dynamic_reconfigure@@@std@@@std@@@OStream@serialization@ros@@QEAAXAEBV?$vector@U?$StrParameter_@V?$allocator@X@std@@@dynamic_reconfigure@@V?$allocator@U?$StrParameter_@V?$allocator@X@std@@@dynamic_reconfigure@@@std@@@std@@@Z
	??$param@V?$basic_string@DU?$char_traits@D@std@@V?$allocator@D@2@@std@@@NodeHandle@ros@@QEBA_NAEBV?$basic_string@DU?$char_traits@D@std@@V?$allocator@D@2@@std@@AEAV23@0@Z
	??$publish@U?$ConfigDescription_@V?$allocator@X@std@@@dynamic_reconfigure@@@Publisher@ros@@QEBAXAEBU?$ConfigDescription_@V?$allocator@X@std@@@dynamic_reconfigure@@@Z
	??$publish@U?$Config_@V?$allocator@X@std@@@dynamic_reconfigure@@@Publisher@ros@@QEBAXAEBU?$Config_@V?$allocator@X@std@@@dynamic_reconfigure@@@Z
	??$quoted@DU?$char_traits@D@std@@V?$allocator@D@2@@io@boost@@YA?AU?$quoted_proxy@PEBV?$basic_string@DU?$char_traits@D@std@@V?$allocator@D@2@@std@@D@detail@01@AEBV?$basic_string@DU?$char_traits@D@std@@V?$allocator@D@2@@std@@DD@Z
	??$quoted_out@DU?$char_traits@D@std@@$$CBV?$basic_string@DU?$char_traits@D@std@@V?$allocator@D@2@@2@@detail@io@boost@@YAAEAV?$basic_ostream@DU?$char_traits@D@std@@@std@@AEAV34@PEBV?$basic_string@DU?$char_traits@D@std@@V?$allocator@D@2@@4@DD@Z
	??$quoted_put@DU?$char_traits@D@std@@@detail@io@boost@@YA_NAEAV?$basic_streambuf@DU?$char_traits@D@std@@@std@@PEBD_K2DD@Z
	??$quoted_start@DV?$basic_string@DU?$char_traits@D@std@@V?$allocator@D@2@@std@@@detail@io@boost@@YA?AU?$quoted_state@D@012@PEBV?$basic_string@DU?$char_traits@D@std@@V?$allocator@D@2@@std@@DD@Z
	??$read@UIStream@serialization@ros@@@?$Serializer@E@serialization@ros@@SAXAEAUIStream@12@AEAE@Z
	??$read@UIStream@serialization@ros@@@?$Serializer@H@serialization@ros@@SAXAEAUIStream@12@AEAH@Z
	??$read@UIStream@serialization@ros@@@?$Serializer@I@serialization@ros@@SAXAEAUIStream@12@AEAI@Z
	??$read@UIStream@serialization@ros@@@?$Serializer@N@serialization@ros@@SAXAEAUIStream@12@AEAN@Z
	??$read@UIStream@serialization@ros@@@?$Serializer@V?$basic_string@DU?$char_traits@D@std@@V?$allocator@D@2@@std@@@serialization@ros@@SAXAEAUIStream@12@AEAV?$basic_string@DU?$char_traits@D@std@@V?$allocator@D@2@@std@@@Z
	??$read@UIStream@serialization@ros@@@?$VectorSerializer@U?$BoolParameter_@V?$allocator@X@std@@@dynamic_reconfigure@@V?$allocator@U?$BoolParameter_@V?$allocator@X@std@@@dynamic_reconfigure@@@std@@X@serialization@ros@@SAXAEAUIStream@12@AEAV?$vector@U?$BoolParameter_@V?$allocator@X@std@@@dynamic_reconfigure@@V?$allocator@U?$BoolParameter_@V?$allocator@X@std@@@dynamic_reconfigure@@@std@@@std@@@Z
	??$read@UIStream@serialization@ros@@@?$VectorSerializer@U?$DoubleParameter_@V?$allocator@X@std@@@dynamic_reconfigure@@V?$allocator@U?$DoubleParameter_@V?$allocator@X@std@@@dynamic_reconfigure@@@std@@X@serialization@ros@@SAXAEAUIStream@12@AEAV?$vector@U?$DoubleParameter_@V?$allocator@X@std@@@dynamic_reconfigure@@V?$allocator@U?$DoubleParameter_@V?$allocator@X@std@@@dynamic_reconfigure@@@std@@@std@@@Z
	??$read@UIStream@serialization@ros@@@?$VectorSerializer@U?$GroupState_@V?$allocator@X@std@@@dynamic_reconfigure@@V?$allocator@U?$GroupState_@V?$allocator@X@std@@@dynamic_reconfigure@@@std@@X@serialization@ros@@SAXAEAUIStream@12@AEAV?$vector@U?$GroupState_@V?$allocator@X@std@@@dynamic_reconfigure@@V?$allocator@U?$GroupState_@V?$allocator@X@std@@@dynamic_reconfigure@@@std@@@std@@@Z
	??$read@UIStream@serialization@ros@@@?$VectorSerializer@U?$IntParameter_@V?$allocator@X@std@@@dynamic_reconfigure@@V?$allocator@U?$IntParameter_@V?$allocator@X@std@@@dynamic_reconfigure@@@std@@X@serialization@ros@@SAXAEAUIStream@12@AEAV?$vector@U?$IntParameter_@V?$allocator@X@std@@@dynamic_reconfigure@@V?$allocator@U?$IntParameter_@V?$allocator@X@std@@@dynamic_reconfigure@@@std@@@std@@@Z
	??$read@UIStream@serialization@ros@@@?$VectorSerializer@U?$StrParameter_@V?$allocator@X@std@@@dynamic_reconfigure@@V?$allocator@U?$StrParameter_@V?$allocator@X@std@@@dynamic_reconfigure@@@std@@X@serialization@ros@@SAXAEAUIStream@12@AEAV?$vector@U?$StrParameter_@V?$allocator@X@std@@@dynamic_reconfigure@@V?$allocator@U?$StrParameter_@V?$allocator@X@std@@@dynamic_reconfigure@@@std@@@std@@@Z
	??$read@UIStream@serialization@ros@@U?$BoolParameter_@V?$allocator@X@std@@@dynamic_reconfigure@@@?$Serializer@U?$BoolParameter_@V?$allocator@X@std@@@dynamic_reconfigure@@@serialization@ros@@SAXAEAUIStream@12@AEAU?$BoolParameter_@V?$allocator@X@std@@@dynamic_reconfigure@@@Z
	??$read@UIStream@serialization@ros@@U?$Config_@V?$allocator@X@std@@@dynamic_reconfigure@@@?$Serializer@U?$Config_@V?$allocator@X@std@@@dynamic_reconfigure@@@serialization@ros@@SAXAEAUIStream@12@AEAU?$Config_@V?$allocator@X@std@@@dynamic_reconfigure@@@Z
	??$read@UIStream@serialization@ros@@U?$DoubleParameter_@V?$allocator@X@std@@@dynamic_reconfigure@@@?$Serializer@U?$DoubleParameter_@V?$allocator@X@std@@@dynamic_reconfigure@@@serialization@ros@@SAXAEAUIStream@12@AEAU?$DoubleParameter_@V?$allocator@X@std@@@dynamic_reconfigure@@@Z
	??$read@UIStream@serialization@ros@@U?$GroupState_@V?$allocator@X@std@@@dynamic_reconfigure@@@?$Serializer@U?$GroupState_@V?$allocator@X@std@@@dynamic_reconfigure@@@serialization@ros@@SAXAEAUIStream@12@AEAU?$GroupState_@V?$allocator@X@std@@@dynamic_reconfigure@@@Z
	??$read@UIStream@serialization@ros@@U?$IntParameter_@V?$allocator@X@std@@@dynamic_reconfigure@@@?$Serializer@U?$IntParameter_@V?$allocator@X@std@@@dynamic_reconfigure@@@serialization@ros@@SAXAEAUIStream@12@AEAU?$IntParameter_@V?$allocator@X@std@@@dynamic_reconfigure@@@Z
	??$read@UIStream@serialization@ros@@U?$ReconfigureRequest_@V?$allocator@X@std@@@dynamic_reconfigure@@@?$Serializer@U?$ReconfigureRequest_@V?$allocator@X@std@@@dynamic_reconfigure@@@serialization@ros@@SAXAEAUIStream@12@AEAU?$ReconfigureRequest_@V?$allocator@X@std@@@dynamic_reconfigure@@@Z
	??$read@UIStream@serialization@ros@@U?$StrParameter_@V?$allocator@X@std@@@dynamic_reconfigure@@@?$Serializer@U?$StrParameter_@V?$allocator@X@std@@@dynamic_reconfigure@@@serialization@ros@@SAXAEAUIStream@12@AEAU?$StrParameter_@V?$allocator@X@std@@@dynamic_reconfigure@@@Z
	??$ref@$$CBU?$ConfigDescription_@V?$allocator@X@std@@@dynamic_reconfigure@@@boost@@YA?BV?$reference_wrapper@$$CBU?$ConfigDescription_@V?$allocator@X@std@@@dynamic_reconfigure@@@0@AEBU?$ConfigDescription_@V?$allocator@X@std@@@dynamic_reconfigure@@@Z
	??$ref@$$CBU?$Config_@V?$allocator@X@std@@@dynamic_reconfigure@@@boost@@YA?BV?$reference_wrapper@$$CBU?$Config_@V?$allocator@X@std@@@dynamic_reconfigure@@@0@AEBU?$Config_@V?$allocator@X@std@@@dynamic_reconfigure@@@Z
	??$registerPlugin@VVideoStreamNodelet@video_stream_opencv@@VNodelet@nodelet@@@impl@class_loader@@YAXAEBV?$basic_string@DU?$char_traits@D@std@@V?$allocator@D@2@@std@@0@Z
	??$reset@E@?$shared_array@E@boost@@QEAAXPEAE@Z
	??$reset@VNodeHandle@ros@@@?$shared_ptr@VNodeHandle@ros@@@boost@@QEAAXPEAVNodeHandle@ros@@@Z
	??$reset@VVideoCapture@cv@@@?$shared_ptr@VVideoCapture@cv@@@boost@@QEAAXPEAVVideoCapture@cv@@@Z
	??$serializationLength@E@serialization@ros@@YAIAEBE@Z
	??$serializationLength@H@serialization@ros@@YAIAEBH@Z
	??$serializationLength@I@serialization@ros@@YAIAEBI@Z
	??$serializationLength@N@serialization@ros@@YAIAEBN@Z
	??$serializationLength@U?$BoolParameter_@V?$allocator@X@std@@@dynamic_reconfigure@@@serialization@ros@@YAIAEBU?$BoolParameter_@V?$allocator@X@std@@@dynamic_reconfigure@@@Z
	??$serializationLength@U?$BoolParameter_@V?$allocator@X@std@@@dynamic_reconfigure@@V?$allocator@U?$BoolParameter_@V?$allocator@X@std@@@dynamic_reconfigure@@@std@@@serialization@ros@@YAIAEBV?$vector@U?$BoolParameter_@V?$allocator@X@std@@@dynamic_reconfigure@@V?$allocator@U?$BoolParameter_@V?$allocator@X@std@@@dynamic_reconfigure@@@std@@@std@@@Z
	??$serializationLength@U?$ConfigDescription_@V?$allocator@X@std@@@dynamic_reconfigure@@@serialization@ros@@YAIAEBU?$ConfigDescription_@V?$allocator@X@std@@@dynamic_reconfigure@@@Z
	??$serializationLength@U?$Config_@V?$allocator@X@std@@@dynamic_reconfigure@@@serialization@ros@@YAIAEBU?$Config_@V?$allocator@X@std@@@dynamic_reconfigure@@@Z
	??$serializationLength@U?$DoubleParameter_@V?$allocator@X@std@@@dynamic_reconfigure@@@serialization@ros@@YAIAEBU?$DoubleParameter_@V?$allocator@X@std@@@dynamic_reconfigure@@@Z
	??$serializationLength@U?$DoubleParameter_@V?$allocator@X@std@@@dynamic_reconfigure@@V?$allocator@U?$DoubleParameter_@V?$allocator@X@std@@@dynamic_reconfigure@@@std@@@serialization@ros@@YAIAEBV?$vector@U?$DoubleParameter_@V?$allocator@X@std@@@dynamic_reconfigure@@V?$allocator@U?$DoubleParameter_@V?$allocator@X@std@@@dynamic_reconfigure@@@std@@@std@@@Z
	??$serializationLength@U?$GroupState_@V?$allocator@X@std@@@dynamic_reconfigure@@@serialization@ros@@YAIAEBU?$GroupState_@V?$allocator@X@std@@@dynamic_reconfigure@@@Z
	??$serializationLength@U?$GroupState_@V?$allocator@X@std@@@dynamic_reconfigure@@V?$allocator@U?$GroupState_@V?$allocator@X@std@@@dynamic_reconfigure@@@std@@@serialization@ros@@YAIAEBV?$vector@U?$GroupState_@V?$allocator@X@std@@@dynamic_reconfigure@@V?$allocator@U?$GroupState_@V?$allocator@X@std@@@dynamic_reconfigure@@@std@@@std@@@Z
	??$serializationLength@U?$Group_@V?$allocator@X@std@@@dynamic_reconfigure@@@serialization@ros@@YAIAEBU?$Group_@V?$allocator@X@std@@@dynamic_reconfigure@@@Z
	??$serializationLength@U?$Group_@V?$allocator@X@std@@@dynamic_reconfigure@@V?$allocator@U?$Group_@V?$allocator@X@std@@@dynamic_reconfigure@@@std@@@serialization@ros@@YAIAEBV?$vector@U?$Group_@V?$allocator@X@std@@@dynamic_reconfigure@@V?$allocator@U?$Group_@V?$allocator@X@std@@@dynamic_reconfigure@@@std@@@std@@@Z
	??$serializationLength@U?$IntParameter_@V?$allocator@X@std@@@dynamic_reconfigure@@@serialization@ros@@YAIAEBU?$IntParameter_@V?$allocator@X@std@@@dynamic_reconfigure@@@Z
	??$serializationLength@U?$IntParameter_@V?$allocator@X@std@@@dynamic_reconfigure@@V?$allocator@U?$IntParameter_@V?$allocator@X@std@@@dynamic_reconfigure@@@std@@@serialization@ros@@YAIAEBV?$vector@U?$IntParameter_@V?$allocator@X@std@@@dynamic_reconfigure@@V?$allocator@U?$IntParameter_@V?$allocator@X@std@@@dynamic_reconfigure@@@std@@@std@@@Z
	??$serializationLength@U?$ParamDescription_@V?$allocator@X@std@@@dynamic_reconfigure@@@serialization@ros@@YAIAEBU?$ParamDescription_@V?$allocator@X@std@@@dynamic_reconfigure@@@Z
	??$serializationLength@U?$ParamDescription_@V?$allocator@X@std@@@dynamic_reconfigure@@V?$allocator@U?$ParamDescription_@V?$allocator@X@std@@@dynamic_reconfigure@@@std@@@serialization@ros@@YAIAEBV?$vector@U?$ParamDescription_@V?$allocator@X@std@@@dynamic_reconfigure@@V?$allocator@U?$ParamDescription_@V?$allocator@X@std@@@dynamic_reconfigure@@@std@@@std@@@Z
	??$serializationLength@U?$ReconfigureResponse_@V?$allocator@X@std@@@dynamic_reconfigure@@@serialization@ros@@YAIAEBU?$ReconfigureResponse_@V?$allocator@X@std@@@dynamic_reconfigure@@@Z
	??$serializationLength@U?$StrParameter_@V?$allocator@X@std@@@dynamic_reconfigure@@@serialization@ros@@YAIAEBU?$StrParameter_@V?$allocator@X@std@@@dynamic_reconfigure@@@Z
	??$serializationLength@U?$StrParameter_@V?$allocator@X@std@@@dynamic_reconfigure@@V?$allocator@U?$StrParameter_@V?$allocator@X@std@@@dynamic_reconfigure@@@std@@@serialization@ros@@YAIAEBV?$vector@U?$StrParameter_@V?$allocator@X@std@@@dynamic_reconfigure@@V?$allocator@U?$StrParameter_@V?$allocator@X@std@@@dynamic_reconfigure@@@std@@@std@@@Z
	??$serializationLength@V?$basic_string@DU?$char_traits@D@std@@V?$allocator@D@2@@std@@@serialization@ros@@YAIAEBV?$basic_string@DU?$char_traits@D@std@@V?$allocator@D@2@@std@@@Z
	??$serialize@EUOStream@serialization@ros@@@serialization@ros@@YAXAEAUOStream@01@AEBE@Z
	??$serialize@HUOStream@serialization@ros@@@serialization@ros@@YAXAEAUOStream@01@AEBH@Z
	??$serialize@IUOStream@serialization@ros@@@serialization@ros@@YAXAEAUOStream@01@AEBI@Z
	??$serialize@NUOStream@serialization@ros@@@serialization@ros@@YAXAEAUOStream@01@AEBN@Z
	??$serialize@U?$BoolParameter_@V?$allocator@X@std@@@dynamic_reconfigure@@UOStream@serialization@ros@@@serialization@ros@@YAXAEAUOStream@01@AEBU?$BoolParameter_@V?$allocator@X@std@@@dynamic_reconfigure@@@Z
	??$serialize@U?$BoolParameter_@V?$allocator@X@std@@@dynamic_reconfigure@@V?$allocator@U?$BoolParameter_@V?$allocator@X@std@@@dynamic_reconfigure@@@std@@UOStream@serialization@ros@@@serialization@ros@@YAXAEAUOStream@01@AEBV?$vector@U?$BoolParameter_@V?$allocator@X@std@@@dynamic_reconfigure@@V?$allocator@U?$BoolParameter_@V?$allocator@X@std@@@dynamic_reconfigure@@@std@@@std@@@Z
	??$serialize@U?$ConfigDescription_@V?$allocator@X@std@@@dynamic_reconfigure@@UOStream@serialization@ros@@@serialization@ros@@YAXAEAUOStream@01@AEBU?$ConfigDescription_@V?$allocator@X@std@@@dynamic_reconfigure@@@Z
	??$serialize@U?$Config_@V?$allocator@X@std@@@dynamic_reconfigure@@UOStream@serialization@ros@@@serialization@ros@@YAXAEAUOStream@01@AEBU?$Config_@V?$allocator@X@std@@@dynamic_reconfigure@@@Z
	??$serialize@U?$DoubleParameter_@V?$allocator@X@std@@@dynamic_reconfigure@@UOStream@serialization@ros@@@serialization@ros@@YAXAEAUOStream@01@AEBU?$DoubleParameter_@V?$allocator@X@std@@@dynamic_reconfigure@@@Z
	??$serialize@U?$DoubleParameter_@V?$allocator@X@std@@@dynamic_reconfigure@@V?$allocator@U?$DoubleParameter_@V?$allocator@X@std@@@dynamic_reconfigure@@@std@@UOStream@serialization@ros@@@serialization@ros@@YAXAEAUOStream@01@AEBV?$vector@U?$DoubleParameter_@V?$allocator@X@std@@@dynamic_reconfigure@@V?$allocator@U?$DoubleParameter_@V?$allocator@X@std@@@dynamic_reconfigure@@@std@@@std@@@Z
	??$serialize@U?$GroupState_@V?$allocator@X@std@@@dynamic_reconfigure@@UOStream@serialization@ros@@@serialization@ros@@YAXAEAUOStream@01@AEBU?$GroupState_@V?$allocator@X@std@@@dynamic_reconfigure@@@Z
	??$serialize@U?$GroupState_@V?$allocator@X@std@@@dynamic_reconfigure@@V?$allocator@U?$GroupState_@V?$allocator@X@std@@@dynamic_reconfigure@@@std@@UOStream@serialization@ros@@@serialization@ros@@YAXAEAUOStream@01@AEBV?$vector@U?$GroupState_@V?$allocator@X@std@@@dynamic_reconfigure@@V?$allocator@U?$GroupState_@V?$allocator@X@std@@@dynamic_reconfigure@@@std@@@std@@@Z
	??$serialize@U?$Group_@V?$allocator@X@std@@@dynamic_reconfigure@@UOStream@serialization@ros@@@serialization@ros@@YAXAEAUOStream@01@AEBU?$Group_@V?$allocator@X@std@@@dynamic_reconfigure@@@Z
	??$serialize@U?$Group_@V?$allocator@X@std@@@dynamic_reconfigure@@V?$allocator@U?$Group_@V?$allocator@X@std@@@dynamic_reconfigure@@@std@@UOStream@serialization@ros@@@serialization@ros@@YAXAEAUOStream@01@AEBV?$vector@U?$Group_@V?$allocator@X@std@@@dynamic_reconfigure@@V?$allocator@U?$Group_@V?$allocator@X@std@@@dynamic_reconfigure@@@std@@@std@@@Z
	??$serialize@U?$IntParameter_@V?$allocator@X@std@@@dynamic_reconfigure@@UOStream@serialization@ros@@@serialization@ros@@YAXAEAUOStream@01@AEBU?$IntParameter_@V?$allocator@X@std@@@dynamic_reconfigure@@@Z
	??$serialize@U?$IntParameter_@V?$allocator@X@std@@@dynamic_reconfigure@@V?$allocator@U?$IntParameter_@V?$allocator@X@std@@@dynamic_reconfigure@@@std@@UOStream@serialization@ros@@@serialization@ros@@YAXAEAUOStream@01@AEBV?$vector@U?$IntParameter_@V?$allocator@X@std@@@dynamic_reconfigure@@V?$allocator@U?$IntParameter_@V?$allocator@X@std@@@dynamic_reconfigure@@@std@@@std@@@Z
	??$serialize@U?$ParamDescription_@V?$allocator@X@std@@@dynamic_reconfigure@@UOStream@serialization@ros@@@serialization@ros@@YAXAEAUOStream@01@AEBU?$ParamDescription_@V?$allocator@X@std@@@dynamic_reconfigure@@@Z
	??$serialize@U?$ParamDescription_@V?$allocator@X@std@@@dynamic_reconfigure@@V?$allocator@U?$ParamDescription_@V?$allocator@X@std@@@dynamic_reconfigure@@@std@@UOStream@serialization@ros@@@serialization@ros@@YAXAEAUOStream@01@AEBV?$vector@U?$ParamDescription_@V?$allocator@X@std@@@dynamic_reconfigure@@V?$allocator@U?$ParamDescription_@V?$allocator@X@std@@@dynamic_reconfigure@@@std@@@std@@@Z
	??$serialize@U?$ReconfigureResponse_@V?$allocator@X@std@@@dynamic_reconfigure@@UOStream@serialization@ros@@@serialization@ros@@YAXAEAUOStream@01@AEBU?$ReconfigureResponse_@V?$allocator@X@std@@@dynamic_reconfigure@@@Z
	??$serialize@U?$StrParameter_@V?$allocator@X@std@@@dynamic_reconfigure@@UOStream@serialization@ros@@@serialization@ros@@YAXAEAUOStream@01@AEBU?$StrParameter_@V?$allocator@X@std@@@dynamic_reconfigure@@@Z
	??$serialize@U?$StrParameter_@V?$allocator@X@std@@@dynamic_reconfigure@@V?$allocator@U?$StrParameter_@V?$allocator@X@std@@@dynamic_reconfigure@@@std@@UOStream@serialization@ros@@@serialization@ros@@YAXAEAUOStream@01@AEBV?$vector@U?$StrParameter_@V?$allocator@X@std@@@dynamic_reconfigure@@V?$allocator@U?$StrParameter_@V?$allocator@X@std@@@dynamic_reconfigure@@@std@@@std@@@Z
	??$serialize@V?$basic_string@DU?$char_traits@D@std@@V?$allocator@D@2@@std@@UOStream@serialization@ros@@@serialization@ros@@YAXAEAUOStream@01@AEBV?$basic_string@DU?$char_traits@D@std@@V?$allocator@D@2@@std@@@Z
	??$serializeMessage@U?$ConfigDescription_@V?$allocator@X@std@@@dynamic_reconfigure@@@serialization@ros@@YA?AVSerializedMessage@1@AEBU?$ConfigDescription_@V?$allocator@X@std@@@dynamic_reconfigure@@@Z
	??$serializeMessage@U?$Config_@V?$allocator@X@std@@@dynamic_reconfigure@@@serialization@ros@@YA?AVSerializedMessage@1@AEBU?$Config_@V?$allocator@X@std@@@dynamic_reconfigure@@@Z
	??$serializeServiceResponse@U?$ReconfigureResponse_@V?$allocator@X@std@@@dynamic_reconfigure@@@serialization@ros@@YA?AVSerializedMessage@1@_NAEBU?$ReconfigureResponse_@V?$allocator@X@std@@@dynamic_reconfigure@@@Z
	??$serializedLength@U?$BoolParameter_@V?$allocator@X@std@@@dynamic_reconfigure@@@?$Serializer@U?$BoolParameter_@V?$allocator@X@std@@@dynamic_reconfigure@@@serialization@ros@@SAIAEBU?$BoolParameter_@V?$allocator@X@std@@@dynamic_reconfigure@@@Z
	??$serializedLength@U?$ConfigDescription_@V?$allocator@X@std@@@dynamic_reconfigure@@@?$Serializer@U?$ConfigDescription_@V?$allocator@X@std@@@dynamic_reconfigure@@@serialization@ros@@SAIAEBU?$ConfigDescription_@V?$allocator@X@std@@@dynamic_reconfigure@@@Z
	??$serializedLength@U?$Config_@V?$allocator@X@std@@@dynamic_reconfigure@@@?$Serializer@U?$Config_@V?$allocator@X@std@@@dynamic_reconfigure@@@serialization@ros@@SAIAEBU?$Config_@V?$allocator@X@std@@@dynamic_reconfigure@@@Z
	??$serializedLength@U?$DoubleParameter_@V?$allocator@X@std@@@dynamic_reconfigure@@@?$Serializer@U?$DoubleParameter_@V?$allocator@X@std@@@dynamic_reconfigure@@@serialization@ros@@SAIAEBU?$DoubleParameter_@V?$allocator@X@std@@@dynamic_reconfigure@@@Z
	??$serializedLength@U?$GroupState_@V?$allocator@X@std@@@dynamic_reconfigure@@@?$Serializer@U?$GroupState_@V?$allocator@X@std@@@dynamic_reconfigure@@@serialization@ros@@SAIAEBU?$GroupState_@V?$allocator@X@std@@@dynamic_reconfigure@@@Z
	??$serializedLength@U?$Group_@V?$allocator@X@std@@@dynamic_reconfigure@@@?$Serializer@U?$Group_@V?$allocator@X@std@@@dynamic_reconfigure@@@serialization@ros@@SAIAEBU?$Group_@V?$allocator@X@std@@@dynamic_reconfigure@@@Z
	??$serializedLength@U?$IntParameter_@V?$allocator@X@std@@@dynamic_reconfigure@@@?$Serializer@U?$IntParameter_@V?$allocator@X@std@@@dynamic_reconfigure@@@serialization@ros@@SAIAEBU?$IntParameter_@V?$allocator@X@std@@@dynamic_reconfigure@@@Z
	??$serializedLength@U?$ParamDescription_@V?$allocator@X@std@@@dynamic_reconfigure@@@?$Serializer@U?$ParamDescription_@V?$allocator@X@std@@@dynamic_reconfigure@@@serialization@ros@@SAIAEBU?$ParamDescription_@V?$allocator@X@std@@@dynamic_reconfigure@@@Z
	??$serializedLength@U?$ReconfigureResponse_@V?$allocator@X@std@@@dynamic_reconfigure@@@?$Serializer@U?$ReconfigureResponse_@V?$allocator@X@std@@@dynamic_reconfigure@@@serialization@ros@@SAIAEBU?$ReconfigureResponse_@V?$allocator@X@std@@@dynamic_reconfigure@@@Z
	??$serializedLength@U?$StrParameter_@V?$allocator@X@std@@@dynamic_reconfigure@@@?$Serializer@U?$StrParameter_@V?$allocator@X@std@@@dynamic_reconfigure@@@serialization@ros@@SAIAEBU?$StrParameter_@V?$allocator@X@std@@@dynamic_reconfigure@@@Z
	??$set_info@U?$wrapexcept@Vassignment_exception@assign@boost@@@boost@@@exception_detail@boost@@YAAEBU?$wrapexcept@Vassignment_exception@assign@boost@@@1@AEBU21@AEBV?$error_info@Uthrow_file_@boost@@PEBD@1@@Z
	??$set_info@U?$wrapexcept@Vassignment_exception@assign@boost@@@boost@@@exception_detail@boost@@YAAEBU?$wrapexcept@Vassignment_exception@assign@boost@@@1@AEBU21@AEBV?$error_info@Uthrow_function_@boost@@PEBD@1@@Z
	??$set_info@U?$wrapexcept@Vassignment_exception@assign@boost@@@boost@@@exception_detail@boost@@YAAEBU?$wrapexcept@Vassignment_exception@assign@boost@@@1@AEBU21@AEBV?$error_info@Uthrow_line_@boost@@H@1@@Z
	??$sp_assert_convertible@$$BY0A@E$$BY0A@E@detail@boost@@YAXXZ
	??$sp_assert_convertible@V?$ServiceCallbackHelperT@U?$ServiceSpec@U?$ReconfigureRequest_@V?$allocator@X@std@@@dynamic_reconfigure@@U?$ReconfigureResponse_@V?$allocator@X@std@@@2@@ros@@@ros@@VServiceCallbackHelper@2@@detail@boost@@YAXXZ
	??$sp_assert_convertible@VCvImage@cv_bridge@@$$CBV12@@detail@boost@@YAXXZ
	??$sp_deleter_construct@U?$ReconfigureRequest_@V?$allocator@X@std@@@dynamic_reconfigure@@U12@@detail@boost@@YAXPEAV?$shared_ptr@U?$ReconfigureRequest_@V?$allocator@X@std@@@dynamic_reconfigure@@@1@PEAU?$ReconfigureRequest_@V?$allocator@X@std@@@dynamic_reconfigure@@@Z
	??$sp_deleter_construct@U?$ReconfigureResponse_@V?$allocator@X@std@@@dynamic_reconfigure@@U12@@detail@boost@@YAXPEAV?$shared_ptr@U?$ReconfigureResponse_@V?$allocator@X@std@@@dynamic_reconfigure@@@1@PEAU?$ReconfigureResponse_@V?$allocator@X@std@@@dynamic_reconfigure@@@Z
	??$sp_deleter_construct@V?$Server@VVideoStreamConfig@video_stream_opencv@@@dynamic_reconfigure@@V12@@detail@boost@@YAXPEAV?$shared_ptr@V?$Server@VVideoStreamConfig@video_stream_opencv@@@dynamic_reconfigure@@@1@PEAV?$Server@VVideoStreamConfig@video_stream_opencv@@@dynamic_reconfigure@@@Z
	??$sp_deleter_construct@V?$ServiceCallbackHelperT@U?$ServiceSpec@U?$ReconfigureRequest_@V?$allocator@X@std@@@dynamic_reconfigure@@U?$ReconfigureResponse_@V?$allocator@X@std@@@2@@ros@@@ros@@V12@@detail@boost@@YAXPEAV?$shared_ptr@V?$ServiceCallbackHelperT@U?$ServiceSpec@U?$ReconfigureRequest_@V?$allocator@X@std@@@dynamic_reconfigure@@U?$ReconfigureResponse_@V?$allocator@X@std@@@2@@ros@@@ros@@@1@PEAV?$ServiceCallbackHelperT@U?$ServiceSpec@U?$ReconfigureRequest_@V?$allocator@X@std@@@dynamic_reconfigure@@U?$ReconfigureResponse_@V?$allocator@X@std@@@2@@ros@@@ros@@@Z
	??$sp_deleter_construct@VCvImage@cv_bridge@@V12@@detail@boost@@YAXPEAV?$shared_ptr@VCvImage@cv_bridge@@@1@PEAVCvImage@cv_bridge@@@Z
	??$sp_forward@AEAU?$Header_@V?$allocator@X@std@@@std_msgs@@@detail@boost@@YAAEAU?$Header_@V?$allocator@X@std@@@std_msgs@@AEAU23@@Z
	??$sp_forward@AEAVMat@cv@@@detail@boost@@YAAEAVMat@cv@@AEAV23@@Z
	??$sp_forward@AEAVNodeHandle@ros@@@detail@boost@@YAAEAVNodeHandle@ros@@AEAV23@@Z
	??$sp_forward@AEAY04$$CBD@detail@boost@@YAAEAY04$$CBDAEAY04$$CBD@Z
	??$sp_forward@AEBV?$function@$$A6A_NAEAU?$ReconfigureRequest_@V?$allocator@X@std@@@dynamic_reconfigure@@AEAU?$ReconfigureResponse_@V?$allocator@X@std@@@2@@Z@boost@@@detail@boost@@YAAEBV?$function@$$A6A_NAEAU?$ReconfigureRequest_@V?$allocator@X@std@@@dynamic_reconfigure@@AEAU?$ReconfigureResponse_@V?$allocator@X@std@@@2@@Z@1@AEBV21@@Z
	??$sp_pointer_construct@$$CBVAbstractGroupDescription@VideoStreamConfig@video_stream_opencv@@V?$GroupDescription@VDEFAULT@VideoStreamConfig@video_stream_opencv@@V23@@23@@detail@boost@@YAXPEAV?$shared_ptr@$$CBVAbstractGroupDescription@VideoStreamConfig@video_stream_opencv@@@1@PEAV?$GroupDescription@VDEFAULT@VideoStreamConfig@video_stream_opencv@@V23@@VideoStreamConfig@video_stream_opencv@@AEAVshared_count@01@@Z
	??$sp_pointer_construct@$$CBVAbstractParamDescription@VideoStreamConfig@video_stream_opencv@@V?$ParamDescription@H@23@@detail@boost@@YAXPEAV?$shared_ptr@$$CBVAbstractParamDescription@VideoStreamConfig@video_stream_opencv@@@1@PEAV?$ParamDescription@H@VideoStreamConfig@video_stream_opencv@@AEAVshared_count@01@@Z
	??$sp_pointer_construct@$$CBVAbstractParamDescription@VideoStreamConfig@video_stream_opencv@@V?$ParamDescription@N@23@@detail@boost@@YAXPEAV?$shared_ptr@$$CBVAbstractParamDescription@VideoStreamConfig@video_stream_opencv@@@1@PEAV?$ParamDescription@N@VideoStreamConfig@video_stream_opencv@@AEAVshared_count@01@@Z
	??$sp_pointer_construct@$$CBVAbstractParamDescription@VideoStreamConfig@video_stream_opencv@@V?$ParamDescription@V?$basic_string@DU?$char_traits@D@std@@V?$allocator@D@2@@std@@@23@@detail@boost@@YAXPEAV?$shared_ptr@$$CBVAbstractParamDescription@VideoStreamConfig@video_stream_opencv@@@1@PEAV?$ParamDescription@V?$basic_string@DU?$char_traits@D@std@@V?$allocator@D@2@@std@@@VideoStreamConfig@video_stream_opencv@@AEAVshared_count@01@@Z
	??$sp_pointer_construct@$$CBVAbstractParamDescription@VideoStreamConfig@video_stream_opencv@@V?$ParamDescription@_N@23@@detail@boost@@YAXPEAV?$shared_ptr@$$CBVAbstractParamDescription@VideoStreamConfig@video_stream_opencv@@@1@PEAV?$ParamDescription@_N@VideoStreamConfig@video_stream_opencv@@AEAVshared_count@01@@Z
	??$sp_pointer_construct@VNodeHandle@ros@@V12@@detail@boost@@YAXPEAV?$shared_ptr@VNodeHandle@ros@@@1@PEAVNodeHandle@ros@@AEAVshared_count@01@@Z
	??$sp_pointer_construct@VVideoCapture@cv@@V12@@detail@boost@@YAXPEAV?$shared_ptr@VVideoCapture@cv@@@1@PEAVVideoCapture@cv@@AEAVshared_count@01@@Z
	??$string@V?$basic_string@DU?$char_traits@D@std@@V?$allocator@D@2@@std@@@path@filesystem@boost@@QEBA?AV?$basic_string@DU?$char_traits@D@std@@V?$allocator@D@2@@std@@XZ
	??$swap@PEAE$0A@@std@@YAXAEAPEAE0@Z
	??$swap@PEAU?$Image_@V?$allocator@X@std@@@sensor_msgs@@$0A@@std@@YAXAEAPEAU?$Image_@V?$allocator@X@std@@@sensor_msgs@@0@Z
	??$swap@PEAU?$ReconfigureRequest_@V?$allocator@X@std@@@dynamic_reconfigure@@$0A@@std@@YAXAEAPEAU?$ReconfigureRequest_@V?$allocator@X@std@@@dynamic_reconfigure@@0@Z
	??$swap@PEAU?$ReconfigureResponse_@V?$allocator@X@std@@@dynamic_reconfigure@@$0A@@std@@YAXAEAPEAU?$ReconfigureResponse_@V?$allocator@X@std@@@dynamic_reconfigure@@0@Z
	??$swap@PEAV?$Server@VVideoStreamConfig@video_stream_opencv@@@dynamic_reconfigure@@$0A@@std@@YAXAEAPEAV?$Server@VVideoStreamConfig@video_stream_opencv@@@dynamic_reconfigure@@0@Z
	??$swap@PEAV?$map@V?$basic_string@DU?$char_traits@D@std@@V?$allocator@D@2@@std@@V12@U?$less@V?$basic_string@DU?$char_traits@D@std@@V?$allocator@D@2@@std@@@2@V?$allocator@U?$pair@$$CBV?$basic_string@DU?$char_traits@D@std@@V?$allocator@D@2@@std@@V12@@std@@@2@@std@@$0A@@std@@YAXAEAPEAV?$map@V?$basic_string@DU?$char_traits@D@std@@V?$allocator@D@2@@std@@V12@U?$less@V?$basic_string@DU?$char_traits@D@std@@V?$allocator@D@2@@std@@@2@V?$allocator@U?$pair@$$CBV?$basic_string@DU?$char_traits@D@std@@V?$allocator@D@2@@std@@V12@@std@@@2@@0@0@Z
	??$swap@PEAVCvImage@cv_bridge@@$0A@@std@@YAXAEAPEAVCvImage@cv_bridge@@0@Z
	??$swap@PEAVNodeHandle@ros@@$0A@@std@@YAXAEAPEAVNodeHandle@ros@@0@Z
	??$swap@PEAVServiceCallbackHelper@ros@@$0A@@std@@YAXAEAPEAVServiceCallbackHelper@ros@@0@Z
	??$swap@PEAVVideoCapture@cv@@$0A@@std@@YAXAEAPEAVVideoCapture@cv@@0@Z
	??$swap@PEBVAbstractParamDescription@VideoStreamConfig@video_stream_opencv@@$0A@@std@@YAXAEAPEBVAbstractParamDescription@VideoStreamConfig@video_stream_opencv@@0@Z
	??$throw_exception@Vassignment_exception@assign@boost@@@boost@@YAXAEBVassignment_exception@assign@0@AEBUsource_location@0@@Z
	??$throw_exception@Vbad_alloc@std@@@boost@@YAXAEBVbad_alloc@std@@@Z
	??$throw_exception@Vbad_any_cast@boost@@@boost@@YAXAEBVbad_any_cast@0@@Z
	??$throw_exception@Vbad_function_call@boost@@@boost@@YAXAEBVbad_function_call@0@@Z
	??$throw_exception@Vlock_error@boost@@@boost@@YAXAEBVlock_error@0@@Z
	??$throw_exception@Vthread_resource_error@boost@@@boost@@YAXAEBVthread_resource_error@0@@Z
	??$type_id@$$CBVVideoStreamConfig@video_stream_opencv@@@stl_type_index@typeindex@boost@@SA?AV012@XZ
	??$type_id@$$CBVVideoStreamConfig@video_stream_opencv@@@typeindex@boost@@YA?AVstl_type_index@01@XZ
	??$type_id@H@stl_type_index@typeindex@boost@@SA?AV012@XZ
	??$type_id@H@typeindex@boost@@YA?AVstl_type_index@01@XZ
	??$type_id@N@stl_type_index@typeindex@boost@@SA?AV012@XZ
	??$type_id@N@typeindex@boost@@YA?AVstl_type_index@01@XZ
	??$type_id@P6A?AV?$shared_ptr@U?$ReconfigureRequest_@V?$allocator@X@std@@@dynamic_reconfigure@@@boost@@XZ@stl_type_index@typeindex@boost@@SA?AV012@XZ
	??$type_id@P6A?AV?$shared_ptr@U?$ReconfigureRequest_@V?$allocator@X@std@@@dynamic_reconfigure@@@boost@@XZ@typeindex@boost@@YA?AVstl_type_index@01@XZ
	??$type_id@P6A?AV?$shared_ptr@U?$ReconfigureResponse_@V?$allocator@X@std@@@dynamic_reconfigure@@@boost@@XZ@stl_type_index@typeindex@boost@@SA?AV012@XZ
	??$type_id@P6A?AV?$shared_ptr@U?$ReconfigureResponse_@V?$allocator@X@std@@@dynamic_reconfigure@@@boost@@XZ@typeindex@boost@@YA?AVstl_type_index@01@XZ
	??$type_id@PEAVDEFAULT@VideoStreamConfig@video_stream_opencv@@@stl_type_index@typeindex@boost@@SA?AV012@XZ
	??$type_id@PEAVDEFAULT@VideoStreamConfig@video_stream_opencv@@@typeindex@boost@@YA?AVstl_type_index@01@XZ
	??$type_id@PEAVVideoStreamConfig@video_stream_opencv@@@stl_type_index@typeindex@boost@@SA?AV012@XZ
	??$type_id@PEAVVideoStreamConfig@video_stream_opencv@@@typeindex@boost@@YA?AVstl_type_index@01@XZ
	??$type_id@V?$basic_string@DU?$char_traits@D@std@@V?$allocator@D@2@@std@@@stl_type_index@typeindex@boost@@SA?AV012@XZ
	??$type_id@V?$basic_string@DU?$char_traits@D@std@@V?$allocator@D@2@@std@@@typeindex@boost@@YA?AVstl_type_index@01@XZ
	??$type_id@V?$bind_t@VSerializedMessage@ros@@P6A?AV12@AEBU?$ConfigDescription_@V?$allocator@X@std@@@dynamic_reconfigure@@@ZV?$list1@V?$reference_wrapper@$$CBU?$ConfigDescription_@V?$allocator@X@std@@@dynamic_reconfigure@@@boost@@@_bi@boost@@@_bi@boost@@@stl_type_index@typeindex@boost@@SA?AV012@XZ
	??$type_id@V?$bind_t@VSerializedMessage@ros@@P6A?AV12@AEBU?$ConfigDescription_@V?$allocator@X@std@@@dynamic_reconfigure@@@ZV?$list1@V?$reference_wrapper@$$CBU?$ConfigDescription_@V?$allocator@X@std@@@dynamic_reconfigure@@@boost@@@_bi@boost@@@_bi@boost@@@typeindex@boost@@YA?AVstl_type_index@01@XZ
	??$type_id@V?$bind_t@VSerializedMessage@ros@@P6A?AV12@AEBU?$Config_@V?$allocator@X@std@@@dynamic_reconfigure@@@ZV?$list1@V?$reference_wrapper@$$CBU?$Config_@V?$allocator@X@std@@@dynamic_reconfigure@@@boost@@@_bi@boost@@@_bi@boost@@@stl_type_index@typeindex@boost@@SA?AV012@XZ
	??$type_id@V?$bind_t@VSerializedMessage@ros@@P6A?AV12@AEBU?$Config_@V?$allocator@X@std@@@dynamic_reconfigure@@@ZV?$list1@V?$reference_wrapper@$$CBU?$Config_@V?$allocator@X@std@@@dynamic_reconfigure@@@boost@@@_bi@boost@@@_bi@boost@@@typeindex@boost@@YA?AVstl_type_index@01@XZ
	??$type_id@V?$bind_t@XV?$mf1@XVVideoStreamNodelet@video_stream_opencv@@AEBUTimerEvent@ros@@@_mfi@boost@@V?$list2@V?$value@PEAVVideoStreamNodelet@video_stream_opencv@@@_bi@boost@@U?$arg@$00@3@@_bi@3@@_bi@boost@@@stl_type_index@typeindex@boost@@SA?AV012@XZ
	??$type_id@V?$bind_t@XV?$mf1@XVVideoStreamNodelet@video_stream_opencv@@AEBUTimerEvent@ros@@@_mfi@boost@@V?$list2@V?$value@PEAVVideoStreamNodelet@video_stream_opencv@@@_bi@boost@@U?$arg@$00@3@@_bi@3@@_bi@boost@@@typeindex@boost@@YA?AVstl_type_index@01@XZ
	??$type_id@V?$bind_t@XV?$mf1@XVVideoStreamNodelet@video_stream_opencv@@AEBVSingleSubscriberPublisher@image_transport@@@_mfi@boost@@V?$list2@V?$value@PEAVVideoStreamNodelet@video_stream_opencv@@@_bi@boost@@U?$arg@$00@3@@_bi@3@@_bi@boost@@@stl_type_index@typeindex@boost@@SA?AV012@XZ
	??$type_id@V?$bind_t@XV?$mf1@XVVideoStreamNodelet@video_stream_opencv@@AEBVSingleSubscriberPublisher@image_transport@@@_mfi@boost@@V?$list2@V?$value@PEAVVideoStreamNodelet@video_stream_opencv@@@_bi@boost@@U?$arg@$00@3@@_bi@3@@_bi@boost@@@typeindex@boost@@YA?AVstl_type_index@01@XZ
	??$type_id@V?$bind_t@XV?$mf1@XVVideoStreamNodelet@video_stream_opencv@@AEBVSingleSubscriberPublisher@ros@@@_mfi@boost@@V?$list2@V?$value@PEAVVideoStreamNodelet@video_stream_opencv@@@_bi@boost@@U?$arg@$00@3@@_bi@3@@_bi@boost@@@stl_type_index@typeindex@boost@@SA?AV012@XZ
	??$type_id@V?$bind_t@XV?$mf1@XVVideoStreamNodelet@video_stream_opencv@@AEBVSingleSubscriberPublisher@ros@@@_mfi@boost@@V?$list2@V?$value@PEAVVideoStreamNodelet@video_stream_opencv@@@_bi@boost@@U?$arg@$00@3@@_bi@3@@_bi@boost@@@typeindex@boost@@YA?AVstl_type_index@01@XZ
	??$type_id@V?$bind_t@XV?$mf2@XVVideoStreamNodelet@video_stream_opencv@@AEAVVideoStreamConfig@2@I@_mfi@boost@@V?$list3@V?$value@PEAVVideoStreamNodelet@video_stream_opencv@@@_bi@boost@@U?$arg@$00@3@U?$arg@$01@3@@_bi@3@@_bi@boost@@@stl_type_index@typeindex@boost@@SA?AV012@XZ
	??$type_id@V?$bind_t@XV?$mf2@XVVideoStreamNodelet@video_stream_opencv@@AEAVVideoStreamConfig@2@I@_mfi@boost@@V?$list3@V?$value@PEAVVideoStreamNodelet@video_stream_opencv@@@_bi@boost@@U?$arg@$00@3@U?$arg@$01@3@@_bi@3@@_bi@boost@@@typeindex@boost@@YA?AVstl_type_index@01@XZ
	??$type_id@V?$bind_t@_NV?$mf2@_NV?$Server@VVideoStreamConfig@video_stream_opencv@@@dynamic_reconfigure@@AEAU?$ReconfigureRequest_@V?$allocator@X@std@@@2@AEAU?$ReconfigureResponse_@V?$allocator@X@std@@@2@@_mfi@boost@@V?$list3@V?$value@PEAV?$Server@VVideoStreamConfig@video_stream_opencv@@@dynamic_reconfigure@@@_bi@boost@@U?$arg@$00@3@U?$arg@$01@3@@_bi@3@@_bi@boost@@@stl_type_index@typeindex@boost@@SA?AV012@XZ
	??$type_id@V?$bind_t@_NV?$mf2@_NV?$Server@VVideoStreamConfig@video_stream_opencv@@@dynamic_reconfigure@@AEAU?$ReconfigureRequest_@V?$allocator@X@std@@@2@AEAU?$ReconfigureResponse_@V?$allocator@X@std@@@2@@_mfi@boost@@V?$list3@V?$value@PEAV?$Server@VVideoStreamConfig@video_stream_opencv@@@dynamic_reconfigure@@@_bi@boost@@U?$arg@$00@3@U?$arg@$01@3@@_bi@3@@_bi@boost@@@typeindex@boost@@YA?AVstl_type_index@01@XZ
	??$type_id@VDEFAULT@VideoStreamConfig@video_stream_opencv@@@stl_type_index@typeindex@boost@@SA?AV012@XZ
	??$type_id@VDEFAULT@VideoStreamConfig@video_stream_opencv@@@typeindex@boost@@YA?AVstl_type_index@01@XZ
	??$type_id@VVideoStreamConfig@video_stream_opencv@@@stl_type_index@typeindex@boost@@SA?AV012@XZ
	??$type_id@VVideoStreamConfig@video_stream_opencv@@@typeindex@boost@@YA?AVstl_type_index@01@XZ
	??$type_id@X@stl_type_index@typeindex@boost@@SA?AV012@XZ
	??$type_id@X@typeindex@boost@@YA?AVstl_type_index@01@XZ
	??$type_id@_N@stl_type_index@typeindex@boost@@SA?AV012@XZ
	??$type_id@_N@typeindex@boost@@YA?AVstl_type_index@01@XZ
	??$uninitialized_copy@PEAPEANPEAPEAN@std@@YAPEAPEANQEAPEAN0PEAPEAN@Z
	??$uninitialized_copy@PEAPEAVMat@cv@@PEAPEAV12@@std@@YAPEAPEAVMat@cv@@QEAPEAV12@0PEAPEAV12@@Z
	??$write@UOStream@serialization@ros@@@?$Serializer@E@serialization@ros@@SAXAEAUOStream@12@E@Z
	??$write@UOStream@serialization@ros@@@?$Serializer@H@serialization@ros@@SAXAEAUOStream@12@H@Z
	??$write@UOStream@serialization@ros@@@?$Serializer@I@serialization@ros@@SAXAEAUOStream@12@I@Z
	??$write@UOStream@serialization@ros@@@?$Serializer@N@serialization@ros@@SAXAEAUOStream@12@N@Z
	??$write@UOStream@serialization@ros@@@?$Serializer@V?$basic_string@DU?$char_traits@D@std@@V?$allocator@D@2@@std@@@serialization@ros@@SAXAEAUOStream@12@AEBV?$basic_string@DU?$char_traits@D@std@@V?$allocator@D@2@@std@@@Z
	??$write@UOStream@serialization@ros@@@?$VectorSerializer@U?$BoolParameter_@V?$allocator@X@std@@@dynamic_reconfigure@@V?$allocator@U?$BoolParameter_@V?$allocator@X@std@@@dynamic_reconfigure@@@std@@X@serialization@ros@@SAXAEAUOStream@12@AEBV?$vector@U?$BoolParameter_@V?$allocator@X@std@@@dynamic_reconfigure@@V?$allocator@U?$BoolParameter_@V?$allocator@X@std@@@dynamic_reconfigure@@@std@@@std@@@Z
	??$write@UOStream@serialization@ros@@@?$VectorSerializer@U?$DoubleParameter_@V?$allocator@X@std@@@dynamic_reconfigure@@V?$allocator@U?$DoubleParameter_@V?$allocator@X@std@@@dynamic_reconfigure@@@std@@X@serialization@ros@@SAXAEAUOStream@12@AEBV?$vector@U?$DoubleParameter_@V?$allocator@X@std@@@dynamic_reconfigure@@V?$allocator@U?$DoubleParameter_@V?$allocator@X@std@@@dynamic_reconfigure@@@std@@@std@@@Z
	??$write@UOStream@serialization@ros@@@?$VectorSerializer@U?$GroupState_@V?$allocator@X@std@@@dynamic_reconfigure@@V?$allocator@U?$GroupState_@V?$allocator@X@std@@@dynamic_reconfigure@@@std@@X@serialization@ros@@SAXAEAUOStream@12@AEBV?$vector@U?$GroupState_@V?$allocator@X@std@@@dynamic_reconfigure@@V?$allocator@U?$GroupState_@V?$allocator@X@std@@@dynamic_reconfigure@@@std@@@std@@@Z
	??$write@UOStream@serialization@ros@@@?$VectorSerializer@U?$Group_@V?$allocator@X@std@@@dynamic_reconfigure@@V?$allocator@U?$Group_@V?$allocator@X@std@@@dynamic_reconfigure@@@std@@X@serialization@ros@@SAXAEAUOStream@12@AEBV?$vector@U?$Group_@V?$allocator@X@std@@@dynamic_reconfigure@@V?$allocator@U?$Group_@V?$allocator@X@std@@@dynamic_reconfigure@@@std@@@std@@@Z
	??$write@UOStream@serialization@ros@@@?$VectorSerializer@U?$IntParameter_@V?$allocator@X@std@@@dynamic_reconfigure@@V?$allocator@U?$IntParameter_@V?$allocator@X@std@@@dynamic_reconfigure@@@std@@X@serialization@ros@@SAXAEAUOStream@12@AEBV?$vector@U?$IntParameter_@V?$allocator@X@std@@@dynamic_reconfigure@@V?$allocator@U?$IntParameter_@V?$allocator@X@std@@@dynamic_reconfigure@@@std@@@std@@@Z
	??$write@UOStream@serialization@ros@@@?$VectorSerializer@U?$ParamDescription_@V?$allocator@X@std@@@dynamic_reconfigure@@V?$allocator@U?$ParamDescription_@V?$allocator@X@std@@@dynamic_reconfigure@@@std@@X@serialization@ros@@SAXAEAUOStream@12@AEBV?$vector@U?$ParamDescription_@V?$allocator@X@std@@@dynamic_reconfigure@@V?$allocator@U?$ParamDescription_@V?$allocator@X@std@@@dynamic_reconfigure@@@std@@@std@@@Z
	??$write@UOStream@serialization@ros@@@?$VectorSerializer@U?$StrParameter_@V?$allocator@X@std@@@dynamic_reconfigure@@V?$allocator@U?$StrParameter_@V?$allocator@X@std@@@dynamic_reconfigure@@@std@@X@serialization@ros@@SAXAEAUOStream@12@AEBV?$vector@U?$StrParameter_@V?$allocator@X@std@@@dynamic_reconfigure@@V?$allocator@U?$StrParameter_@V?$allocator@X@std@@@dynamic_reconfigure@@@std@@@std@@@Z
	??$write@UOStream@serialization@ros@@U?$BoolParameter_@V?$allocator@X@std@@@dynamic_reconfigure@@@?$Serializer@U?$BoolParameter_@V?$allocator@X@std@@@dynamic_reconfigure@@@serialization@ros@@SAXAEAUOStream@12@AEBU?$BoolParameter_@V?$allocator@X@std@@@dynamic_reconfigure@@@Z
	??$write@UOStream@serialization@ros@@U?$ConfigDescription_@V?$allocator@X@std@@@dynamic_reconfigure@@@?$Serializer@U?$ConfigDescription_@V?$allocator@X@std@@@dynamic_reconfigure@@@serialization@ros@@SAXAEAUOStream@12@AEBU?$ConfigDescription_@V?$allocator@X@std@@@dynamic_reconfigure@@@Z
	??$write@UOStream@serialization@ros@@U?$Config_@V?$allocator@X@std@@@dynamic_reconfigure@@@?$Serializer@U?$Config_@V?$allocator@X@std@@@dynamic_reconfigure@@@serialization@ros@@SAXAEAUOStream@12@AEBU?$Config_@V?$allocator@X@std@@@dynamic_reconfigure@@@Z
	??$write@UOStream@serialization@ros@@U?$DoubleParameter_@V?$allocator@X@std@@@dynamic_reconfigure@@@?$Serializer@U?$DoubleParameter_@V?$allocator@X@std@@@dynamic_reconfigure@@@serialization@ros@@SAXAEAUOStream@12@AEBU?$DoubleParameter_@V?$allocator@X@std@@@dynamic_reconfigure@@@Z
	??$write@UOStream@serialization@ros@@U?$GroupState_@V?$allocator@X@std@@@dynamic_reconfigure@@@?$Serializer@U?$GroupState_@V?$allocator@X@std@@@dynamic_reconfigure@@@serialization@ros@@SAXAEAUOStream@12@AEBU?$GroupState_@V?$allocator@X@std@@@dynamic_reconfigure@@@Z
	??$write@UOStream@serialization@ros@@U?$Group_@V?$allocator@X@std@@@dynamic_reconfigure@@@?$Serializer@U?$Group_@V?$allocator@X@std@@@dynamic_reconfigure@@@serialization@ros@@SAXAEAUOStream@12@AEBU?$Group_@V?$allocator@X@std@@@dynamic_reconfigure@@@Z
	??$write@UOStream@serialization@ros@@U?$IntParameter_@V?$allocator@X@std@@@dynamic_reconfigure@@@?$Serializer@U?$IntParameter_@V?$allocator@X@std@@@dynamic_reconfigure@@@serialization@ros@@SAXAEAUOStream@12@AEBU?$IntParameter_@V?$allocator@X@std@@@dynamic_reconfigure@@@Z
	??$write@UOStream@serialization@ros@@U?$ParamDescription_@V?$allocator@X@std@@@dynamic_reconfigure@@@?$Serializer@U?$ParamDescription_@V?$allocator@X@std@@@dynamic_reconfigure@@@serialization@ros@@SAXAEAUOStream@12@AEBU?$ParamDescription_@V?$allocator@X@std@@@dynamic_reconfigure@@@Z
	??$write@UOStream@serialization@ros@@U?$ReconfigureResponse_@V?$allocator@X@std@@@dynamic_reconfigure@@@?$Serializer@U?$ReconfigureResponse_@V?$allocator@X@std@@@dynamic_reconfigure@@@serialization@ros@@SAXAEAUOStream@12@AEBU?$ReconfigureResponse_@V?$allocator@X@std@@@dynamic_reconfigure@@@Z
	??$write@UOStream@serialization@ros@@U?$StrParameter_@V?$allocator@X@std@@@dynamic_reconfigure@@@?$Serializer@U?$StrParameter_@V?$allocator@X@std@@@dynamic_reconfigure@@@serialization@ros@@SAXAEAUOStream@12@AEBU?$StrParameter_@V?$allocator@X@std@@@dynamic_reconfigure@@@Z
	??0?$AbstractMetaObject@VNodelet@nodelet@@@impl@class_loader@@QEAA@AEBV?$basic_string@DU?$char_traits@D@std@@V?$allocator@D@2@@std@@0@Z
	??0?$BoolParameter_@V?$allocator@X@std@@@dynamic_reconfigure@@QEAA@$$QEAU01@@Z
	??0?$BoolParameter_@V?$allocator@X@std@@@dynamic_reconfigure@@QEAA@XZ
	??0?$CameraInfo_@V?$allocator@X@std@@@sensor_msgs@@QEAA@$$QEAU01@@Z
	??0?$CameraInfo_@V?$allocator@X@std@@@sensor_msgs@@QEAA@XZ
	??0?$ConfigDescription_@V?$allocator@X@std@@@dynamic_reconfigure@@QEAA@XZ
	??0?$Config_@V?$allocator@X@std@@@dynamic_reconfigure@@QEAA@XZ
	??0?$DoubleParameter_@V?$allocator@X@std@@@dynamic_reconfigure@@QEAA@$$QEAU01@@Z
	??0?$DoubleParameter_@V?$allocator@X@std@@@dynamic_reconfigure@@QEAA@XZ
	??0?$GroupDescription@VDEFAULT@VideoStreamConfig@video_stream_opencv@@V23@@VideoStreamConfig@video_stream_opencv@@QEAA@AEBV012@@Z
	??0?$GroupDescription@VDEFAULT@VideoStreamConfig@video_stream_opencv@@V23@@VideoStreamConfig@video_stream_opencv@@QEAA@V?$basic_string@DU?$char_traits@D@std@@V?$allocator@D@2@@std@@0HH_NPEQ12@VDEFAULT@12@@Z
	??0?$GroupState_@V?$allocator@X@std@@@dynamic_reconfigure@@QEAA@$$QEAU01@@Z
	??0?$GroupState_@V?$allocator@X@std@@@dynamic_reconfigure@@QEAA@AEBU01@@Z
	??0?$GroupState_@V?$allocator@X@std@@@dynamic_reconfigure@@QEAA@XZ
	??0?$Group_@V?$allocator@X@std@@@dynamic_reconfigure@@QEAA@$$QEAU01@@Z
	??0?$Group_@V?$allocator@X@std@@@dynamic_reconfigure@@QEAA@AEBU01@@Z
	??0?$Group_@V?$allocator@X@std@@@dynamic_reconfigure@@QEAA@XZ
	??0?$Header_@V?$allocator@X@std@@@std_msgs@@QEAA@$$QEAU01@@Z
	??0?$Header_@V?$allocator@X@std@@@std_msgs@@QEAA@AEBU01@@Z
	??0?$Header_@V?$allocator@X@std@@@std_msgs@@QEAA@XZ
	??0?$IntParameter_@V?$allocator@X@std@@@dynamic_reconfigure@@QEAA@$$QEAU01@@Z
	??0?$IntParameter_@V?$allocator@X@std@@@dynamic_reconfigure@@QEAA@XZ
	??0?$MetaObject@VVideoStreamNodelet@video_stream_opencv@@VNodelet@nodelet@@@impl@class_loader@@QEAA@AEBV?$basic_string@DU?$char_traits@D@std@@V?$allocator@D@2@@std@@0@Z
	??0?$ParamDescription@H@VideoStreamConfig@video_stream_opencv@@QEAA@V?$basic_string@DU?$char_traits@D@std@@V?$allocator@D@2@@std@@0I00PEQ12@H@Z
	??0?$ParamDescription@N@VideoStreamConfig@video_stream_opencv@@QEAA@V?$basic_string@DU?$char_traits@D@std@@V?$allocator@D@2@@std@@0I00PEQ12@N@Z
	??0?$ParamDescription@V?$basic_string@DU?$char_traits@D@std@@V?$allocator@D@2@@std@@@VideoStreamConfig@video_stream_opencv@@QEAA@V?$basic_string@DU?$char_traits@D@std@@V?$allocator@D@2@@std@@0I00PEQ12@V34@@Z
	??0?$ParamDescription@_N@VideoStreamConfig@video_stream_opencv@@QEAA@V?$basic_string@DU?$char_traits@D@std@@V?$allocator@D@2@@std@@0I00PEQ12@_N@Z
	??0?$ParamDescription_@V?$allocator@X@std@@@dynamic_reconfigure@@QEAA@$$QEAU01@@Z
	??0?$ParamDescription_@V?$allocator@X@std@@@dynamic_reconfigure@@QEAA@AEBU01@@Z
	??0?$ParamDescription_@V?$allocator@X@std@@@dynamic_reconfigure@@QEAA@XZ
	??0?$ReconfigureRequest_@V?$allocator@X@std@@@dynamic_reconfigure@@QEAA@XZ
	??0?$ReconfigureResponse_@V?$allocator@X@std@@@dynamic_reconfigure@@QEAA@XZ
	??0?$RegionOfInterest_@V?$allocator@X@std@@@sensor_msgs@@QEAA@XZ
	??0?$Server@VVideoStreamConfig@video_stream_opencv@@@dynamic_reconfigure@@QEAA@AEBVNodeHandle@ros@@@Z
	??0?$ServiceCallbackHelperT@U?$ServiceSpec@U?$ReconfigureRequest_@V?$allocator@X@std@@@dynamic_reconfigure@@U?$ReconfigureResponse_@V?$allocator@X@std@@@2@@ros@@@ros@@QEAA@AEBV?$function@$$A6A_NAEAU?$ReconfigureRequest_@V?$allocator@X@std@@@dynamic_reconfigure@@AEAU?$ReconfigureResponse_@V?$allocator@X@std@@@2@@Z@boost@@AEBV?$function@$$A6A?AV?$shared_ptr@U?$ReconfigureRequest_@V?$allocator@X@std@@@dynamic_reconfigure@@@boost@@XZ@3@AEBV?$function@$$A6A?AV?$shared_ptr@U?$ReconfigureResponse_@V?$allocator@X@std@@@dynamic_reconfigure@@@boost@@XZ@3@@Z
	??0?$ServiceSpecCallParams@U?$ReconfigureRequest_@V?$allocator@X@std@@@dynamic_reconfigure@@U?$ReconfigureResponse_@V?$allocator@X@std@@@2@@ros@@QEAA@XZ
	??0?$Size_@H@cv@@QEAA@XZ
	??0?$StrParameter_@V?$allocator@X@std@@@dynamic_reconfigure@@QEAA@$$QEAU01@@Z
	??0?$StrParameter_@V?$allocator@X@std@@@dynamic_reconfigure@@QEAA@XZ
	??0?$_Alloc_construct_ptr@V?$allocator@U?$_Tree_node@U?$pair@$$CBV?$basic_string@DU?$char_traits@D@std@@V?$allocator@D@2@@std@@PEAVAbstractMetaObjectBase@impl@class_loader@@@std@@PEAX@std@@@std@@@std@@QEAA@AEAV?$allocator@U?$_Tree_node@U?$pair@$$CBV?$basic_string@DU?$char_traits@D@std@@V?$allocator@D@2@@std@@PEAVAbstractMetaObjectBase@impl@class_loader@@@std@@PEAX@std@@@1@@Z
	??0?$_Atomic_integral@H$03@std@@QEAA@H@Z
	??0?$_Atomic_integral_facade@H@std@@QEAA@H@Z
	??0?$_Atomic_storage@H$03@std@@QEAA@H@Z
	??0?$_Deque_const_iterator@V?$_Deque_val@U?$_Deque_simple_types@N@std@@@std@@@std@@QEAA@_KPEBU_Container_base12@1@@Z
	??0?$_Deque_iterator@V?$_Deque_val@U?$_Deque_simple_types@N@std@@@std@@@std@@QEAA@_KPEBU_Container_base12@1@@Z
	??0?$_Deque_unchecked_const_iterator@V?$_Deque_val@U?$_Deque_simple_types@VMat@cv@@@std@@@std@@@std@@QEAA@_KPEBU_Container_base12@1@@Z
	??0?$_Deque_unchecked_iterator@V?$_Deque_val@U?$_Deque_simple_types@VMat@cv@@@std@@@std@@@std@@QEAA@_KPEBU_Container_base12@1@@Z
	??0?$_Deque_val@U?$_Deque_simple_types@N@std@@@std@@QEAA@XZ
	??0?$_Deque_val@U?$_Deque_simple_types@VMat@cv@@@std@@@std@@QEAA@XZ
	??0?$_String_const_iterator@V?$_String_val@U?$_Simple_types@D@std@@@std@@@std@@QEAA@PEBDPEBU_Container_base0@1@@Z
	??0?$_String_val@U?$_Simple_types@D@std@@@std@@QEAA@XZ
	??0?$_String_val@U?$_Simple_types@_W@std@@@std@@QEAA@XZ
	??0?$_Tree_const_iterator@V?$_Tree_val@U?$_Tree_simple_types@U?$pair@$$CBV?$basic_string@DU?$char_traits@D@std@@V?$allocator@D@2@@std@@PEAVAbstractMetaObjectBase@impl@class_loader@@@std@@@std@@@std@@@std@@QEAA@PEAU?$_Tree_node@U?$pair@$$CBV?$basic_string@DU?$char_traits@D@std@@V?$allocator@D@2@@std@@PEAVAbstractMetaObjectBase@impl@class_loader@@@std@@PEAX@1@PEBV?$_Tree_val@U?$_Tree_simple_types@U?$pair@$$CBV?$basic_string@DU?$char_traits@D@std@@V?$allocator@D@2@@std@@PEAVAbstractMetaObjectBase@impl@class_loader@@@std@@@std@@@1@@Z
	??0?$_Tree_iterator@V?$_Tree_val@U?$_Tree_simple_types@U?$pair@$$CBV?$basic_string@DU?$char_traits@D@std@@V?$allocator@D@2@@std@@PEAVAbstractMetaObjectBase@impl@class_loader@@@std@@@std@@@std@@@std@@QEAA@PEAU?$_Tree_node@U?$pair@$$CBV?$basic_string@DU?$char_traits@D@std@@V?$allocator@D@2@@std@@PEAVAbstractMetaObjectBase@impl@class_loader@@@std@@PEAX@1@PEBV?$_Tree_val@U?$_Tree_simple_types@U?$pair@$$CBV?$basic_string@DU?$char_traits@D@std@@V?$allocator@D@2@@std@@PEAVAbstractMetaObjectBase@impl@class_loader@@@std@@@std@@@1@@Z
	??0?$_Tree_temp_node_alloc@V?$allocator@U?$_Tree_node@U?$pair@$$CBV?$basic_string@DU?$char_traits@D@std@@V?$allocator@D@2@@std@@PEAVAbstractMetaObjectBase@impl@class_loader@@@std@@PEAX@std@@@std@@@std@@QEAA@AEAV?$allocator@U?$_Tree_node@U?$pair@$$CBV?$basic_string@DU?$char_traits@D@std@@V?$allocator@D@2@@std@@PEAVAbstractMetaObjectBase@impl@class_loader@@@std@@PEAX@std@@@1@@Z
	??0?$_Tree_unchecked_const_iterator@V?$_Tree_val@U?$_Tree_simple_types@U?$pair@$$CBV?$basic_string@DU?$char_traits@D@std@@V?$allocator@D@2@@std@@PEAVAbstractMetaObjectBase@impl@class_loader@@@std@@@std@@@std@@U_Iterator_base0@2@@std@@QEAA@PEAU?$_Tree_node@U?$pair@$$CBV?$basic_string@DU?$char_traits@D@std@@V?$allocator@D@2@@std@@PEAVAbstractMetaObjectBase@impl@class_loader@@@std@@PEAX@1@PEBV?$_Tree_val@U?$_Tree_simple_types@U?$pair@$$CBV?$basic_string@DU?$char_traits@D@std@@V?$allocator@D@2@@std@@PEAVAbstractMetaObjectBase@impl@class_loader@@@std@@@std@@@1@@Z
	??0?$_Uninitialized_backout@PEAPEAN@std@@QEAA@PEAPEAN@Z
	??0?$_Uninitialized_backout@PEAPEAVMat@cv@@@std@@QEAA@PEAPEAVMat@cv@@@Z
	??0?$_Uninitialized_backout_al@V?$allocator@N@std@@@std@@QEAA@PEANAEAV?$allocator@N@1@@Z
	??0?$_Uninitialized_backout_al@V?$allocator@U?$BoolParameter_@V?$allocator@X@std@@@dynamic_reconfigure@@@std@@@std@@QEAA@PEAU?$BoolParameter_@V?$allocator@X@std@@@dynamic_reconfigure@@AEAV?$allocator@U?$BoolParameter_@V?$allocator@X@std@@@dynamic_reconfigure@@@1@@Z
	??0?$_Uninitialized_backout_al@V?$allocator@U?$DoubleParameter_@V?$allocator@X@std@@@dynamic_reconfigure@@@std@@@std@@QEAA@PEAU?$DoubleParameter_@V?$allocator@X@std@@@dynamic_reconfigure@@AEAV?$allocator@U?$DoubleParameter_@V?$allocator@X@std@@@dynamic_reconfigure@@@1@@Z
	??0?$_Uninitialized_backout_al@V?$allocator@U?$GroupState_@V?$allocator@X@std@@@dynamic_reconfigure@@@std@@@std@@QEAA@PEAU?$GroupState_@V?$allocator@X@std@@@dynamic_reconfigure@@AEAV?$allocator@U?$GroupState_@V?$allocator@X@std@@@dynamic_reconfigure@@@1@@Z
	??0?$_Uninitialized_backout_al@V?$allocator@U?$Group_@V?$allocator@X@std@@@dynamic_reconfigure@@@std@@@std@@QEAA@PEAU?$Group_@V?$allocator@X@std@@@dynamic_reconfigure@@AEAV?$allocator@U?$Group_@V?$allocator@X@std@@@dynamic_reconfigure@@@1@@Z
	??0?$_Uninitialized_backout_al@V?$allocator@U?$IntParameter_@V?$allocator@X@std@@@dynamic_reconfigure@@@std@@@std@@QEAA@PEAU?$IntParameter_@V?$allocator@X@std@@@dynamic_reconfigure@@AEAV?$allocator@U?$IntParameter_@V?$allocator@X@std@@@dynamic_reconfigure@@@1@@Z
	??0?$_Uninitialized_backout_al@V?$allocator@U?$ParamDescription_@V?$allocator@X@std@@@dynamic_reconfigure@@@std@@@std@@QEAA@PEAU?$ParamDescription_@V?$allocator@X@std@@@dynamic_reconfigure@@AEAV?$allocator@U?$ParamDescription_@V?$allocator@X@std@@@dynamic_reconfigure@@@1@@Z
	??0?$_Uninitialized_backout_al@V?$allocator@U?$StrParameter_@V?$allocator@X@std@@@dynamic_reconfigure@@@std@@@std@@QEAA@PEAU?$StrParameter_@V?$allocator@X@std@@@dynamic_reconfigure@@AEAV?$allocator@U?$StrParameter_@V?$allocator@X@std@@@dynamic_reconfigure@@@1@@Z
	??0?$_Uninitialized_backout_al@V?$allocator@V?$shared_ptr@$$CBVAbstractGroupDescription@VideoStreamConfig@video_stream_opencv@@@boost@@@std@@@std@@QEAA@PEAV?$shared_ptr@$$CBVAbstractGroupDescription@VideoStreamConfig@video_stream_opencv@@@boost@@AEAV?$allocator@V?$shared_ptr@$$CBVAbstractGroupDescription@VideoStreamConfig@video_stream_opencv@@@boost@@@1@@Z
	??0?$_Uninitialized_backout_al@V?$allocator@V?$shared_ptr@$$CBVAbstractParamDescription@VideoStreamConfig@video_stream_opencv@@@boost@@@std@@@std@@QEAA@PEAV?$shared_ptr@$$CBVAbstractParamDescription@VideoStreamConfig@video_stream_opencv@@@boost@@AEAV?$allocator@V?$shared_ptr@$$CBVAbstractParamDescription@VideoStreamConfig@video_stream_opencv@@@boost@@@1@@Z
	??0?$_Vector_const_iterator@V?$_Vector_val@U?$_Simple_types@U?$BoolParameter_@V?$allocator@X@std@@@dynamic_reconfigure@@@std@@@std@@@std@@QEAA@PEAU?$BoolParameter_@V?$allocator@X@std@@@dynamic_reconfigure@@PEBU_Container_base0@1@@Z
	??0?$_Vector_const_iterator@V?$_Vector_val@U?$_Simple_types@U?$DoubleParameter_@V?$allocator@X@std@@@dynamic_reconfigure@@@std@@@std@@@std@@QEAA@PEAU?$DoubleParameter_@V?$allocator@X@std@@@dynamic_reconfigure@@PEBU_Container_base0@1@@Z
	??0?$_Vector_const_iterator@V?$_Vector_val@U?$_Simple_types@U?$GroupState_@V?$allocator@X@std@@@dynamic_reconfigure@@@std@@@std@@@std@@QEAA@PEAU?$GroupState_@V?$allocator@X@std@@@dynamic_reconfigure@@PEBU_Container_base0@1@@Z
	??0?$_Vector_const_iterator@V?$_Vector_val@U?$_Simple_types@U?$Group_@V?$allocator@X@std@@@dynamic_reconfigure@@@std@@@std@@@std@@QEAA@PEAU?$Group_@V?$allocator@X@std@@@dynamic_reconfigure@@PEBU_Container_base0@1@@Z
	??0?$_Vector_const_iterator@V?$_Vector_val@U?$_Simple_types@U?$IntParameter_@V?$allocator@X@std@@@dynamic_reconfigure@@@std@@@std@@@std@@QEAA@PEAU?$IntParameter_@V?$allocator@X@std@@@dynamic_reconfigure@@PEBU_Container_base0@1@@Z
	??0?$_Vector_const_iterator@V?$_Vector_val@U?$_Simple_types@U?$ParamDescription_@V?$allocator@X@std@@@dynamic_reconfigure@@@std@@@std@@@std@@QEAA@PEAU?$ParamDescription_@V?$allocator@X@std@@@dynamic_reconfigure@@PEBU_Container_base0@1@@Z
	??0?$_Vector_const_iterator@V?$_Vector_val@U?$_Simple_types@U?$StrParameter_@V?$allocator@X@std@@@dynamic_reconfigure@@@std@@@std@@@std@@QEAA@PEAU?$StrParameter_@V?$allocator@X@std@@@dynamic_reconfigure@@PEBU_Container_base0@1@@Z
	??0?$_Vector_const_iterator@V?$_Vector_val@U?$_Simple_types@V?$shared_ptr@$$CBVAbstractGroupDescription@VideoStreamConfig@video_stream_opencv@@@boost@@@std@@@std@@@std@@QEAA@PEAV?$shared_ptr@$$CBVAbstractGroupDescription@VideoStreamConfig@video_stream_opencv@@@boost@@PEBU_Container_base0@1@@Z
	??0?$_Vector_const_iterator@V?$_Vector_val@U?$_Simple_types@V?$shared_ptr@$$CBVAbstractParamDescription@VideoStreamConfig@video_stream_opencv@@@boost@@@std@@@std@@@std@@QEAA@PEAV?$shared_ptr@$$CBVAbstractParamDescription@VideoStreamConfig@video_stream_opencv@@@boost@@PEBU_Container_base0@1@@Z
	??0?$_Vector_iterator@V?$_Vector_val@U?$_Simple_types@U?$BoolParameter_@V?$allocator@X@std@@@dynamic_reconfigure@@@std@@@std@@@std@@QEAA@PEAU?$BoolParameter_@V?$allocator@X@std@@@dynamic_reconfigure@@PEBU_Container_base0@1@@Z
	??0?$_Vector_iterator@V?$_Vector_val@U?$_Simple_types@U?$DoubleParameter_@V?$allocator@X@std@@@dynamic_reconfigure@@@std@@@std@@@std@@QEAA@PEAU?$DoubleParameter_@V?$allocator@X@std@@@dynamic_reconfigure@@PEBU_Container_base0@1@@Z
	??0?$_Vector_iterator@V?$_Vector_val@U?$_Simple_types@U?$GroupState_@V?$allocator@X@std@@@dynamic_reconfigure@@@std@@@std@@@std@@QEAA@PEAU?$GroupState_@V?$allocator@X@std@@@dynamic_reconfigure@@PEBU_Container_base0@1@@Z
	??0?$_Vector_iterator@V?$_Vector_val@U?$_Simple_types@U?$IntParameter_@V?$allocator@X@std@@@dynamic_reconfigure@@@std@@@std@@@std@@QEAA@PEAU?$IntParameter_@V?$allocator@X@std@@@dynamic_reconfigure@@PEBU_Container_base0@1@@Z
	??0?$_Vector_iterator@V?$_Vector_val@U?$_Simple_types@U?$StrParameter_@V?$allocator@X@std@@@dynamic_reconfigure@@@std@@@std@@@std@@QEAA@PEAU?$StrParameter_@V?$allocator@X@std@@@dynamic_reconfigure@@PEBU_Container_base0@1@@Z
	??0?$_Vector_iterator@V?$_Vector_val@U?$_Simple_types@V?$shared_ptr@$$CBVAbstractGroupDescription@VideoStreamConfig@video_stream_opencv@@@boost@@@std@@@std@@@std@@QEAA@PEAV?$shared_ptr@$$CBVAbstractGroupDescription@VideoStreamConfig@video_stream_opencv@@@boost@@PEBU_Container_base0@1@@Z
	??0?$_Vector_iterator@V?$_Vector_val@U?$_Simple_types@V?$shared_ptr@$$CBVAbstractParamDescription@VideoStreamConfig@video_stream_opencv@@@boost@@@std@@@std@@@std@@QEAA@PEAV?$shared_ptr@$$CBVAbstractParamDescription@VideoStreamConfig@video_stream_opencv@@@boost@@PEBU_Container_base0@1@@Z
	??0?$_Vector_val@U?$_Simple_types@N@std@@@std@@QEAA@PEAN00@Z
	??0?$_Vector_val@U?$_Simple_types@N@std@@@std@@QEAA@XZ
	??0?$_Vector_val@U?$_Simple_types@U?$BoolParameter_@V?$allocator@X@std@@@dynamic_reconfigure@@@std@@@std@@QEAA@XZ
	??0?$_Vector_val@U?$_Simple_types@U?$DoubleParameter_@V?$allocator@X@std@@@dynamic_reconfigure@@@std@@@std@@QEAA@XZ
	??0?$_Vector_val@U?$_Simple_types@U?$GroupState_@V?$allocator@X@std@@@dynamic_reconfigure@@@std@@@std@@QEAA@XZ
	??0?$_Vector_val@U?$_Simple_types@U?$Group_@V?$allocator@X@std@@@dynamic_reconfigure@@@std@@@std@@QEAA@XZ
	??0?$_Vector_val@U?$_Simple_types@U?$IntParameter_@V?$allocator@X@std@@@dynamic_reconfigure@@@std@@@std@@QEAA@XZ
	??0?$_Vector_val@U?$_Simple_types@U?$ParamDescription_@V?$allocator@X@std@@@dynamic_reconfigure@@@std@@@std@@QEAA@PEAU?$ParamDescription_@V?$allocator@X@std@@@dynamic_reconfigure@@00@Z
	??0?$_Vector_val@U?$_Simple_types@U?$ParamDescription_@V?$allocator@X@std@@@dynamic_reconfigure@@@std@@@std@@QEAA@XZ
	??0?$_Vector_val@U?$_Simple_types@U?$StrParameter_@V?$allocator@X@std@@@dynamic_reconfigure@@@std@@@std@@QEAA@XZ
	??0?$_Vector_val@U?$_Simple_types@V?$shared_ptr@$$CBVAbstractGroupDescription@VideoStreamConfig@video_stream_opencv@@@boost@@@std@@@std@@QEAA@XZ
	??0?$_Vector_val@U?$_Simple_types@V?$shared_ptr@$$CBVAbstractParamDescription@VideoStreamConfig@video_stream_opencv@@@boost@@@std@@@std@@QEAA@XZ
	??0?$allocator@D@std@@QEAA@XZ
	??0?$allocator@N@std@@QEAA@XZ
	??0?$allocator@U?$BoolParameter_@V?$allocator@X@std@@@dynamic_reconfigure@@@std@@QEAA@XZ
	??0?$allocator@U?$DoubleParameter_@V?$allocator@X@std@@@dynamic_reconfigure@@@std@@QEAA@XZ
	??0?$allocator@U?$GroupState_@V?$allocator@X@std@@@dynamic_reconfigure@@@std@@QEAA@XZ
	??0?$allocator@U?$Group_@V?$allocator@X@std@@@dynamic_reconfigure@@@std@@QEAA@XZ
	??0?$allocator@U?$IntParameter_@V?$allocator@X@std@@@dynamic_reconfigure@@@std@@QEAA@XZ
	??0?$allocator@U?$ParamDescription_@V?$allocator@X@std@@@dynamic_reconfigure@@@std@@QEAA@XZ
	??0?$allocator@U?$StrParameter_@V?$allocator@X@std@@@dynamic_reconfigure@@@std@@QEAA@XZ
	??0?$allocator@V?$shared_ptr@$$CBVAbstractGroupDescription@VideoStreamConfig@video_stream_opencv@@@boost@@@std@@QEAA@XZ
	??0?$allocator@V?$shared_ptr@$$CBVAbstractParamDescription@VideoStreamConfig@video_stream_opencv@@@boost@@@std@@QEAA@XZ
	??0?$allocator@VMat@cv@@@std@@QEAA@XZ
	??0?$allocator@_W@std@@QEAA@XZ
	??0?$arg@$00@boost@@QEAA@XZ
	??0?$arg@$01@boost@@QEAA@XZ
	??0?$atomic@H@std@@QEAA@H@Z
	??0?$basic_string@DU?$char_traits@D@std@@V?$allocator@D@2@@std@@QEAA@$$QEAV01@@Z
	??0?$basic_string@DU?$char_traits@D@std@@V?$allocator@D@2@@std@@QEAA@AEBV01@@Z
	??0?$basic_string@DU?$char_traits@D@std@@V?$allocator@D@2@@std@@QEAA@QEBD@Z
	??0?$basic_string@DU?$char_traits@D@std@@V?$allocator@D@2@@std@@QEAA@QEBD_K@Z
	??0?$basic_string@DU?$char_traits@D@std@@V?$allocator@D@2@@std@@QEAA@XZ
	??0?$basic_string@DU?$char_traits@D@std@@V?$allocator@D@2@@std@@QEAA@_KD@Z
	??0?$basic_string@_WU?$char_traits@_W@std@@V?$allocator@_W@2@@std@@QEAA@XZ
	??0?$basic_stringbuf@DU?$char_traits@D@std@@V?$allocator@D@2@@std@@QEAA@H@Z
	??0?$basic_stringstream@DU?$char_traits@D@std@@V?$allocator@D@2@@std@@QEAA@XZ
	??0?$bind_t@VSerializedMessage@ros@@P6A?AV12@AEBU?$ConfigDescription_@V?$allocator@X@std@@@dynamic_reconfigure@@@ZV?$list1@V?$reference_wrapper@$$CBU?$ConfigDescription_@V?$allocator@X@std@@@dynamic_reconfigure@@@boost@@@_bi@boost@@@_bi@boost@@QEAA@P6A?AVSerializedMessage@ros@@AEBU?$ConfigDescription_@V?$allocator@X@std@@@dynamic_reconfigure@@@ZAEBV?$list1@V?$reference_wrapper@$$CBU?$ConfigDescription_@V?$allocator@X@std@@@dynamic_reconfigure@@@boost@@@12@@Z
	??0?$bind_t@VSerializedMessage@ros@@P6A?AV12@AEBU?$Config_@V?$allocator@X@std@@@dynamic_reconfigure@@@ZV?$list1@V?$reference_wrapper@$$CBU?$Config_@V?$allocator@X@std@@@dynamic_reconfigure@@@boost@@@_bi@boost@@@_bi@boost@@QEAA@P6A?AVSerializedMessage@ros@@AEBU?$Config_@V?$allocator@X@std@@@dynamic_reconfigure@@@ZAEBV?$list1@V?$reference_wrapper@$$CBU?$Config_@V?$allocator@X@std@@@dynamic_reconfigure@@@boost@@@12@@Z
	??0?$bind_t@XV?$mf0@XVVideoStreamNodelet@video_stream_opencv@@@_mfi@boost@@V?$list1@V?$value@PEAVVideoStreamNodelet@video_stream_opencv@@@_bi@boost@@@_bi@3@@_bi@boost@@QEAA@V?$mf0@XVVideoStreamNodelet@video_stream_opencv@@@_mfi@2@AEBV?$list1@V?$value@PEAVVideoStreamNodelet@video_stream_opencv@@@_bi@boost@@@12@@Z
	??0?$bind_t@XV?$mf1@XVVideoStreamNodelet@video_stream_opencv@@AEBUTimerEvent@ros@@@_mfi@boost@@V?$list2@V?$value@PEAVVideoStreamNodelet@video_stream_opencv@@@_bi@boost@@U?$arg@$00@3@@_bi@3@@_bi@boost@@QEAA@V?$mf1@XVVideoStreamNodelet@video_stream_opencv@@AEBUTimerEvent@ros@@@_mfi@2@AEBV?$list2@V?$value@PEAVVideoStreamNodelet@video_stream_opencv@@@_bi@boost@@U?$arg@$00@3@@12@@Z
	??0?$bind_t@XV?$mf1@XVVideoStreamNodelet@video_stream_opencv@@AEBVSingleSubscriberPublisher@image_transport@@@_mfi@boost@@V?$list2@V?$value@PEAVVideoStreamNodelet@video_stream_opencv@@@_bi@boost@@U?$arg@$00@3@@_bi@3@@_bi@boost@@QEAA@V?$mf1@XVVideoStreamNodelet@video_stream_opencv@@AEBVSingleSubscriberPublisher@image_transport@@@_mfi@2@AEBV?$list2@V?$value@PEAVVideoStreamNodelet@video_stream_opencv@@@_bi@boost@@U?$arg@$00@3@@12@@Z
	??0?$bind_t@XV?$mf1@XVVideoStreamNodelet@video_stream_opencv@@AEBVSingleSubscriberPublisher@ros@@@_mfi@boost@@V?$list2@V?$value@PEAVVideoStreamNodelet@video_stream_opencv@@@_bi@boost@@U?$arg@$00@3@@_bi@3@@_bi@boost@@QEAA@V?$mf1@XVVideoStreamNodelet@video_stream_opencv@@AEBVSingleSubscriberPublisher@ros@@@_mfi@2@AEBV?$list2@V?$value@PEAVVideoStreamNodelet@video_stream_opencv@@@_bi@boost@@U?$arg@$00@3@@12@@Z
	??0?$bind_t@XV?$mf2@XVVideoStreamNodelet@video_stream_opencv@@AEAVVideoStreamConfig@2@I@_mfi@boost@@V?$list3@V?$value@PEAVVideoStreamNodelet@video_stream_opencv@@@_bi@boost@@U?$arg@$00@3@U?$arg@$01@3@@_bi@3@@_bi@boost@@QEAA@V?$mf2@XVVideoStreamNodelet@video_stream_opencv@@AEAVVideoStreamConfig@2@I@_mfi@2@AEBV?$list3@V?$value@PEAVVideoStreamNodelet@video_stream_opencv@@@_bi@boost@@U?$arg@$00@3@U?$arg@$01@3@@12@@Z
	??0?$bind_t@_NV?$mf2@_NV?$Server@VVideoStreamConfig@video_stream_opencv@@@dynamic_reconfigure@@AEAU?$ReconfigureRequest_@V?$allocator@X@std@@@2@AEAU?$ReconfigureResponse_@V?$allocator@X@std@@@2@@_mfi@boost@@V?$list3@V?$value@PEAV?$Server@VVideoStreamConfig@video_stream_opencv@@@dynamic_reconfigure@@@_bi@boost@@U?$arg@$00@3@U?$arg@$01@3@@_bi@3@@_bi@boost@@QEAA@V?$mf2@_NV?$Server@VVideoStreamConfig@video_stream_opencv@@@dynamic_reconfigure@@AEAU?$ReconfigureRequest_@V?$allocator@X@std@@@2@AEAU?$ReconfigureResponse_@V?$allocator@X@std@@@2@@_mfi@2@AEBV?$list3@V?$value@PEAV?$Server@VVideoStreamConfig@video_stream_opencv@@@dynamic_reconfigure@@@_bi@boost@@U?$arg@$00@3@U?$arg@$01@3@@12@@Z
	??0?$deque@NV?$allocator@N@std@@@std@@QEAA@$$QEAV01@@Z
	??0?$deque@NV?$allocator@N@std@@@std@@QEAA@XZ
	??0?$deque@VMat@cv@@V?$allocator@VMat@cv@@@std@@@std@@QEAA@XZ
	??0?$error_info@Uthrow_file_@boost@@PEBD@boost@@QEAA@PEBD@Z
	??0?$error_info@Uthrow_function_@boost@@PEBD@boost@@QEAA@PEBD@Z
	??0?$error_info@Uthrow_line_@boost@@H@boost@@QEAA@H@Z
	??0?$fpos@U_Mbstatet@@@std@@QEAA@_J@Z
	??0?$function0@V?$shared_ptr@U?$ReconfigureRequest_@V?$allocator@X@std@@@dynamic_reconfigure@@@boost@@@boost@@QEAA@AEBV01@@Z
	??0?$function0@V?$shared_ptr@U?$ReconfigureResponse_@V?$allocator@X@std@@@dynamic_reconfigure@@@boost@@@boost@@QEAA@AEBV01@@Z
	??0?$function1@XAEBVSingleSubscriberPublisher@ros@@@boost@@QEAA@AEBV01@@Z
	??0?$function1@XAEBVSingleSubscriberPublisher@ros@@@boost@@QEAA@XZ
	??0?$function2@XAEAVVideoStreamConfig@video_stream_opencv@@I@boost@@QEAA@AEBV01@@Z
	??0?$function2@XAEAVVideoStreamConfig@video_stream_opencv@@I@boost@@QEAA@XZ
	??0?$function2@_NAEAU?$ReconfigureRequest_@V?$allocator@X@std@@@dynamic_reconfigure@@AEAU?$ReconfigureResponse_@V?$allocator@X@std@@@2@@boost@@QEAA@AEBV01@@Z
	??0?$function@$$A6A?AV?$shared_ptr@U?$ReconfigureRequest_@V?$allocator@X@std@@@dynamic_reconfigure@@@boost@@XZ@boost@@QEAA@AEBV01@@Z
	??0?$function@$$A6A?AV?$shared_ptr@U?$ReconfigureResponse_@V?$allocator@X@std@@@dynamic_reconfigure@@@boost@@XZ@boost@@QEAA@AEBV01@@Z
	??0?$function@$$A6AXAEAVVideoStreamConfig@video_stream_opencv@@I@Z@boost@@QEAA@AEBV01@@Z
	??0?$function@$$A6AXAEAVVideoStreamConfig@video_stream_opencv@@I@Z@boost@@QEAA@XZ
	??0?$function@$$A6AXAEBVSingleSubscriberPublisher@ros@@@Z@boost@@QEAA@AEBV01@@Z
	??0?$function@$$A6AXAEBVSingleSubscriberPublisher@ros@@@Z@boost@@QEAA@XZ
	??0?$function@$$A6A_NAEAU?$ReconfigureRequest_@V?$allocator@X@std@@@dynamic_reconfigure@@AEAU?$ReconfigureResponse_@V?$allocator@X@std@@@2@@Z@boost@@QEAA@AEBV01@@Z
	??0?$generic_list@N@assign_detail@boost@@QEAA@$$QEAV012@@Z
	??0?$generic_list@N@assign_detail@boost@@QEAA@XZ
	??0?$holder@H@any@boost@@QEAA@AEBH@Z
	??0?$holder@N@any@boost@@QEAA@AEBN@Z
	??0?$holder@PEAVDEFAULT@VideoStreamConfig@video_stream_opencv@@@any@boost@@QEAA@$$QEAPEAVDEFAULT@VideoStreamConfig@video_stream_opencv@@@Z
	??0?$holder@PEAVDEFAULT@VideoStreamConfig@video_stream_opencv@@@any@boost@@QEAA@AEBQEAVDEFAULT@VideoStreamConfig@video_stream_opencv@@@Z
	??0?$holder@PEAVVideoStreamConfig@video_stream_opencv@@@any@boost@@QEAA@$$QEAPEAVVideoStreamConfig@video_stream_opencv@@@Z
	??0?$holder@PEAVVideoStreamConfig@video_stream_opencv@@@any@boost@@QEAA@AEBQEAVVideoStreamConfig@video_stream_opencv@@@Z
	??0?$holder@V?$basic_string@DU?$char_traits@D@std@@V?$allocator@D@2@@std@@@any@boost@@QEAA@AEBV?$basic_string@DU?$char_traits@D@std@@V?$allocator@D@2@@std@@@Z
	??0?$holder@VDEFAULT@VideoStreamConfig@video_stream_opencv@@@any@boost@@QEAA@AEBVDEFAULT@VideoStreamConfig@video_stream_opencv@@@Z
	??0?$holder@VVideoStreamConfig@video_stream_opencv@@@any@boost@@QEAA@AEBVVideoStreamConfig@video_stream_opencv@@@Z
	??0?$holder@_N@any@boost@@QEAA@AEB_N@Z
	??0?$intrusive_ptr@Uthread_data_base@detail@boost@@@boost@@QEAA@PEAUthread_data_base@detail@1@_N@Z
	??0?$list1@V?$reference_wrapper@$$CBU?$ConfigDescription_@V?$allocator@X@std@@@dynamic_reconfigure@@@boost@@@_bi@boost@@QEAA@V?$reference_wrapper@$$CBU?$ConfigDescription_@V?$allocator@X@std@@@dynamic_reconfigure@@@2@@Z
	??0?$list1@V?$reference_wrapper@$$CBU?$Config_@V?$allocator@X@std@@@dynamic_reconfigure@@@boost@@@_bi@boost@@QEAA@V?$reference_wrapper@$$CBU?$Config_@V?$allocator@X@std@@@dynamic_reconfigure@@@2@@Z
	??0?$list1@V?$value@PEAVVideoStreamNodelet@video_stream_opencv@@@_bi@boost@@@_bi@boost@@QEAA@V?$value@PEAVVideoStreamNodelet@video_stream_opencv@@@12@@Z
	??0?$list2@V?$value@PEAVVideoStreamNodelet@video_stream_opencv@@@_bi@boost@@U?$arg@$00@3@@_bi@boost@@QEAA@V?$value@PEAVVideoStreamNodelet@video_stream_opencv@@@12@U?$arg@$00@2@@Z
	??0?$list3@V?$value@PEAV?$Server@VVideoStreamConfig@video_stream_opencv@@@dynamic_reconfigure@@@_bi@boost@@U?$arg@$00@3@U?$arg@$01@3@@_bi@boost@@QEAA@V?$value@PEAV?$Server@VVideoStreamConfig@video_stream_opencv@@@dynamic_reconfigure@@@12@U?$arg@$00@2@U?$arg@$01@2@@Z
	??0?$list3@V?$value@PEAVVideoStreamNodelet@video_stream_opencv@@@_bi@boost@@U?$arg@$00@3@U?$arg@$01@3@@_bi@boost@@QEAA@V?$value@PEAVVideoStreamNodelet@video_stream_opencv@@@12@U?$arg@$00@2@U?$arg@$01@2@@Z
	??0?$lock_guard@Vmutex@std@@@std@@QEAA@AEAVmutex@1@@Z
	??0?$mf0@XVVideoStreamNodelet@video_stream_opencv@@@_mfi@boost@@QEAA@P8VideoStreamNodelet@video_stream_opencv@@EAAXXZ@Z
	??0?$mf1@XVVideoStreamNodelet@video_stream_opencv@@AEBUTimerEvent@ros@@@_mfi@boost@@QEAA@P8VideoStreamNodelet@video_stream_opencv@@EAAXAEBUTimerEvent@ros@@@Z@Z
	??0?$mf1@XVVideoStreamNodelet@video_stream_opencv@@AEBVSingleSubscriberPublisher@image_transport@@@_mfi@boost@@QEAA@P8VideoStreamNodelet@video_stream_opencv@@EAAXAEBVSingleSubscriberPublisher@image_transport@@@Z@Z
	??0?$mf1@XVVideoStreamNodelet@video_stream_opencv@@AEBVSingleSubscriberPublisher@ros@@@_mfi@boost@@QEAA@P8VideoStreamNodelet@video_stream_opencv@@EAAXAEBVSingleSubscriberPublisher@ros@@@Z@Z
	??0?$mf2@XVVideoStreamNodelet@video_stream_opencv@@AEAVVideoStreamConfig@2@I@_mfi@boost@@QEAA@P8VideoStreamNodelet@video_stream_opencv@@EAAXAEAVVideoStreamConfig@4@I@Z@Z
	??0?$mf2@_NV?$Server@VVideoStreamConfig@video_stream_opencv@@@dynamic_reconfigure@@AEAU?$ReconfigureRequest_@V?$allocator@X@std@@@2@AEAU?$ReconfigureResponse_@V?$allocator@X@std@@@2@@_mfi@boost@@QEAA@P8?$Server@VVideoStreamConfig@video_stream_opencv@@@dynamic_reconfigure@@EAA_NAEAU?$ReconfigureRequest_@V?$allocator@X@std@@@4@AEAU?$ReconfigureResponse_@V?$allocator@X@std@@@4@@Z@Z
	??0?$ostream_guard@DU?$char_traits@D@std@@@detail@io@boost@@QEAA@AEAV?$basic_ostream@DU?$char_traits@D@std@@@std@@@Z
	??0?$queue@VMat@cv@@V?$deque@VMat@cv@@V?$allocator@VMat@cv@@@std@@@std@@@std@@QEAA@XZ
	??0?$refcount_ptr@Uerror_info_container@exception_detail@boost@@@exception_detail@boost@@QEAA@AEBV012@@Z
	??0?$refcount_ptr@Uerror_info_container@exception_detail@boost@@@exception_detail@boost@@QEAA@XZ
	??0?$reference_wrapper@$$CBU?$ConfigDescription_@V?$allocator@X@std@@@dynamic_reconfigure@@@boost@@QEAA@AEBU?$ConfigDescription_@V?$allocator@X@std@@@dynamic_reconfigure@@@Z
	??0?$reference_wrapper@$$CBU?$Config_@V?$allocator@X@std@@@dynamic_reconfigure@@@boost@@QEAA@AEBU?$Config_@V?$allocator@X@std@@@dynamic_reconfigure@@@Z
	??0?$rrlist1@AEBUTimerEvent@ros@@@_bi@boost@@QEAA@AEBUTimerEvent@ros@@@Z
	??0?$rrlist1@AEBVSingleSubscriberPublisher@image_transport@@@_bi@boost@@QEAA@AEBVSingleSubscriberPublisher@image_transport@@@Z
	??0?$rrlist1@AEBVSingleSubscriberPublisher@ros@@@_bi@boost@@QEAA@AEBVSingleSubscriberPublisher@ros@@@Z
	??0?$rrlist2@AEAU?$ReconfigureRequest_@V?$allocator@X@std@@@dynamic_reconfigure@@AEAU?$ReconfigureResponse_@V?$allocator@X@std@@@2@@_bi@boost@@QEAA@AEAU?$ReconfigureRequest_@V?$allocator@X@std@@@dynamic_reconfigure@@AEAU?$ReconfigureResponse_@V?$allocator@X@std@@@4@@Z
	??0?$rrlist2@AEAVVideoStreamConfig@video_stream_opencv@@I@_bi@boost@@QEAA@AEAVVideoStreamConfig@video_stream_opencv@@AEAI@Z
	??0?$shared_ptr@$$CBVAbstractGroupDescription@VideoStreamConfig@video_stream_opencv@@@boost@@QEAA@$$QEAV01@@Z
	??0?$shared_ptr@$$CBVAbstractGroupDescription@VideoStreamConfig@video_stream_opencv@@@boost@@QEAA@AEBV01@@Z
	??0?$shared_ptr@$$CBVAbstractParamDescription@VideoStreamConfig@video_stream_opencv@@@boost@@QEAA@$$QEAV01@@Z
	??0?$shared_ptr@$$CBVAbstractParamDescription@VideoStreamConfig@video_stream_opencv@@@boost@@QEAA@AEBV01@@Z
	??0?$shared_ptr@$$CBX@boost@@QEAA@XZ
	??0?$shared_ptr@U?$Image_@V?$allocator@X@std@@@sensor_msgs@@@boost@@QEAA@$$QEAV01@@Z
	??0?$shared_ptr@U?$Image_@V?$allocator@X@std@@@sensor_msgs@@@boost@@QEAA@AEBV01@@Z
	??0?$shared_ptr@U?$Image_@V?$allocator@X@std@@@sensor_msgs@@@boost@@QEAA@XZ
	??0?$shared_ptr@U?$ReconfigureRequest_@V?$allocator@X@std@@@dynamic_reconfigure@@@boost@@QEAA@$$QEAV01@@Z
	??0?$shared_ptr@U?$ReconfigureRequest_@V?$allocator@X@std@@@dynamic_reconfigure@@@boost@@QEAA@AEBV01@@Z
	??0?$shared_ptr@U?$ReconfigureRequest_@V?$allocator@X@std@@@dynamic_reconfigure@@@boost@@QEAA@XZ
	??0?$shared_ptr@U?$ReconfigureResponse_@V?$allocator@X@std@@@dynamic_reconfigure@@@boost@@QEAA@$$QEAV01@@Z
	??0?$shared_ptr@U?$ReconfigureResponse_@V?$allocator@X@std@@@dynamic_reconfigure@@@boost@@QEAA@AEBV01@@Z
	??0?$shared_ptr@U?$ReconfigureResponse_@V?$allocator@X@std@@@dynamic_reconfigure@@@boost@@QEAA@XZ
	??0?$shared_ptr@V?$Server@VVideoStreamConfig@video_stream_opencv@@@dynamic_reconfigure@@@boost@@QEAA@$$QEAV01@@Z
	??0?$shared_ptr@V?$Server@VVideoStreamConfig@video_stream_opencv@@@dynamic_reconfigure@@@boost@@QEAA@XZ
	??0?$shared_ptr@V?$map@V?$basic_string@DU?$char_traits@D@std@@V?$allocator@D@2@@std@@V12@U?$less@V?$basic_string@DU?$char_traits@D@std@@V?$allocator@D@2@@std@@@2@V?$allocator@U?$pair@$$CBV?$basic_string@DU?$char_traits@D@std@@V?$allocator@D@2@@std@@V12@@std@@@2@@std@@@boost@@QEAA@AEBV01@@Z
	??0?$shared_ptr@V?$map@V?$basic_string@DU?$char_traits@D@std@@V?$allocator@D@2@@std@@V12@U?$less@V?$basic_string@DU?$char_traits@D@std@@V?$allocator@D@2@@std@@@2@V?$allocator@U?$pair@$$CBV?$basic_string@DU?$char_traits@D@std@@V?$allocator@D@2@@std@@V12@@std@@@2@@std@@@boost@@QEAA@XZ
	??0?$shared_ptr@VCvImage@cv_bridge@@@boost@@QEAA@$$QEAV01@@Z
	??0?$shared_ptr@VNodeHandle@ros@@@boost@@QEAA@XZ
	??0?$shared_ptr@VVideoCapture@cv@@@boost@@QEAA@XZ
	??0?$shared_ptr@X@boost@@QEAA@XZ
	??0?$sp_counted_impl_p@V?$GroupDescription@VDEFAULT@VideoStreamConfig@video_stream_opencv@@V23@@VideoStreamConfig@video_stream_opencv@@@detail@boost@@QEAA@PEAV?$GroupDescription@VDEFAULT@VideoStreamConfig@video_stream_opencv@@V23@@VideoStreamConfig@video_stream_opencv@@@Z
	??0?$sp_counted_impl_p@V?$ParamDescription@H@VideoStreamConfig@video_stream_opencv@@@detail@boost@@QEAA@PEAV?$ParamDescription@H@VideoStreamConfig@video_stream_opencv@@@Z
	??0?$sp_counted_impl_p@V?$ParamDescription@N@VideoStreamConfig@video_stream_opencv@@@detail@boost@@QEAA@PEAV?$ParamDescription@N@VideoStreamConfig@video_stream_opencv@@@Z
	??0?$sp_counted_impl_p@V?$ParamDescription@V?$basic_string@DU?$char_traits@D@std@@V?$allocator@D@2@@std@@@VideoStreamConfig@video_stream_opencv@@@detail@boost@@QEAA@PEAV?$ParamDescription@V?$basic_string@DU?$char_traits@D@std@@V?$allocator@D@2@@std@@@VideoStreamConfig@video_stream_opencv@@@Z
	??0?$sp_counted_impl_p@V?$ParamDescription@_N@VideoStreamConfig@video_stream_opencv@@@detail@boost@@QEAA@PEAV?$ParamDescription@_N@VideoStreamConfig@video_stream_opencv@@@Z
	??0?$sp_counted_impl_p@VNodeHandle@ros@@@detail@boost@@QEAA@PEAVNodeHandle@ros@@@Z
	??0?$sp_counted_impl_p@VVideoCapture@cv@@@detail@boost@@QEAA@PEAVVideoCapture@cv@@@Z
	??0?$sp_counted_impl_pd@PEAEU?$checked_array_deleter@E@boost@@@detail@boost@@QEAA@PEAEAEAU?$checked_array_deleter@E@2@@Z
	??0?$sp_counted_impl_pd@PEAU?$ReconfigureRequest_@V?$allocator@X@std@@@dynamic_reconfigure@@V?$sp_ms_deleter@U?$ReconfigureRequest_@V?$allocator@X@std@@@dynamic_reconfigure@@@detail@boost@@@detail@boost@@QEAA@PEAU?$ReconfigureRequest_@V?$allocator@X@std@@@dynamic_reconfigure@@@Z
	??0?$sp_counted_impl_pd@PEAU?$ReconfigureResponse_@V?$allocator@X@std@@@dynamic_reconfigure@@V?$sp_ms_deleter@U?$ReconfigureResponse_@V?$allocator@X@std@@@dynamic_reconfigure@@@detail@boost@@@detail@boost@@QEAA@PEAU?$ReconfigureResponse_@V?$allocator@X@std@@@dynamic_reconfigure@@@Z
	??0?$sp_counted_impl_pd@PEAV?$Server@VVideoStreamConfig@video_stream_opencv@@@dynamic_reconfigure@@V?$sp_ms_deleter@V?$Server@VVideoStreamConfig@video_stream_opencv@@@dynamic_reconfigure@@@detail@boost@@@detail@boost@@QEAA@PEAV?$Server@VVideoStreamConfig@video_stream_opencv@@@dynamic_reconfigure@@@Z
	??0?$sp_counted_impl_pd@PEAV?$ServiceCallbackHelperT@U?$ServiceSpec@U?$ReconfigureRequest_@V?$allocator@X@std@@@dynamic_reconfigure@@U?$ReconfigureResponse_@V?$allocator@X@std@@@2@@ros@@@ros@@V?$sp_ms_deleter@V?$ServiceCallbackHelperT@U?$ServiceSpec@U?$ReconfigureRequest_@V?$allocator@X@std@@@dynamic_reconfigure@@U?$ReconfigureResponse_@V?$allocator@X@std@@@2@@ros@@@ros@@@detail@boost@@@detail@boost@@QEAA@PEAV?$ServiceCallbackHelperT@U?$ServiceSpec@U?$ReconfigureRequest_@V?$allocator@X@std@@@dynamic_reconfigure@@U?$ReconfigureResponse_@V?$allocator@X@std@@@2@@ros@@@ros@@@Z
	??0?$sp_counted_impl_pd@PEAVCvImage@cv_bridge@@V?$sp_ms_deleter@VCvImage@cv_bridge@@@detail@boost@@@detail@boost@@QEAA@PEAVCvImage@cv_bridge@@@Z
	??0?$sp_ms_deleter@U?$ReconfigureRequest_@V?$allocator@X@std@@@dynamic_reconfigure@@@detail@boost@@QEAA@XZ
	??0?$sp_ms_deleter@U?$ReconfigureResponse_@V?$allocator@X@std@@@dynamic_reconfigure@@@detail@boost@@QEAA@XZ
	??0?$sp_ms_deleter@V?$Server@VVideoStreamConfig@video_stream_opencv@@@dynamic_reconfigure@@@detail@boost@@QEAA@XZ
	??0?$sp_ms_deleter@V?$ServiceCallbackHelperT@U?$ServiceSpec@U?$ReconfigureRequest_@V?$allocator@X@std@@@dynamic_reconfigure@@U?$ReconfigureResponse_@V?$allocator@X@std@@@2@@ros@@@ros@@@detail@boost@@QEAA@XZ
	??0?$sp_ms_deleter@VCvImage@cv_bridge@@@detail@boost@@QEAA@XZ
	??0?$storage1@V?$reference_wrapper@$$CBU?$ConfigDescription_@V?$allocator@X@std@@@dynamic_reconfigure@@@boost@@@_bi@boost@@QEAA@V?$reference_wrapper@$$CBU?$ConfigDescription_@V?$allocator@X@std@@@dynamic_reconfigure@@@2@@Z
	??0?$storage1@V?$reference_wrapper@$$CBU?$Config_@V?$allocator@X@std@@@dynamic_reconfigure@@@boost@@@_bi@boost@@QEAA@V?$reference_wrapper@$$CBU?$Config_@V?$allocator@X@std@@@dynamic_reconfigure@@@2@@Z
	??0?$storage1@V?$value@PEAV?$Server@VVideoStreamConfig@video_stream_opencv@@@dynamic_reconfigure@@@_bi@boost@@@_bi@boost@@QEAA@V?$value@PEAV?$Server@VVideoStreamConfig@video_stream_opencv@@@dynamic_reconfigure@@@12@@Z
	??0?$storage1@V?$value@PEAVVideoStreamNodelet@video_stream_opencv@@@_bi@boost@@@_bi@boost@@QEAA@V?$value@PEAVVideoStreamNodelet@video_stream_opencv@@@12@@Z
	??0?$storage2@V?$value@PEAV?$Server@VVideoStreamConfig@video_stream_opencv@@@dynamic_reconfigure@@@_bi@boost@@U?$arg@$00@3@@_bi@boost@@QEAA@V?$value@PEAV?$Server@VVideoStreamConfig@video_stream_opencv@@@dynamic_reconfigure@@@12@U?$arg@$00@2@@Z
	??0?$storage2@V?$value@PEAVVideoStreamNodelet@video_stream_opencv@@@_bi@boost@@U?$arg@$00@3@@_bi@boost@@QEAA@V?$value@PEAVVideoStreamNodelet@video_stream_opencv@@@12@U?$arg@$00@2@@Z
	??0?$storage3@V?$value@PEAV?$Server@VVideoStreamConfig@video_stream_opencv@@@dynamic_reconfigure@@@_bi@boost@@U?$arg@$00@3@U?$arg@$01@3@@_bi@boost@@QEAA@V?$value@PEAV?$Server@VVideoStreamConfig@video_stream_opencv@@@dynamic_reconfigure@@@12@U?$arg@$00@2@U?$arg@$01@2@@Z
	??0?$storage3@V?$value@PEAVVideoStreamNodelet@video_stream_opencv@@@_bi@boost@@U?$arg@$00@3@U?$arg@$01@3@@_bi@boost@@QEAA@V?$value@PEAVVideoStreamNodelet@video_stream_opencv@@@12@U?$arg@$00@2@U?$arg@$01@2@@Z
	??0?$thread_data@V?$bind_t@XV?$mf0@XVVideoStreamNodelet@video_stream_opencv@@@_mfi@boost@@V?$list1@V?$value@PEAVVideoStreamNodelet@video_stream_opencv@@@_bi@boost@@@_bi@3@@_bi@boost@@@detail@boost@@QEAA@$$QEAV?$bind_t@XV?$mf0@XVVideoStreamNodelet@video_stream_opencv@@@_mfi@boost@@V?$list1@V?$value@PEAVVideoStreamNodelet@video_stream_opencv@@@_bi@boost@@@_bi@3@@_bi@2@@Z
	??0?$tuple@$$V@std@@QEAA@AEBV01@@Z
	??0?$tuple@AEBV?$basic_string@DU?$char_traits@D@std@@V?$allocator@D@2@@std@@@std@@QEAA@$$QEAV01@@Z
	??0?$unique_lock@Vmutex@boost@@@boost@@QEAA@AEAVmutex@1@@Z
	??0?$unique_lock@Vrecursive_mutex@boost@@@boost@@QEAA@AEAVrecursive_mutex@1@@Z
	??0?$value@PEAV?$Server@VVideoStreamConfig@video_stream_opencv@@@dynamic_reconfigure@@@_bi@boost@@QEAA@AEBQEAV?$Server@VVideoStreamConfig@video_stream_opencv@@@dynamic_reconfigure@@@Z
	??0?$value@PEAVVideoStreamNodelet@video_stream_opencv@@@_bi@boost@@QEAA@AEBQEAVVideoStreamNodelet@video_stream_opencv@@@Z
	??0?$vector@NV?$allocator@N@std@@@std@@QEAA@$$QEAV01@@Z
	??0?$vector@NV?$allocator@N@std@@@std@@QEAA@XZ
	??0?$vector@U?$BoolParameter_@V?$allocator@X@std@@@dynamic_reconfigure@@V?$allocator@U?$BoolParameter_@V?$allocator@X@std@@@dynamic_reconfigure@@@std@@@std@@QEAA@XZ
	??0?$vector@U?$DoubleParameter_@V?$allocator@X@std@@@dynamic_reconfigure@@V?$allocator@U?$DoubleParameter_@V?$allocator@X@std@@@dynamic_reconfigure@@@std@@@std@@QEAA@XZ
	??0?$vector@U?$GroupState_@V?$allocator@X@std@@@dynamic_reconfigure@@V?$allocator@U?$GroupState_@V?$allocator@X@std@@@dynamic_reconfigure@@@std@@@std@@QEAA@XZ
	??0?$vector@U?$Group_@V?$allocator@X@std@@@dynamic_reconfigure@@V?$allocator@U?$Group_@V?$allocator@X@std@@@dynamic_reconfigure@@@std@@@std@@QEAA@XZ
	??0?$vector@U?$IntParameter_@V?$allocator@X@std@@@dynamic_reconfigure@@V?$allocator@U?$IntParameter_@V?$allocator@X@std@@@dynamic_reconfigure@@@std@@@std@@QEAA@XZ
	??0?$vector@U?$ParamDescription_@V?$allocator@X@std@@@dynamic_reconfigure@@V?$allocator@U?$ParamDescription_@V?$allocator@X@std@@@dynamic_reconfigure@@@std@@@std@@QEAA@$$QEAV01@@Z
	??0?$vector@U?$ParamDescription_@V?$allocator@X@std@@@dynamic_reconfigure@@V?$allocator@U?$ParamDescription_@V?$allocator@X@std@@@dynamic_reconfigure@@@std@@@std@@QEAA@AEBV01@@Z
	??0?$vector@U?$ParamDescription_@V?$allocator@X@std@@@dynamic_reconfigure@@V?$allocator@U?$ParamDescription_@V?$allocator@X@std@@@dynamic_reconfigure@@@std@@@std@@QEAA@XZ
	??0?$vector@U?$StrParameter_@V?$allocator@X@std@@@dynamic_reconfigure@@V?$allocator@U?$StrParameter_@V?$allocator@X@std@@@dynamic_reconfigure@@@std@@@std@@QEAA@XZ
	??0?$vector@V?$shared_ptr@$$CBVAbstractGroupDescription@VideoStreamConfig@video_stream_opencv@@@boost@@V?$allocator@V?$shared_ptr@$$CBVAbstractGroupDescription@VideoStreamConfig@video_stream_opencv@@@boost@@@std@@@std@@QEAA@AEBV01@@Z
	??0?$vector@V?$shared_ptr@$$CBVAbstractGroupDescription@VideoStreamConfig@video_stream_opencv@@@boost@@V?$allocator@V?$shared_ptr@$$CBVAbstractGroupDescription@VideoStreamConfig@video_stream_opencv@@@boost@@@std@@@std@@QEAA@XZ
	??0?$vector@V?$shared_ptr@$$CBVAbstractParamDescription@VideoStreamConfig@video_stream_opencv@@@boost@@V?$allocator@V?$shared_ptr@$$CBVAbstractParamDescription@VideoStreamConfig@video_stream_opencv@@@boost@@@std@@@std@@QEAA@AEBV01@@Z
	??0?$vector@V?$shared_ptr@$$CBVAbstractParamDescription@VideoStreamConfig@video_stream_opencv@@@boost@@V?$allocator@V?$shared_ptr@$$CBVAbstractParamDescription@VideoStreamConfig@video_stream_opencv@@@boost@@@std@@@std@@QEAA@XZ
	??0?$wrapexcept@Vassignment_exception@assign@boost@@@boost@@QEAA@AEBU01@@Z
	??0?$wrapexcept@Vassignment_exception@assign@boost@@@boost@@QEAA@AEBVassignment_exception@assign@1@AEBUsource_location@1@@Z
	??0?$wrapexcept@Vbad_alloc@std@@@boost@@QEAA@AEBU01@@Z
	??0?$wrapexcept@Vbad_alloc@std@@@boost@@QEAA@AEBVbad_alloc@std@@@Z
	??0?$wrapexcept@Vbad_any_cast@boost@@@boost@@QEAA@AEBU01@@Z
	??0?$wrapexcept@Vbad_any_cast@boost@@@boost@@QEAA@AEBVbad_any_cast@1@@Z
	??0?$wrapexcept@Vbad_function_call@boost@@@boost@@QEAA@AEBU01@@Z
	??0?$wrapexcept@Vbad_function_call@boost@@@boost@@QEAA@AEBVbad_function_call@1@@Z
	??0?$wrapexcept@Vlock_error@boost@@@boost@@QEAA@AEBU01@@Z
	??0?$wrapexcept@Vlock_error@boost@@@boost@@QEAA@AEBVlock_error@1@@Z
	??0?$wrapexcept@Vthread_resource_error@boost@@@boost@@QEAA@AEBU01@@Z
	??0?$wrapexcept@Vthread_resource_error@boost@@@boost@@QEAA@AEBVthread_resource_error@1@@Z
	??0AbstractGroupDescription@VideoStreamConfig@video_stream_opencv@@QEAA@V?$basic_string@DU?$char_traits@D@std@@V?$allocator@D@2@@std@@0HH_N@Z
	??0AbstractParamDescription@VideoStreamConfig@video_stream_opencv@@QEAA@V?$basic_string@DU?$char_traits@D@std@@V?$allocator@D@2@@std@@0I00@Z
	??0CvImage@cv_bridge@@QEAA@AEBU?$Header_@V?$allocator@X@std@@@std_msgs@@AEBV?$basic_string@DU?$char_traits@D@std@@V?$allocator@D@2@@std@@AEBVMat@cv@@@Z
	??0DEFAULT@VideoStreamConfig@video_stream_opencv@@QEAA@AEBV012@@Z
	??0DEFAULT@VideoStreamConfig@video_stream_opencv@@QEAA@XZ
	??0Mat@cv@@QEAA@$$QEAV01@@Z
	??0Mat@cv@@QEAA@AEBV01@@Z
	??0Mat@cv@@QEAA@XZ
	??0MatSize@cv@@QEAA@PEAH@Z
	??0MatStep@cv@@QEAA@XZ
	??0MatStep@cv@@QEAA@_K@Z
	??0VideoStreamConfig@video_stream_opencv@@QEAA@AEBV01@@Z
	??0VideoStreamConfig@video_stream_opencv@@QEAA@XZ
	??0VideoStreamConfigStatics@video_stream_opencv@@AEAA@XZ
	??0VideoStreamNodelet@video_stream_opencv@@QEAA@XZ
	??0_Bxty@?$_String_val@U?$_Simple_types@D@std@@@std@@QEAA@XZ
	??0_Bxty@?$_String_val@U?$_Simple_types@_W@std@@@std@@QEAA@XZ
	??0_Container_base12@std@@QEAA@XZ
	??0_Container_proxy@std@@QEAA@PEAU_Container_base12@1@@Z
	??0_Fake_proxy_ptr_impl@std@@QEAA@AEBU_Fake_allocator@1@AEBU_Container_base0@1@@Z
	??0_InputArray@cv@@QEAA@AEBVMat@1@@Z
	??0_InputArray@cv@@QEAA@XZ
	??0_Iterator_base12@std@@QEAA@XZ
	??0_Mutex_base@std@@QEAA@H@Z
	??0_OutputArray@cv@@QEAA@AEAVMat@1@@Z
	??0_Sentry_base@?$basic_ostream@DU?$char_traits@D@std@@@std@@QEAA@AEAV12@@Z
	??0any@boost@@QEAA@XZ
	??0assignment_exception@assign@boost@@QEAA@AEBV012@@Z
	??0assignment_exception@assign@boost@@QEAA@PEBD@Z
	??0bad_alloc@std@@AEAA@QEBD@Z
	??0bad_alloc@std@@QEAA@AEBV01@@Z
	??0bad_alloc@std@@QEAA@XZ
	??0bad_any_cast@boost@@QEAA@AEBV01@@Z
	??0bad_any_cast@boost@@QEAA@XZ
	??0bad_array_new_length@std@@QEAA@AEBV01@@Z
	??0bad_array_new_length@std@@QEAA@XZ
	??0bad_cast@std@@QEAA@AEBV01@@Z
	??0bad_cast@std@@QEAA@XZ
	??0bad_function_call@boost@@QEAA@AEBV01@@Z
	??0bad_function_call@boost@@QEAA@XZ
	??0clone_base@exception_detail@boost@@QEAA@AEBV012@@Z
	??0clone_base@exception_detail@boost@@QEAA@XZ
	??0error_code@system@boost@@QEAA@HAEBVerror_category@12@@Z
	??0error_condition@system@boost@@QEAA@HAEBVerror_category@12@@Z
	??0exception@boost@@IEAA@XZ
	??0exception@boost@@QEAA@AEBV01@@Z
	??0exception@std@@QEAA@AEBV01@@Z
	??0exception@std@@QEAA@QEBD@Z
	??0exception@std@@QEAA@QEBDH@Z
	??0exception@std@@QEAA@XZ
	??0function_base@boost@@QEAA@XZ
	??0list0@_bi@boost@@QEAA@XZ
	??0lock_error@boost@@QEAA@AEBV01@@Z
	??0lock_error@boost@@QEAA@HPEBD@Z
	??0mutex@std@@QEAA@XZ
	??0placeholder@any@boost@@QEAA@XZ
	??0recursive_mutex@boost@@QEAA@XZ
	??0runtime_error@std@@QEAA@AEBV01@@Z
	??0runtime_error@std@@QEAA@PEBD@Z
	??0sentry@?$basic_ostream@DU?$char_traits@D@std@@@std@@QEAA@AEAV12@@Z
	??0shared_count@detail@boost@@QEAA@AEBV012@@Z
	??0shared_count@detail@boost@@QEAA@XZ
	??0source_location@boost@@QEAA@PEBDI0I@Z
	??0sp_counted_base@detail@boost@@QEAA@XZ
	??0stl_type_index@typeindex@boost@@QEAA@AEBVtype_info@@@Z
	??0system_error@system@boost@@QEAA@AEBV012@@Z
	??0system_error@system@boost@@QEAA@Verror_code@12@PEBD@Z
	??0thread_exception@boost@@QEAA@AEBV01@@Z
	??0thread_exception@boost@@QEAA@HPEBD@Z
	??0thread_resource_error@boost@@QEAA@AEBV01@@Z
	??0thread_resource_error@boost@@QEAA@XZ
	??1?$AbstractMetaObject@VNodelet@nodelet@@@impl@class_loader@@QEAA@XZ
	??1?$BoolParameter_@V?$allocator@X@std@@@dynamic_reconfigure@@QEAA@XZ
	??1?$CameraInfo_@V?$allocator@X@std@@@sensor_msgs@@QEAA@XZ
	??1?$ConfigDescription_@V?$allocator@X@std@@@dynamic_reconfigure@@QEAA@XZ
	??1?$Config_@V?$allocator@X@std@@@dynamic_reconfigure@@QEAA@XZ
	??1?$DoubleParameter_@V?$allocator@X@std@@@dynamic_reconfigure@@QEAA@XZ
	??1?$GroupDescription@VDEFAULT@VideoStreamConfig@video_stream_opencv@@V23@@VideoStreamConfig@video_stream_opencv@@UEAA@XZ
	??1?$GroupState_@V?$allocator@X@std@@@dynamic_reconfigure@@QEAA@XZ
	??1?$Group_@V?$allocator@X@std@@@dynamic_reconfigure@@QEAA@XZ
	??1?$Header_@V?$allocator@X@std@@@std_msgs@@QEAA@XZ
	??1?$IntParameter_@V?$allocator@X@std@@@dynamic_reconfigure@@QEAA@XZ
	??1?$ParamDescription@H@VideoStreamConfig@video_stream_opencv@@UEAA@XZ
	??1?$ParamDescription@N@VideoStreamConfig@video_stream_opencv@@UEAA@XZ
	??1?$ParamDescription@V?$basic_string@DU?$char_traits@D@std@@V?$allocator@D@2@@std@@@VideoStreamConfig@video_stream_opencv@@UEAA@XZ
	??1?$ParamDescription@_N@VideoStreamConfig@video_stream_opencv@@UEAA@XZ
	??1?$ParamDescription_@V?$allocator@X@std@@@dynamic_reconfigure@@QEAA@XZ
	??1?$ReconfigureRequest_@V?$allocator@X@std@@@dynamic_reconfigure@@QEAA@XZ
	??1?$ReconfigureResponse_@V?$allocator@X@std@@@dynamic_reconfigure@@QEAA@XZ
	??1?$Server@VVideoStreamConfig@video_stream_opencv@@@dynamic_reconfigure@@QEAA@XZ
	??1?$ServiceCallbackHelperT@U?$ServiceSpec@U?$ReconfigureRequest_@V?$allocator@X@std@@@dynamic_reconfigure@@U?$ReconfigureResponse_@V?$allocator@X@std@@@2@@ros@@@ros@@UEAA@XZ
	??1?$ServiceSpecCallParams@U?$ReconfigureRequest_@V?$allocator@X@std@@@dynamic_reconfigure@@U?$ReconfigureResponse_@V?$allocator@X@std@@@2@@ros@@QEAA@XZ
	??1?$StrParameter_@V?$allocator@X@std@@@dynamic_reconfigure@@QEAA@XZ
	??1?$_Alloc_construct_ptr@V?$allocator@U?$_Tree_node@U?$pair@$$CBV?$basic_string@DU?$char_traits@D@std@@V?$allocator@D@2@@std@@PEAVAbstractMetaObjectBase@impl@class_loader@@@std@@PEAX@std@@@std@@@std@@QEAA@XZ
	??1?$_Compressed_pair@V?$allocator@D@std@@V?$_String_val@U?$_Simple_types@D@std@@@2@$00@std@@QEAA@XZ
	??1?$_Compressed_pair@V?$allocator@_W@std@@V?$_String_val@U?$_Simple_types@_W@std@@@2@$00@std@@QEAA@XZ
	??1?$_String_val@U?$_Simple_types@D@std@@@std@@QEAA@XZ
	??1?$_String_val@U?$_Simple_types@_W@std@@@std@@QEAA@XZ
	??1?$_Tidy_guard@V?$vector@U?$ParamDescription_@V?$allocator@X@std@@@dynamic_reconfigure@@V?$allocator@U?$ParamDescription_@V?$allocator@X@std@@@dynamic_reconfigure@@@std@@@std@@@std@@QEAA@XZ
	??1?$_Tidy_guard@V?$vector@V?$shared_ptr@$$CBVAbstractGroupDescription@VideoStreamConfig@video_stream_opencv@@@boost@@V?$allocator@V?$shared_ptr@$$CBVAbstractGroupDescription@VideoStreamConfig@video_stream_opencv@@@boost@@@std@@@std@@@std@@QEAA@XZ
	??1?$_Tidy_guard@V?$vector@V?$shared_ptr@$$CBVAbstractParamDescription@VideoStreamConfig@video_stream_opencv@@@boost@@V?$allocator@V?$shared_ptr@$$CBVAbstractParamDescription@VideoStreamConfig@video_stream_opencv@@@boost@@@std@@@std@@@std@@QEAA@XZ
	??1?$_Tree_temp_node@V?$allocator@U?$_Tree_node@U?$pair@$$CBV?$basic_string@DU?$char_traits@D@std@@V?$allocator@D@2@@std@@PEAVAbstractMetaObjectBase@impl@class_loader@@@std@@PEAX@std@@@std@@@std@@QEAA@XZ
	??1?$_Tree_temp_node_alloc@V?$allocator@U?$_Tree_node@U?$pair@$$CBV?$basic_string@DU?$char_traits@D@std@@V?$allocator@D@2@@std@@PEAVAbstractMetaObjectBase@impl@class_loader@@@std@@PEAX@std@@@std@@@std@@QEAA@XZ
	??1?$_Uninitialized_backout@PEAPEAN@std@@QEAA@XZ
	??1?$_Uninitialized_backout@PEAPEAVMat@cv@@@std@@QEAA@XZ
	??1?$_Uninitialized_backout_al@V?$allocator@N@std@@@std@@QEAA@XZ
	??1?$_Uninitialized_backout_al@V?$allocator@U?$BoolParameter_@V?$allocator@X@std@@@dynamic_reconfigure@@@std@@@std@@QEAA@XZ
	??1?$_Uninitialized_backout_al@V?$allocator@U?$DoubleParameter_@V?$allocator@X@std@@@dynamic_reconfigure@@@std@@@std@@QEAA@XZ
	??1?$_Uninitialized_backout_al@V?$allocator@U?$GroupState_@V?$allocator@X@std@@@dynamic_reconfigure@@@std@@@std@@QEAA@XZ
	??1?$_Uninitialized_backout_al@V?$allocator@U?$Group_@V?$allocator@X@std@@@dynamic_reconfigure@@@std@@@std@@QEAA@XZ
	??1?$_Uninitialized_backout_al@V?$allocator@U?$IntParameter_@V?$allocator@X@std@@@dynamic_reconfigure@@@std@@@std@@QEAA@XZ
	??1?$_Uninitialized_backout_al@V?$allocator@U?$ParamDescription_@V?$allocator@X@std@@@dynamic_reconfigure@@@std@@@std@@QEAA@XZ
	??1?$_Uninitialized_backout_al@V?$allocator@U?$StrParameter_@V?$allocator@X@std@@@dynamic_reconfigure@@@std@@@std@@QEAA@XZ
	??1?$_Uninitialized_backout_al@V?$allocator@V?$shared_ptr@$$CBVAbstractGroupDescription@VideoStreamConfig@video_stream_opencv@@@boost@@@std@@@std@@QEAA@XZ
	??1?$_Uninitialized_backout_al@V?$allocator@V?$shared_ptr@$$CBVAbstractParamDescription@VideoStreamConfig@video_stream_opencv@@@boost@@@std@@@std@@QEAA@XZ
	??1?$basic_string@DU?$char_traits@D@std@@V?$allocator@D@2@@std@@QEAA@XZ
	??1?$basic_string@_WU?$char_traits@_W@std@@V?$allocator@_W@2@@std@@QEAA@XZ
	??1?$basic_stringbuf@DU?$char_traits@D@std@@V?$allocator@D@2@@std@@UEAA@XZ
	??1?$basic_stringstream@DU?$char_traits@D@std@@V?$allocator@D@2@@std@@UEAA@XZ
	??1?$deque@NV?$allocator@N@std@@@std@@QEAA@XZ
	??1?$deque@VMat@cv@@V?$allocator@VMat@cv@@@std@@@std@@QEAA@XZ
	??1?$function0@V?$shared_ptr@U?$ReconfigureRequest_@V?$allocator@X@std@@@dynamic_reconfigure@@@boost@@@boost@@QEAA@XZ
	??1?$function0@V?$shared_ptr@U?$ReconfigureResponse_@V?$allocator@X@std@@@dynamic_reconfigure@@@boost@@@boost@@QEAA@XZ
	??1?$function0@VSerializedMessage@ros@@@boost@@QEAA@XZ
	??1?$function1@XAEBUTimerEvent@ros@@@boost@@QEAA@XZ
	??1?$function1@XAEBVSingleSubscriberPublisher@image_transport@@@boost@@QEAA@XZ
	??1?$function1@XAEBVSingleSubscriberPublisher@ros@@@boost@@QEAA@XZ
	??1?$function2@XAEAVVideoStreamConfig@video_stream_opencv@@I@boost@@QEAA@XZ
	??1?$function2@_NAEAU?$ReconfigureRequest_@V?$allocator@X@std@@@dynamic_reconfigure@@AEAU?$ReconfigureResponse_@V?$allocator@X@std@@@2@@boost@@QEAA@XZ
	??1?$function@$$A6A?AV?$shared_ptr@U?$ReconfigureRequest_@V?$allocator@X@std@@@dynamic_reconfigure@@@boost@@XZ@boost@@QEAA@XZ
	??1?$function@$$A6A?AV?$shared_ptr@U?$ReconfigureResponse_@V?$allocator@X@std@@@dynamic_reconfigure@@@boost@@XZ@boost@@QEAA@XZ
	??1?$function@$$A6A?AVSerializedMessage@ros@@XZ@boost@@QEAA@XZ
	??1?$function@$$A6AXAEAVVideoStreamConfig@video_stream_opencv@@I@Z@boost@@QEAA@XZ
	??1?$function@$$A6AXAEBUTimerEvent@ros@@@Z@boost@@QEAA@XZ
	??1?$function@$$A6AXAEBVSingleSubscriberPublisher@image_transport@@@Z@boost@@QEAA@XZ
	??1?$function@$$A6AXAEBVSingleSubscriberPublisher@ros@@@Z@boost@@QEAA@XZ
	??1?$function@$$A6A_NAEAU?$ReconfigureRequest_@V?$allocator@X@std@@@dynamic_reconfigure@@AEAU?$ReconfigureResponse_@V?$allocator@X@std@@@2@@Z@boost@@QEAA@XZ
	??1?$generic_list@N@assign_detail@boost@@QEAA@XZ
	??1?$holder@H@any@boost@@UEAA@XZ
	??1?$holder@N@any@boost@@UEAA@XZ
	??1?$holder@PEAVDEFAULT@VideoStreamConfig@video_stream_opencv@@@any@boost@@UEAA@XZ
	??1?$holder@PEAVVideoStreamConfig@video_stream_opencv@@@any@boost@@UEAA@XZ
	??1?$holder@V?$basic_string@DU?$char_traits@D@std@@V?$allocator@D@2@@std@@@any@boost@@UEAA@XZ
	??1?$holder@VDEFAULT@VideoStreamConfig@video_stream_opencv@@@any@boost@@UEAA@XZ
	??1?$holder@VVideoStreamConfig@video_stream_opencv@@@any@boost@@UEAA@XZ
	??1?$holder@_N@any@boost@@UEAA@XZ
	??1?$intrusive_ptr@Uthread_data_base@detail@boost@@@boost@@QEAA@XZ
	??1?$lock_guard@Vmutex@std@@@std@@QEAA@XZ
	??1?$ostream_guard@DU?$char_traits@D@std@@@detail@io@boost@@QEAA@XZ
	??1?$pair@$$CBV?$basic_string@DU?$char_traits@D@std@@V?$allocator@D@2@@std@@PEAVAbstractMetaObjectBase@impl@class_loader@@@std@@QEAA@XZ
	??1?$queue@VMat@cv@@V?$deque@VMat@cv@@V?$allocator@VMat@cv@@@std@@@std@@@std@@QEAA@XZ
	??1?$refcount_ptr@Uerror_info_container@exception_detail@boost@@@exception_detail@boost@@QEAA@XZ
	??1?$shared_array@E@boost@@QEAA@XZ
	??1?$shared_ptr@$$CBVAbstractGroupDescription@VideoStreamConfig@video_stream_opencv@@@boost@@QEAA@XZ
	??1?$shared_ptr@$$CBVAbstractParamDescription@VideoStreamConfig@video_stream_opencv@@@boost@@QEAA@XZ
	??1?$shared_ptr@$$CBVCvImage@cv_bridge@@@boost@@QEAA@XZ
	??1?$shared_ptr@$$CBX@boost@@QEAA@XZ
	??1?$shared_ptr@U?$Image_@V?$allocator@X@std@@@sensor_msgs@@@boost@@QEAA@XZ
	??1?$shared_ptr@U?$ReconfigureRequest_@V?$allocator@X@std@@@dynamic_reconfigure@@@boost@@QEAA@XZ
	??1?$shared_ptr@U?$ReconfigureResponse_@V?$allocator@X@std@@@dynamic_reconfigure@@@boost@@QEAA@XZ
	??1?$shared_ptr@V?$Server@VVideoStreamConfig@video_stream_opencv@@@dynamic_reconfigure@@@boost@@QEAA@XZ
	??1?$shared_ptr@V?$ServiceCallbackHelperT@U?$ServiceSpec@U?$ReconfigureRequest_@V?$allocator@X@std@@@dynamic_reconfigure@@U?$ReconfigureResponse_@V?$allocator@X@std@@@2@@ros@@@ros@@@boost@@QEAA@XZ
	??1?$shared_ptr@V?$map@V?$basic_string@DU?$char_traits@D@std@@V?$allocator@D@2@@std@@V12@U?$less@V?$basic_string@DU?$char_traits@D@std@@V?$allocator@D@2@@std@@@2@V?$allocator@U?$pair@$$CBV?$basic_string@DU?$char_traits@D@std@@V?$allocator@D@2@@std@@V12@@std@@@2@@std@@@boost@@QEAA@XZ
	??1?$shared_ptr@VCvImage@cv_bridge@@@boost@@QEAA@XZ
	??1?$shared_ptr@VNodeHandle@ros@@@boost@@QEAA@XZ
	??1?$shared_ptr@VServiceCallbackHelper@ros@@@boost@@QEAA@XZ
	??1?$shared_ptr@VVideoCapture@cv@@@boost@@QEAA@XZ
	??1?$shared_ptr@X@boost@@QEAA@XZ
	??1?$sp_counted_impl_p@V?$GroupDescription@VDEFAULT@VideoStreamConfig@video_stream_opencv@@V23@@VideoStreamConfig@video_stream_opencv@@@detail@boost@@UEAA@XZ
	??1?$sp_counted_impl_p@V?$ParamDescription@H@VideoStreamConfig@video_stream_opencv@@@detail@boost@@UEAA@XZ
	??1?$sp_counted_impl_p@V?$ParamDescription@N@VideoStreamConfig@video_stream_opencv@@@detail@boost@@UEAA@XZ
	??1?$sp_counted_impl_p@V?$ParamDescription@V?$basic_string@DU?$char_traits@D@std@@V?$allocator@D@2@@std@@@VideoStreamConfig@video_stream_opencv@@@detail@boost@@UEAA@XZ
	??1?$sp_counted_impl_p@V?$ParamDescription@_N@VideoStreamConfig@video_stream_opencv@@@detail@boost@@UEAA@XZ
	??1?$sp_counted_impl_p@VNodeHandle@ros@@@detail@boost@@UEAA@XZ
	??1?$sp_counted_impl_p@VVideoCapture@cv@@@detail@boost@@UEAA@XZ
	??1?$sp_counted_impl_pd@PEAEU?$checked_array_deleter@E@boost@@@detail@boost@@UEAA@XZ
	??1?$sp_counted_impl_pd@PEAU?$ReconfigureRequest_@V?$allocator@X@std@@@dynamic_reconfigure@@V?$sp_ms_deleter@U?$ReconfigureRequest_@V?$allocator@X@std@@@dynamic_reconfigure@@@detail@boost@@@detail@boost@@UEAA@XZ
	??1?$sp_counted_impl_pd@PEAU?$ReconfigureResponse_@V?$allocator@X@std@@@dynamic_reconfigure@@V?$sp_ms_deleter@U?$ReconfigureResponse_@V?$allocator@X@std@@@dynamic_reconfigure@@@detail@boost@@@detail@boost@@UEAA@XZ
	??1?$sp_counted_impl_pd@PEAV?$Server@VVideoStreamConfig@video_stream_opencv@@@dynamic_reconfigure@@V?$sp_ms_deleter@V?$Server@VVideoStreamConfig@video_stream_opencv@@@dynamic_reconfigure@@@detail@boost@@@detail@boost@@UEAA@XZ
	??1?$sp_counted_impl_pd@PEAV?$ServiceCallbackHelperT@U?$ServiceSpec@U?$ReconfigureRequest_@V?$allocator@X@std@@@dynamic_reconfigure@@U?$ReconfigureResponse_@V?$allocator@X@std@@@2@@ros@@@ros@@V?$sp_ms_deleter@V?$ServiceCallbackHelperT@U?$ServiceSpec@U?$ReconfigureRequest_@V?$allocator@X@std@@@dynamic_reconfigure@@U?$ReconfigureResponse_@V?$allocator@X@std@@@2@@ros@@@ros@@@detail@boost@@@detail@boost@@UEAA@XZ
	??1?$sp_counted_impl_pd@PEAVCvImage@cv_bridge@@V?$sp_ms_deleter@VCvImage@cv_bridge@@@detail@boost@@@detail@boost@@UEAA@XZ
	??1?$sp_ms_deleter@U?$ReconfigureRequest_@V?$allocator@X@std@@@dynamic_reconfigure@@@detail@boost@@QEAA@XZ
	??1?$sp_ms_deleter@U?$ReconfigureResponse_@V?$allocator@X@std@@@dynamic_reconfigure@@@detail@boost@@QEAA@XZ
	??1?$sp_ms_deleter@V?$Server@VVideoStreamConfig@video_stream_opencv@@@dynamic_reconfigure@@@detail@boost@@QEAA@XZ
	??1?$sp_ms_deleter@V?$ServiceCallbackHelperT@U?$ServiceSpec@U?$ReconfigureRequest_@V?$allocator@X@std@@@dynamic_reconfigure@@U?$ReconfigureResponse_@V?$allocator@X@std@@@2@@ros@@@ros@@@detail@boost@@QEAA@XZ
	??1?$sp_ms_deleter@VCvImage@cv_bridge@@@detail@boost@@QEAA@XZ
	??1?$thread_data@V?$bind_t@XV?$mf0@XVVideoStreamNodelet@video_stream_opencv@@@_mfi@boost@@V?$list1@V?$value@PEAVVideoStreamNodelet@video_stream_opencv@@@_bi@boost@@@_bi@3@@_bi@boost@@@detail@boost@@UEAA@XZ
	??1?$unique_lock@Vmutex@boost@@@boost@@QEAA@XZ
	??1?$unique_lock@Vrecursive_mutex@boost@@@boost@@QEAA@XZ
	??1?$vector@NV?$allocator@N@std@@@std@@QEAA@XZ
	??1?$vector@U?$BoolParameter_@V?$allocator@X@std@@@dynamic_reconfigure@@V?$allocator@U?$BoolParameter_@V?$allocator@X@std@@@dynamic_reconfigure@@@std@@@std@@QEAA@XZ
	??1?$vector@U?$DoubleParameter_@V?$allocator@X@std@@@dynamic_reconfigure@@V?$allocator@U?$DoubleParameter_@V?$allocator@X@std@@@dynamic_reconfigure@@@std@@@std@@QEAA@XZ
	??1?$vector@U?$GroupState_@V?$allocator@X@std@@@dynamic_reconfigure@@V?$allocator@U?$GroupState_@V?$allocator@X@std@@@dynamic_reconfigure@@@std@@@std@@QEAA@XZ
	??1?$vector@U?$Group_@V?$allocator@X@std@@@dynamic_reconfigure@@V?$allocator@U?$Group_@V?$allocator@X@std@@@dynamic_reconfigure@@@std@@@std@@QEAA@XZ
	??1?$vector@U?$IntParameter_@V?$allocator@X@std@@@dynamic_reconfigure@@V?$allocator@U?$IntParameter_@V?$allocator@X@std@@@dynamic_reconfigure@@@std@@@std@@QEAA@XZ
	??1?$vector@U?$ParamDescription_@V?$allocator@X@std@@@dynamic_reconfigure@@V?$allocator@U?$ParamDescription_@V?$allocator@X@std@@@dynamic_reconfigure@@@std@@@std@@QEAA@XZ
	??1?$vector@U?$StrParameter_@V?$allocator@X@std@@@dynamic_reconfigure@@V?$allocator@U?$StrParameter_@V?$allocator@X@std@@@dynamic_reconfigure@@@std@@@std@@QEAA@XZ
	??1?$vector@V?$shared_ptr@$$CBVAbstractGroupDescription@VideoStreamConfig@video_stream_opencv@@@boost@@V?$allocator@V?$shared_ptr@$$CBVAbstractGroupDescription@VideoStreamConfig@video_stream_opencv@@@boost@@@std@@@std@@QEAA@XZ
	??1?$vector@V?$shared_ptr@$$CBVAbstractParamDescription@VideoStreamConfig@video_stream_opencv@@@boost@@V?$allocator@V?$shared_ptr@$$CBVAbstractParamDescription@VideoStreamConfig@video_stream_opencv@@@boost@@@std@@@std@@QEAA@XZ
	??1?$wrapexcept@Vassignment_exception@assign@boost@@@boost@@UEAA@XZ
	??1?$wrapexcept@Vbad_alloc@std@@@boost@@UEAA@XZ
	??1?$wrapexcept@Vbad_any_cast@boost@@@boost@@UEAA@XZ
	??1?$wrapexcept@Vbad_function_call@boost@@@boost@@UEAA@XZ
	??1?$wrapexcept@Vlock_error@boost@@@boost@@UEAA@XZ
	??1?$wrapexcept@Vthread_resource_error@boost@@@boost@@UEAA@XZ
	??1AbstractGroupDescription@VideoStreamConfig@video_stream_opencv@@UEAA@XZ
	??1AbstractParamDescription@VideoStreamConfig@video_stream_opencv@@UEAA@XZ
	??1CvImage@cv_bridge@@QEAA@XZ
	??1DEFAULT@VideoStreamConfig@video_stream_opencv@@QEAA@XZ
	??1Mat@cv@@QEAA@XZ
	??1VideoStreamConfig@video_stream_opencv@@QEAA@XZ
	??1VideoStreamConfigStatics@video_stream_opencv@@QEAA@XZ
	??1VideoStreamNodelet@video_stream_opencv@@MEAA@XZ
	??1_Bxty@?$_String_val@U?$_Simple_types@D@std@@@std@@QEAA@XZ
	??1_Bxty@?$_String_val@U?$_Simple_types@_W@std@@@std@@QEAA@XZ
	??1_InputArray@cv@@QEAA@XZ
	??1_Mutex_base@std@@QEAA@XZ
	??1_OutputArray@cv@@QEAA@XZ
	??1_Sentry_base@?$basic_ostream@DU?$char_traits@D@std@@@std@@QEAA@XZ
	??1any@boost@@QEAA@XZ
	??1assignment_exception@assign@boost@@UEAA@XZ
	??1bad_alloc@std@@UEAA@XZ
	??1bad_any_cast@boost@@UEAA@XZ
	??1bad_array_new_length@std@@UEAA@XZ
	??1bad_cast@std@@UEAA@XZ
	??1bad_function_call@boost@@UEAA@XZ
	??1clone_base@exception_detail@boost@@UEAA@XZ
	??1deleter@?$wrapexcept@Vassignment_exception@assign@boost@@@boost@@QEAA@XZ
	??1deleter@?$wrapexcept@Vbad_alloc@std@@@boost@@QEAA@XZ
	??1deleter@?$wrapexcept@Vbad_any_cast@boost@@@boost@@QEAA@XZ
	??1deleter@?$wrapexcept@Vbad_function_call@boost@@@boost@@QEAA@XZ
	??1deleter@?$wrapexcept@Vlock_error@boost@@@boost@@QEAA@XZ
	??1deleter@?$wrapexcept@Vthread_resource_error@boost@@@boost@@QEAA@XZ
	??1exception@boost@@MEAA@XZ
	??1exception@std@@UEAA@XZ
	??1local_free@detail@system@boost@@QEAA@XZ
	??1lock_error@boost@@UEAA@XZ
	??1mutex@std@@QEAA@XZ
	??1path@filesystem@boost@@QEAA@XZ
	??1placeholder@any@boost@@UEAA@XZ
	??1recursive_mutex@boost@@QEAA@XZ
	??1runtime_error@std@@UEAA@XZ
	??1sentry@?$basic_ostream@DU?$char_traits@D@std@@@std@@QEAA@XZ
	??1shared_count@detail@boost@@QEAA@XZ
	??1sp_counted_base@detail@boost@@UEAA@XZ
	??1system_error@system@boost@@UEAA@XZ
	??1thread_exception@boost@@UEAA@XZ
	??1thread_resource_error@boost@@UEAA@XZ
	??2@YAPEAX_KPEAX@Z
	??4?$CameraInfo_@V?$allocator@X@std@@@sensor_msgs@@QEAAAEAU01@$$QEAU01@@Z
	??4?$Header_@V?$allocator@X@std@@@std_msgs@@QEAAAEAU01@$$QEAU01@@Z
	??4?$ParamDescription_@V?$allocator@X@std@@@dynamic_reconfigure@@QEAAAEAU01@AEBU01@@Z
	??4?$basic_string@DU?$char_traits@D@std@@V?$allocator@D@2@@std@@QEAAAEAV01@$$QEAV01@@Z
	??4?$basic_string@DU?$char_traits@D@std@@V?$allocator@D@2@@std@@QEAAAEAV01@AEBV01@@Z
	??4?$basic_string@DU?$char_traits@D@std@@V?$allocator@D@2@@std@@QEAAAEAV01@QEBD@Z
	??4?$function@$$A6AXAEAVVideoStreamConfig@video_stream_opencv@@I@Z@boost@@QEAAAEAV01@AEBV01@@Z
	??4?$function@$$A6AXAEBVSingleSubscriberPublisher@ros@@@Z@boost@@QEAAAEAV01@AEBV01@@Z
	??4?$refcount_ptr@Uerror_info_container@exception_detail@boost@@@exception_detail@boost@@QEAAAEAV012@AEBV012@@Z
	??4?$shared_ptr@$$CBVAbstractParamDescription@VideoStreamConfig@video_stream_opencv@@@boost@@QEAAAEAV01@AEBV01@@Z
	??4?$shared_ptr@U?$Image_@V?$allocator@X@std@@@sensor_msgs@@@boost@@QEAAAEAV01@$$QEAV01@@Z
	??4?$shared_ptr@U?$ReconfigureRequest_@V?$allocator@X@std@@@dynamic_reconfigure@@@boost@@QEAAAEAV01@AEBV01@@Z
	??4?$shared_ptr@U?$ReconfigureResponse_@V?$allocator@X@std@@@dynamic_reconfigure@@@boost@@QEAAAEAV01@AEBV01@@Z
	??4?$shared_ptr@V?$Server@VVideoStreamConfig@video_stream_opencv@@@dynamic_reconfigure@@@boost@@QEAAAEAV01@$$QEAV01@@Z
	??4?$shared_ptr@V?$map@V?$basic_string@DU?$char_traits@D@std@@V?$allocator@D@2@@std@@V12@U?$less@V?$basic_string@DU?$char_traits@D@std@@V?$allocator@D@2@@std@@@2@V?$allocator@U?$pair@$$CBV?$basic_string@DU?$char_traits@D@std@@V?$allocator@D@2@@std@@V12@@std@@@2@@std@@@boost@@QEAAAEAV01@AEBV01@@Z
	??4?$shared_ptr@VCvImage@cv_bridge@@@boost@@QEAAAEAV01@$$QEAV01@@Z
	??4?$vector@NV?$allocator@N@std@@@std@@QEAAAEAV01@$$QEAV01@@Z
	??4?$vector@U?$ParamDescription_@V?$allocator@X@std@@@dynamic_reconfigure@@V?$allocator@U?$ParamDescription_@V?$allocator@X@std@@@dynamic_reconfigure@@@std@@@std@@QEAAAEAV01@AEBV01@@Z
	??4?$vector@V?$shared_ptr@$$CBVAbstractParamDescription@VideoStreamConfig@video_stream_opencv@@@boost@@V?$allocator@V?$shared_ptr@$$CBVAbstractParamDescription@VideoStreamConfig@video_stream_opencv@@@boost@@@std@@@std@@QEAAAEAV01@AEBV01@@Z
	??4DEFAULT@VideoStreamConfig@video_stream_opencv@@QEAAAEAV012@AEBV012@@Z
	??4Mat@cv@@QEAAAEAV01@AEBV01@@Z
	??4VideoStreamConfig@video_stream_opencv@@QEAAAEAV01@AEBV01@@Z
	??7?$shared_ptr@VImpl@Publisher@ros@@@boost@@QEBA_NXZ
	??8?$_Deque_const_iterator@V?$_Deque_val@U?$_Deque_simple_types@N@std@@@std@@@std@@QEBA_NAEBV01@@Z
	??8?$_Tree_const_iterator@V?$_Tree_val@U?$_Tree_simple_types@U?$pair@$$CBV?$basic_string@DU?$char_traits@D@std@@V?$allocator@D@2@@std@@PEAVAbstractMetaObjectBase@impl@class_loader@@@std@@@std@@@std@@@std@@QEBA_NAEBV01@@Z
	??8?$_Vector_const_iterator@V?$_Vector_val@U?$_Simple_types@U?$BoolParameter_@V?$allocator@X@std@@@dynamic_reconfigure@@@std@@@std@@@std@@QEBA_NAEBV01@@Z
	??8?$_Vector_const_iterator@V?$_Vector_val@U?$_Simple_types@U?$DoubleParameter_@V?$allocator@X@std@@@dynamic_reconfigure@@@std@@@std@@@std@@QEBA_NAEBV01@@Z
	??8?$_Vector_const_iterator@V?$_Vector_val@U?$_Simple_types@U?$GroupState_@V?$allocator@X@std@@@dynamic_reconfigure@@@std@@@std@@@std@@QEBA_NAEBV01@@Z
	??8?$_Vector_const_iterator@V?$_Vector_val@U?$_Simple_types@U?$Group_@V?$allocator@X@std@@@dynamic_reconfigure@@@std@@@std@@@std@@QEBA_NAEBV01@@Z
	??8?$_Vector_const_iterator@V?$_Vector_val@U?$_Simple_types@U?$IntParameter_@V?$allocator@X@std@@@dynamic_reconfigure@@@std@@@std@@@std@@QEBA_NAEBV01@@Z
	??8?$_Vector_const_iterator@V?$_Vector_val@U?$_Simple_types@U?$ParamDescription_@V?$allocator@X@std@@@dynamic_reconfigure@@@std@@@std@@@std@@QEBA_NAEBV01@@Z
	??8?$_Vector_const_iterator@V?$_Vector_val@U?$_Simple_types@U?$StrParameter_@V?$allocator@X@std@@@dynamic_reconfigure@@@std@@@std@@@std@@QEBA_NAEBV01@@Z
	??8?$_Vector_const_iterator@V?$_Vector_val@U?$_Simple_types@V?$shared_ptr@$$CBVAbstractGroupDescription@VideoStreamConfig@video_stream_opencv@@@boost@@@std@@@std@@@std@@QEBA_NAEBV01@@Z
	??8?$_Vector_const_iterator@V?$_Vector_val@U?$_Simple_types@V?$shared_ptr@$$CBVAbstractParamDescription@VideoStreamConfig@video_stream_opencv@@@boost@@@std@@@std@@@std@@QEBA_NAEBV01@@Z
	??8error_category@system@boost@@QEBA_NAEBV012@@Z
	??8system@boost@@YA_NAEBVerror_condition@01@0@Z
	??8type_info@@QEBA_NAEBV0@@Z
	??9?$_Deque_const_iterator@V?$_Deque_val@U?$_Deque_simple_types@N@std@@@std@@@std@@QEBA_NAEBV01@@Z
	??9?$_Tree_const_iterator@V?$_Tree_val@U?$_Tree_simple_types@U?$pair@$$CBV?$basic_string@DU?$char_traits@D@std@@V?$allocator@D@2@@std@@PEAVAbstractMetaObjectBase@impl@class_loader@@@std@@@std@@@std@@@std@@QEBA_NAEBV01@@Z
	??9?$_Vector_const_iterator@V?$_Vector_val@U?$_Simple_types@U?$BoolParameter_@V?$allocator@X@std@@@dynamic_reconfigure@@@std@@@std@@@std@@QEBA_NAEBV01@@Z
	??9?$_Vector_const_iterator@V?$_Vector_val@U?$_Simple_types@U?$DoubleParameter_@V?$allocator@X@std@@@dynamic_reconfigure@@@std@@@std@@@std@@QEBA_NAEBV01@@Z
	??9?$_Vector_const_iterator@V?$_Vector_val@U?$_Simple_types@U?$GroupState_@V?$allocator@X@std@@@dynamic_reconfigure@@@std@@@std@@@std@@QEBA_NAEBV01@@Z
	??9?$_Vector_const_iterator@V?$_Vector_val@U?$_Simple_types@U?$Group_@V?$allocator@X@std@@@dynamic_reconfigure@@@std@@@std@@@std@@QEBA_NAEBV01@@Z
	??9?$_Vector_const_iterator@V?$_Vector_val@U?$_Simple_types@U?$IntParameter_@V?$allocator@X@std@@@dynamic_reconfigure@@@std@@@std@@@std@@QEBA_NAEBV01@@Z
	??9?$_Vector_const_iterator@V?$_Vector_val@U?$_Simple_types@U?$ParamDescription_@V?$allocator@X@std@@@dynamic_reconfigure@@@std@@@std@@@std@@QEBA_NAEBV01@@Z
	??9?$_Vector_const_iterator@V?$_Vector_val@U?$_Simple_types@U?$StrParameter_@V?$allocator@X@std@@@dynamic_reconfigure@@@std@@@std@@@std@@QEBA_NAEBV01@@Z
	??9?$_Vector_const_iterator@V?$_Vector_val@U?$_Simple_types@V?$shared_ptr@$$CBVAbstractGroupDescription@VideoStreamConfig@video_stream_opencv@@@boost@@@std@@@std@@@std@@QEBA_NAEBV01@@Z
	??9?$_Vector_const_iterator@V?$_Vector_val@U?$_Simple_types@V?$shared_ptr@$$CBVAbstractParamDescription@VideoStreamConfig@video_stream_opencv@@@boost@@@std@@@std@@@std@@QEBA_NAEBV01@@Z
	??9filesystem@boost@@YA_NAEBVpath@01@0@Z
	??A?$array@N$08@boost@@QEAAAEAN_K@Z
	??A?$array@N$0M@@boost@@QEAAAEAN_K@Z
	??A?$basic_string@DU?$char_traits@D@std@@V?$allocator@D@2@@std@@QEAAAEAD_K@Z
	??A?$map@V?$basic_string@DU?$char_traits@D@std@@V?$allocator@D@2@@std@@PEAVAbstractMetaObjectBase@impl@class_loader@@U?$less@V?$basic_string@DU?$char_traits@D@std@@V?$allocator@D@2@@std@@@2@V?$allocator@U?$pair@$$CBV?$basic_string@DU?$char_traits@D@std@@V?$allocator@D@2@@std@@PEAVAbstractMetaObjectBase@impl@class_loader@@@std@@@2@@std@@QEAAAEAPEAVAbstractMetaObjectBase@impl@class_loader@@AEBV?$basic_string@DU?$char_traits@D@std@@V?$allocator@D@2@@1@@Z
	??A?$rrlist1@AEBUTimerEvent@ros@@@_bi@boost@@QEBAAEBUTimerEvent@ros@@P6A?AU?$arg@$00@2@XZ@Z
	??A?$rrlist1@AEBVSingleSubscriberPublisher@image_transport@@@_bi@boost@@QEBAAEBVSingleSubscriberPublisher@image_transport@@P6A?AU?$arg@$00@2@XZ@Z
	??A?$rrlist1@AEBVSingleSubscriberPublisher@ros@@@_bi@boost@@QEBAAEBVSingleSubscriberPublisher@ros@@P6A?AU?$arg@$00@2@XZ@Z
	??A?$rrlist2@AEAU?$ReconfigureRequest_@V?$allocator@X@std@@@dynamic_reconfigure@@AEAU?$ReconfigureResponse_@V?$allocator@X@std@@@2@@_bi@boost@@QEBAAEAU?$ReconfigureRequest_@V?$allocator@X@std@@@dynamic_reconfigure@@P6A?AU?$arg@$00@2@XZ@Z
	??A?$rrlist2@AEAU?$ReconfigureRequest_@V?$allocator@X@std@@@dynamic_reconfigure@@AEAU?$ReconfigureResponse_@V?$allocator@X@std@@@2@@_bi@boost@@QEBAAEAU?$ReconfigureResponse_@V?$allocator@X@std@@@dynamic_reconfigure@@P6A?AU?$arg@$01@2@XZ@Z
	??A?$rrlist2@AEAVVideoStreamConfig@video_stream_opencv@@I@_bi@boost@@QEBA$$QEAIP6A?AU?$arg@$01@2@XZ@Z
	??A?$rrlist2@AEAVVideoStreamConfig@video_stream_opencv@@I@_bi@boost@@QEBAAEAVVideoStreamConfig@video_stream_opencv@@P6A?AU?$arg@$00@2@XZ@Z
	??A?$vector@U?$BoolParameter_@V?$allocator@X@std@@@dynamic_reconfigure@@V?$allocator@U?$BoolParameter_@V?$allocator@X@std@@@dynamic_reconfigure@@@std@@@std@@QEAAAEAU?$BoolParameter_@V?$allocator@X@std@@@dynamic_reconfigure@@_K@Z
	??A?$vector@U?$DoubleParameter_@V?$allocator@X@std@@@dynamic_reconfigure@@V?$allocator@U?$DoubleParameter_@V?$allocator@X@std@@@dynamic_reconfigure@@@std@@@std@@QEAAAEAU?$DoubleParameter_@V?$allocator@X@std@@@dynamic_reconfigure@@_K@Z
	??A?$vector@U?$IntParameter_@V?$allocator@X@std@@@dynamic_reconfigure@@V?$allocator@U?$IntParameter_@V?$allocator@X@std@@@dynamic_reconfigure@@@std@@@std@@QEAAAEAU?$IntParameter_@V?$allocator@X@std@@@dynamic_reconfigure@@_K@Z
	??A?$vector@U?$StrParameter_@V?$allocator@X@std@@@dynamic_reconfigure@@V?$allocator@U?$StrParameter_@V?$allocator@X@std@@@dynamic_reconfigure@@@std@@@std@@QEAAAEAU?$StrParameter_@V?$allocator@X@std@@@dynamic_reconfigure@@_K@Z
	??AMatSize@cv@@QEBAAEBHH@Z
	??AMatStep@cv@@QEAAAEA_KH@Z
	??AMatStep@cv@@QEBAAEB_KH@Z
	??B?$fpos@U_Mbstatet@@@std@@QEBA_JXZ
	??B?$function2@XAEAVVideoStreamConfig@video_stream_opencv@@I@boost@@QEBAP8dummy@01@EAAXXZXZ
	??Bsentry@?$basic_ostream@DU?$char_traits@D@std@@@std@@QEBA_NXZ
	??C?$_Vector_const_iterator@V?$_Vector_val@U?$_Simple_types@U?$BoolParameter_@V?$allocator@X@std@@@dynamic_reconfigure@@@std@@@std@@@std@@QEBAPEBU?$BoolParameter_@V?$allocator@X@std@@@dynamic_reconfigure@@XZ
	??C?$_Vector_const_iterator@V?$_Vector_val@U?$_Simple_types@U?$DoubleParameter_@V?$allocator@X@std@@@dynamic_reconfigure@@@std@@@std@@@std@@QEBAPEBU?$DoubleParameter_@V?$allocator@X@std@@@dynamic_reconfigure@@XZ
	??C?$_Vector_const_iterator@V?$_Vector_val@U?$_Simple_types@U?$GroupState_@V?$allocator@X@std@@@dynamic_reconfigure@@@std@@@std@@@std@@QEBAPEBU?$GroupState_@V?$allocator@X@std@@@dynamic_reconfigure@@XZ
	??C?$_Vector_const_iterator@V?$_Vector_val@U?$_Simple_types@U?$IntParameter_@V?$allocator@X@std@@@dynamic_reconfigure@@@std@@@std@@@std@@QEBAPEBU?$IntParameter_@V?$allocator@X@std@@@dynamic_reconfigure@@XZ
	??C?$_Vector_const_iterator@V?$_Vector_val@U?$_Simple_types@U?$StrParameter_@V?$allocator@X@std@@@dynamic_reconfigure@@@std@@@std@@@std@@QEBAPEBU?$StrParameter_@V?$allocator@X@std@@@dynamic_reconfigure@@XZ
	??C?$shared_ptr@$$CBVAbstractGroupDescription@VideoStreamConfig@video_stream_opencv@@@boost@@QEBAPEBVAbstractGroupDescription@VideoStreamConfig@video_stream_opencv@@XZ
	??C?$shared_ptr@$$CBVAbstractParamDescription@VideoStreamConfig@video_stream_opencv@@@boost@@QEBAPEBVAbstractParamDescription@VideoStreamConfig@video_stream_opencv@@XZ
	??C?$shared_ptr@U?$Image_@V?$allocator@X@std@@@sensor_msgs@@@boost@@QEBAPEAU?$Image_@V?$allocator@X@std@@@sensor_msgs@@XZ
	??C?$shared_ptr@V?$Server@VVideoStreamConfig@video_stream_opencv@@@dynamic_reconfigure@@@boost@@QEBAPEAV?$Server@VVideoStreamConfig@video_stream_opencv@@@dynamic_reconfigure@@XZ
	??C?$shared_ptr@VCvImage@cv_bridge@@@boost@@QEBAPEAVCvImage@cv_bridge@@XZ
	??C?$shared_ptr@VImpl@Publisher@ros@@@boost@@QEBAPEAVImpl@Publisher@ros@@XZ
	??C?$shared_ptr@VNodeHandle@ros@@@boost@@QEBAPEAVNodeHandle@ros@@XZ
	??C?$shared_ptr@VVideoCapture@cv@@@boost@@QEBAPEAVVideoCapture@cv@@XZ
	??D?$_Deque_const_iterator@V?$_Deque_val@U?$_Deque_simple_types@N@std@@@std@@@std@@QEBAAEBNXZ
	??D?$_Deque_iterator@V?$_Deque_val@U?$_Deque_simple_types@N@std@@@std@@@std@@QEBAAEANXZ
	??D?$_Deque_unchecked_const_iterator@V?$_Deque_val@U?$_Deque_simple_types@VMat@cv@@@std@@@std@@@std@@QEBAAEBVMat@cv@@XZ
	??D?$_Deque_unchecked_iterator@V?$_Deque_val@U?$_Deque_simple_types@VMat@cv@@@std@@@std@@@std@@QEBAAEAVMat@cv@@XZ
	??D?$_String_const_iterator@V?$_String_val@U?$_Simple_types@D@std@@@std@@@std@@QEBAAEBDXZ
	??D?$_Vector_const_iterator@V?$_Vector_val@U?$_Simple_types@U?$BoolParameter_@V?$allocator@X@std@@@dynamic_reconfigure@@@std@@@std@@@std@@QEBAAEBU?$BoolParameter_@V?$allocator@X@std@@@dynamic_reconfigure@@XZ
	??D?$_Vector_const_iterator@V?$_Vector_val@U?$_Simple_types@U?$DoubleParameter_@V?$allocator@X@std@@@dynamic_reconfigure@@@std@@@std@@@std@@QEBAAEBU?$DoubleParameter_@V?$allocator@X@std@@@dynamic_reconfigure@@XZ
	??D?$_Vector_const_iterator@V?$_Vector_val@U?$_Simple_types@U?$GroupState_@V?$allocator@X@std@@@dynamic_reconfigure@@@std@@@std@@@std@@QEBAAEBU?$GroupState_@V?$allocator@X@std@@@dynamic_reconfigure@@XZ
	??D?$_Vector_const_iterator@V?$_Vector_val@U?$_Simple_types@U?$Group_@V?$allocator@X@std@@@dynamic_reconfigure@@@std@@@std@@@std@@QEBAAEBU?$Group_@V?$allocator@X@std@@@dynamic_reconfigure@@XZ
	??D?$_Vector_const_iterator@V?$_Vector_val@U?$_Simple_types@U?$IntParameter_@V?$allocator@X@std@@@dynamic_reconfigure@@@std@@@std@@@std@@QEBAAEBU?$IntParameter_@V?$allocator@X@std@@@dynamic_reconfigure@@XZ
	??D?$_Vector_const_iterator@V?$_Vector_val@U?$_Simple_types@U?$ParamDescription_@V?$allocator@X@std@@@dynamic_reconfigure@@@std@@@std@@@std@@QEBAAEBU?$ParamDescription_@V?$allocator@X@std@@@dynamic_reconfigure@@XZ
	??D?$_Vector_const_iterator@V?$_Vector_val@U?$_Simple_types@U?$StrParameter_@V?$allocator@X@std@@@dynamic_reconfigure@@@std@@@std@@@std@@QEBAAEBU?$StrParameter_@V?$allocator@X@std@@@dynamic_reconfigure@@XZ
	??D?$_Vector_const_iterator@V?$_Vector_val@U?$_Simple_types@V?$shared_ptr@$$CBVAbstractGroupDescription@VideoStreamConfig@video_stream_opencv@@@boost@@@std@@@std@@@std@@QEBAAEBV?$shared_ptr@$$CBVAbstractGroupDescription@VideoStreamConfig@video_stream_opencv@@@boost@@XZ
	??D?$_Vector_const_iterator@V?$_Vector_val@U?$_Simple_types@V?$shared_ptr@$$CBVAbstractParamDescription@VideoStreamConfig@video_stream_opencv@@@boost@@@std@@@std@@@std@@QEBAAEBV?$shared_ptr@$$CBVAbstractParamDescription@VideoStreamConfig@video_stream_opencv@@@boost@@XZ
	??D?$_Vector_iterator@V?$_Vector_val@U?$_Simple_types@U?$BoolParameter_@V?$allocator@X@std@@@dynamic_reconfigure@@@std@@@std@@@std@@QEBAAEAU?$BoolParameter_@V?$allocator@X@std@@@dynamic_reconfigure@@XZ
	??D?$_Vector_iterator@V?$_Vector_val@U?$_Simple_types@U?$DoubleParameter_@V?$allocator@X@std@@@dynamic_reconfigure@@@std@@@std@@@std@@QEBAAEAU?$DoubleParameter_@V?$allocator@X@std@@@dynamic_reconfigure@@XZ
	??D?$_Vector_iterator@V?$_Vector_val@U?$_Simple_types@U?$GroupState_@V?$allocator@X@std@@@dynamic_reconfigure@@@std@@@std@@@std@@QEBAAEAU?$GroupState_@V?$allocator@X@std@@@dynamic_reconfigure@@XZ
	??D?$_Vector_iterator@V?$_Vector_val@U?$_Simple_types@U?$IntParameter_@V?$allocator@X@std@@@dynamic_reconfigure@@@std@@@std@@@std@@QEBAAEAU?$IntParameter_@V?$allocator@X@std@@@dynamic_reconfigure@@XZ
	??D?$_Vector_iterator@V?$_Vector_val@U?$_Simple_types@U?$StrParameter_@V?$allocator@X@std@@@dynamic_reconfigure@@@std@@@std@@@std@@QEBAAEAU?$StrParameter_@V?$allocator@X@std@@@dynamic_reconfigure@@XZ
	??D?$shared_ptr@$$CBVAbstractGroupDescription@VideoStreamConfig@video_stream_opencv@@@boost@@QEBAAEBVAbstractGroupDescription@VideoStreamConfig@video_stream_opencv@@XZ
	??D?$shared_ptr@$$CBVAbstractParamDescription@VideoStreamConfig@video_stream_opencv@@@boost@@QEBAAEBVAbstractParamDescription@VideoStreamConfig@video_stream_opencv@@XZ
	??D?$shared_ptr@U?$Image_@V?$allocator@X@std@@@sensor_msgs@@@boost@@QEBAAEAU?$Image_@V?$allocator@X@std@@@sensor_msgs@@XZ
	??D?$shared_ptr@U?$ReconfigureRequest_@V?$allocator@X@std@@@dynamic_reconfigure@@@boost@@QEBAAEAU?$ReconfigureRequest_@V?$allocator@X@std@@@dynamic_reconfigure@@XZ
	??D?$shared_ptr@U?$ReconfigureResponse_@V?$allocator@X@std@@@dynamic_reconfigure@@@boost@@QEBAAEAU?$ReconfigureResponse_@V?$allocator@X@std@@@dynamic_reconfigure@@XZ
	??D?$shared_ptr@VNodeHandle@ros@@@boost@@QEBAAEAVNodeHandle@ros@@XZ
	??E?$_Deque_const_iterator@V?$_Deque_val@U?$_Deque_simple_types@N@std@@@std@@@std@@QEAAAEAV01@XZ
	??E?$_Deque_iterator@V?$_Deque_val@U?$_Deque_simple_types@N@std@@@std@@@std@@QEAAAEAV01@XZ
	??E?$_Vector_const_iterator@V?$_Vector_val@U?$_Simple_types@U?$BoolParameter_@V?$allocator@X@std@@@dynamic_reconfigure@@@std@@@std@@@std@@QEAAAEAV01@XZ
	??E?$_Vector_const_iterator@V?$_Vector_val@U?$_Simple_types@U?$DoubleParameter_@V?$allocator@X@std@@@dynamic_reconfigure@@@std@@@std@@@std@@QEAAAEAV01@XZ
	??E?$_Vector_const_iterator@V?$_Vector_val@U?$_Simple_types@U?$GroupState_@V?$allocator@X@std@@@dynamic_reconfigure@@@std@@@std@@@std@@QEAAAEAV01@XZ
	??E?$_Vector_const_iterator@V?$_Vector_val@U?$_Simple_types@U?$Group_@V?$allocator@X@std@@@dynamic_reconfigure@@@std@@@std@@@std@@QEAAAEAV01@XZ
	??E?$_Vector_const_iterator@V?$_Vector_val@U?$_Simple_types@U?$IntParameter_@V?$allocator@X@std@@@dynamic_reconfigure@@@std@@@std@@@std@@QEAAAEAV01@XZ
	??E?$_Vector_const_iterator@V?$_Vector_val@U?$_Simple_types@U?$ParamDescription_@V?$allocator@X@std@@@dynamic_reconfigure@@@std@@@std@@@std@@QEAAAEAV01@XZ
	??E?$_Vector_const_iterator@V?$_Vector_val@U?$_Simple_types@U?$StrParameter_@V?$allocator@X@std@@@dynamic_reconfigure@@@std@@@std@@@std@@QEAAAEAV01@XZ
	??E?$_Vector_const_iterator@V?$_Vector_val@U?$_Simple_types@V?$shared_ptr@$$CBVAbstractGroupDescription@VideoStreamConfig@video_stream_opencv@@@boost@@@std@@@std@@@std@@QEAA?AV01@H@Z
	??E?$_Vector_const_iterator@V?$_Vector_val@U?$_Simple_types@V?$shared_ptr@$$CBVAbstractGroupDescription@VideoStreamConfig@video_stream_opencv@@@boost@@@std@@@std@@@std@@QEAAAEAV01@XZ
	??E?$_Vector_const_iterator@V?$_Vector_val@U?$_Simple_types@V?$shared_ptr@$$CBVAbstractParamDescription@VideoStreamConfig@video_stream_opencv@@@boost@@@std@@@std@@@std@@QEAAAEAV01@XZ
	??E?$_Vector_iterator@V?$_Vector_val@U?$_Simple_types@U?$BoolParameter_@V?$allocator@X@std@@@dynamic_reconfigure@@@std@@@std@@@std@@QEAAAEAV01@XZ
	??E?$_Vector_iterator@V?$_Vector_val@U?$_Simple_types@U?$DoubleParameter_@V?$allocator@X@std@@@dynamic_reconfigure@@@std@@@std@@@std@@QEAAAEAV01@XZ
	??E?$_Vector_iterator@V?$_Vector_val@U?$_Simple_types@U?$GroupState_@V?$allocator@X@std@@@dynamic_reconfigure@@@std@@@std@@@std@@QEAAAEAV01@XZ
	??E?$_Vector_iterator@V?$_Vector_val@U?$_Simple_types@U?$IntParameter_@V?$allocator@X@std@@@dynamic_reconfigure@@@std@@@std@@@std@@QEAAAEAV01@XZ
	??E?$_Vector_iterator@V?$_Vector_val@U?$_Simple_types@U?$StrParameter_@V?$allocator@X@std@@@dynamic_reconfigure@@@std@@@std@@@std@@QEAAAEAV01@XZ
	??R<lambda_138c3d7c38c85abb84c7fc7bfe5747b7>@@QEBA@QEAD_KD@Z
	??R<lambda_65e615be2a453ca0576c979606f46740>@@QEBA@QEADQEBD_K12@Z
	??R<lambda_66f57f934f28d61049862f64df852ff0>@@QEBA@QEAD_KQEBD@Z
	??R<lambda_e1befb086ad3257e3f042a63030725f7>@@QEBA@QEADQEBD_K2D@Z
	??R?$bind_t@VSerializedMessage@ros@@P6A?AV12@AEBU?$ConfigDescription_@V?$allocator@X@std@@@dynamic_reconfigure@@@ZV?$list1@V?$reference_wrapper@$$CBU?$ConfigDescription_@V?$allocator@X@std@@@dynamic_reconfigure@@@boost@@@_bi@boost@@@_bi@boost@@QEAA?AVSerializedMessage@ros@@XZ
	??R?$bind_t@VSerializedMessage@ros@@P6A?AV12@AEBU?$Config_@V?$allocator@X@std@@@dynamic_reconfigure@@@ZV?$list1@V?$reference_wrapper@$$CBU?$Config_@V?$allocator@X@std@@@dynamic_reconfigure@@@boost@@@_bi@boost@@@_bi@boost@@QEAA?AVSerializedMessage@ros@@XZ
	??R?$bind_t@XV?$mf0@XVVideoStreamNodelet@video_stream_opencv@@@_mfi@boost@@V?$list1@V?$value@PEAVVideoStreamNodelet@video_stream_opencv@@@_bi@boost@@@_bi@3@@_bi@boost@@QEAAXXZ
	??R?$checked_array_deleter@E@boost@@QEBAXPEAE@Z
	??R?$function0@V?$shared_ptr@U?$ReconfigureRequest_@V?$allocator@X@std@@@dynamic_reconfigure@@@boost@@@boost@@QEBA?AV?$shared_ptr@U?$ReconfigureRequest_@V?$allocator@X@std@@@dynamic_reconfigure@@@1@XZ
	??R?$function0@V?$shared_ptr@U?$ReconfigureResponse_@V?$allocator@X@std@@@dynamic_reconfigure@@@boost@@@boost@@QEBA?AV?$shared_ptr@U?$ReconfigureResponse_@V?$allocator@X@std@@@dynamic_reconfigure@@@1@XZ
	??R?$function2@XAEAVVideoStreamConfig@video_stream_opencv@@I@boost@@QEBAXAEAVVideoStreamConfig@video_stream_opencv@@I@Z
	??R?$function2@_NAEAU?$ReconfigureRequest_@V?$allocator@X@std@@@dynamic_reconfigure@@AEAU?$ReconfigureResponse_@V?$allocator@X@std@@@2@@boost@@QEBA_NAEAU?$ReconfigureRequest_@V?$allocator@X@std@@@dynamic_reconfigure@@AEAU?$ReconfigureResponse_@V?$allocator@X@std@@@3@@Z
	??R?$generic_list@N@assign_detail@boost@@QEAAAEAV012@$$QEAN@Z
	??R?$less@V?$basic_string@DU?$char_traits@D@std@@V?$allocator@D@2@@std@@@std@@QEBA_NAEBV?$basic_string@DU?$char_traits@D@std@@V?$allocator@D@2@@1@0@Z
	??R?$mf0@XVVideoStreamNodelet@video_stream_opencv@@@_mfi@boost@@QEBAXPEAVVideoStreamNodelet@video_stream_opencv@@@Z
	??R?$mf1@XVVideoStreamNodelet@video_stream_opencv@@AEBUTimerEvent@ros@@@_mfi@boost@@QEBAXPEAVVideoStreamNodelet@video_stream_opencv@@AEBUTimerEvent@ros@@@Z
	??R?$mf1@XVVideoStreamNodelet@video_stream_opencv@@AEBVSingleSubscriberPublisher@image_transport@@@_mfi@boost@@QEBAXPEAVVideoStreamNodelet@video_stream_opencv@@AEBVSingleSubscriberPublisher@image_transport@@@Z
	??R?$mf1@XVVideoStreamNodelet@video_stream_opencv@@AEBVSingleSubscriberPublisher@ros@@@_mfi@boost@@QEBAXPEAVVideoStreamNodelet@video_stream_opencv@@AEBVSingleSubscriberPublisher@ros@@@Z
	??R?$mf2@XVVideoStreamNodelet@video_stream_opencv@@AEAVVideoStreamConfig@2@I@_mfi@boost@@QEBAXPEAVVideoStreamNodelet@video_stream_opencv@@AEAVVideoStreamConfig@4@I@Z
	??R?$mf2@_NV?$Server@VVideoStreamConfig@video_stream_opencv@@@dynamic_reconfigure@@AEAU?$ReconfigureRequest_@V?$allocator@X@std@@@2@AEAU?$ReconfigureResponse_@V?$allocator@X@std@@@2@@_mfi@boost@@QEBA_NPEAV?$Server@VVideoStreamConfig@video_stream_opencv@@@dynamic_reconfigure@@AEAU?$ReconfigureRequest_@V?$allocator@X@std@@@4@AEAU?$ReconfigureResponse_@V?$allocator@X@std@@@4@@Z
	??R?$sp_ms_deleter@U?$ReconfigureRequest_@V?$allocator@X@std@@@dynamic_reconfigure@@@detail@boost@@QEAAXPEAU?$ReconfigureRequest_@V?$allocator@X@std@@@dynamic_reconfigure@@@Z
	??R?$sp_ms_deleter@U?$ReconfigureResponse_@V?$allocator@X@std@@@dynamic_reconfigure@@@detail@boost@@QEAAXPEAU?$ReconfigureResponse_@V?$allocator@X@std@@@dynamic_reconfigure@@@Z
	??R?$sp_ms_deleter@V?$Server@VVideoStreamConfig@video_stream_opencv@@@dynamic_reconfigure@@@detail@boost@@QEAAXPEAV?$Server@VVideoStreamConfig@video_stream_opencv@@@dynamic_reconfigure@@@Z
	??R?$sp_ms_deleter@V?$ServiceCallbackHelperT@U?$ServiceSpec@U?$ReconfigureRequest_@V?$allocator@X@std@@@dynamic_reconfigure@@U?$ReconfigureResponse_@V?$allocator@X@std@@@2@@ros@@@ros@@@detail@boost@@QEAAXPEAV?$ServiceCallbackHelperT@U?$ServiceSpec@U?$ReconfigureRequest_@V?$allocator@X@std@@@dynamic_reconfigure@@U?$ReconfigureResponse_@V?$allocator@X@std@@@2@@ros@@@ros@@@Z
	??R?$sp_ms_deleter@VCvImage@cv_bridge@@@detail@boost@@QEAAXPEAVCvImage@cv_bridge@@@Z
	??Y?$basic_string@DU?$char_traits@D@std@@V?$allocator@D@2@@std@@QEAAAEAV01@AEBV01@@Z
	??Y?$basic_string@DU?$char_traits@D@std@@V?$allocator@D@2@@std@@QEAAAEAV01@QEBD@Z
	??_9VideoStreamNodelet@video_stream_opencv@@$BBI@AA
	??_9VideoStreamNodelet@video_stream_opencv@@$BCA@AA
	??_9VideoStreamNodelet@video_stream_opencv@@$BEI@AA
	??_9VideoStreamNodelet@video_stream_opencv@@$BFA@AA
	??_9VideoStreamNodelet@video_stream_opencv@@$BFI@AA
	??_9VideoStreamNodelet@video_stream_opencv@@$BGA@AA
	??_9VideoStreamNodelet@video_stream_opencv@@$BGI@AA
	??_D?$basic_stringstream@DU?$char_traits@D@std@@V?$allocator@D@2@@std@@QEAAXXZ
	??__Finstance@?1??get_instance@VideoStreamConfigStatics@video_stream_opencv@@CAPEBV12@XZ@YAXXZ
	?CreateEventA@winapi@boost@@YAPEAXPEAU_SECURITY_ATTRIBUTES@12@HHPEBD@Z
	?MAKELANGID_@winapi@boost@@YAGGG@Z
	?_Adjust_manually_vector_aligned@std@@YAXAEAPEAXAEA_K@Z
	?_Adopt@_Iterator_base0@std@@QEAAXPEBX@Z
	?_Adopt@_Iterator_base12@std@@QEAAXPEBU_Container_base12@2@@Z
	?_Alloc_proxy@_Container_base0@std@@QEAAXAEBU_Fake_allocator@2@@Z
	?_Allocate@?$_Alloc_construct_ptr@V?$allocator@U?$_Tree_node@U?$pair@$$CBV?$basic_string@DU?$char_traits@D@std@@V?$allocator@D@2@@std@@PEAVAbstractMetaObjectBase@impl@class_loader@@@std@@PEAX@std@@@std@@@std@@QEAAXXZ
	?_Allocate@_Default_allocate_traits@std@@SAPEAX_K@Z
	?_Buy_raw@?$vector@U?$ParamDescription_@V?$allocator@X@std@@@dynamic_reconfigure@@V?$allocator@U?$ParamDescription_@V?$allocator@X@std@@@dynamic_reconfigure@@@std@@@std@@AEAAX_K@Z
	?_Buy_raw@?$vector@V?$shared_ptr@$$CBVAbstractGroupDescription@VideoStreamConfig@video_stream_opencv@@@boost@@V?$allocator@V?$shared_ptr@$$CBVAbstractGroupDescription@VideoStreamConfig@video_stream_opencv@@@boost@@@std@@@std@@AEAAX_K@Z
	?_Buy_raw@?$vector@V?$shared_ptr@$$CBVAbstractParamDescription@VideoStreamConfig@video_stream_opencv@@@boost@@V?$allocator@V?$shared_ptr@$$CBVAbstractParamDescription@VideoStreamConfig@video_stream_opencv@@@boost@@@std@@@std@@AEAAX_K@Z
	?_Calculate_growth@?$basic_string@DU?$char_traits@D@std@@V?$allocator@D@2@@std@@AEBA_K_K@Z
	?_Calculate_growth@?$basic_string@DU?$char_traits@D@std@@V?$allocator@D@2@@std@@CA_K_K00@Z
	?_Calculate_growth@?$vector@NV?$allocator@N@std@@@std@@AEBA_K_K@Z
	?_Calculate_growth@?$vector@U?$BoolParameter_@V?$allocator@X@std@@@dynamic_reconfigure@@V?$allocator@U?$BoolParameter_@V?$allocator@X@std@@@dynamic_reconfigure@@@std@@@std@@AEBA_K_K@Z
	?_Calculate_growth@?$vector@U?$DoubleParameter_@V?$allocator@X@std@@@dynamic_reconfigure@@V?$allocator@U?$DoubleParameter_@V?$allocator@X@std@@@dynamic_reconfigure@@@std@@@std@@AEBA_K_K@Z
	?_Calculate_growth@?$vector@U?$GroupState_@V?$allocator@X@std@@@dynamic_reconfigure@@V?$allocator@U?$GroupState_@V?$allocator@X@std@@@dynamic_reconfigure@@@std@@@std@@AEBA_K_K@Z
	?_Calculate_growth@?$vector@U?$Group_@V?$allocator@X@std@@@dynamic_reconfigure@@V?$allocator@U?$Group_@V?$allocator@X@std@@@dynamic_reconfigure@@@std@@@std@@AEBA_K_K@Z
	?_Calculate_growth@?$vector@U?$IntParameter_@V?$allocator@X@std@@@dynamic_reconfigure@@V?$allocator@U?$IntParameter_@V?$allocator@X@std@@@dynamic_reconfigure@@@std@@@std@@AEBA_K_K@Z
	?_Calculate_growth@?$vector@U?$ParamDescription_@V?$allocator@X@std@@@dynamic_reconfigure@@V?$allocator@U?$ParamDescription_@V?$allocator@X@std@@@dynamic_reconfigure@@@std@@@std@@AEBA_K_K@Z
	?_Calculate_growth@?$vector@U?$StrParameter_@V?$allocator@X@std@@@dynamic_reconfigure@@V?$allocator@U?$StrParameter_@V?$allocator@X@std@@@dynamic_reconfigure@@@std@@@std@@AEBA_K_K@Z
	?_Calculate_growth@?$vector@V?$shared_ptr@$$CBVAbstractGroupDescription@VideoStreamConfig@video_stream_opencv@@@boost@@V?$allocator@V?$shared_ptr@$$CBVAbstractGroupDescription@VideoStreamConfig@video_stream_opencv@@@boost@@@std@@@std@@AEBA_K_K@Z
	?_Calculate_growth@?$vector@V?$shared_ptr@$$CBVAbstractParamDescription@VideoStreamConfig@video_stream_opencv@@@boost@@V?$allocator@V?$shared_ptr@$$CBVAbstractParamDescription@VideoStreamConfig@video_stream_opencv@@@boost@@@std@@@std@@AEBA_K_K@Z
	?_Change_array@?$vector@NV?$allocator@N@std@@@std@@AEAAXQEAN_K1@Z
	?_Change_array@?$vector@U?$BoolParameter_@V?$allocator@X@std@@@dynamic_reconfigure@@V?$allocator@U?$BoolParameter_@V?$allocator@X@std@@@dynamic_reconfigure@@@std@@@std@@AEAAXQEAU?$BoolParameter_@V?$allocator@X@std@@@dynamic_reconfigure@@_K1@Z
	?_Change_array@?$vector@U?$DoubleParameter_@V?$allocator@X@std@@@dynamic_reconfigure@@V?$allocator@U?$DoubleParameter_@V?$allocator@X@std@@@dynamic_reconfigure@@@std@@@std@@AEAAXQEAU?$DoubleParameter_@V?$allocator@X@std@@@dynamic_reconfigure@@_K1@Z
	?_Change_array@?$vector@U?$GroupState_@V?$allocator@X@std@@@dynamic_reconfigure@@V?$allocator@U?$GroupState_@V?$allocator@X@std@@@dynamic_reconfigure@@@std@@@std@@AEAAXQEAU?$GroupState_@V?$allocator@X@std@@@dynamic_reconfigure@@_K1@Z
	?_Change_array@?$vector@U?$Group_@V?$allocator@X@std@@@dynamic_reconfigure@@V?$allocator@U?$Group_@V?$allocator@X@std@@@dynamic_reconfigure@@@std@@@std@@AEAAXQEAU?$Group_@V?$allocator@X@std@@@dynamic_reconfigure@@_K1@Z
	?_Change_array@?$vector@U?$IntParameter_@V?$allocator@X@std@@@dynamic_reconfigure@@V?$allocator@U?$IntParameter_@V?$allocator@X@std@@@dynamic_reconfigure@@@std@@@std@@AEAAXQEAU?$IntParameter_@V?$allocator@X@std@@@dynamic_reconfigure@@_K1@Z
	?_Change_array@?$vector@U?$ParamDescription_@V?$allocator@X@std@@@dynamic_reconfigure@@V?$allocator@U?$ParamDescription_@V?$allocator@X@std@@@dynamic_reconfigure@@@std@@@std@@AEAAXQEAU?$ParamDescription_@V?$allocator@X@std@@@dynamic_reconfigure@@_K1@Z
	?_Change_array@?$vector@U?$StrParameter_@V?$allocator@X@std@@@dynamic_reconfigure@@V?$allocator@U?$StrParameter_@V?$allocator@X@std@@@dynamic_reconfigure@@@std@@@std@@AEAAXQEAU?$StrParameter_@V?$allocator@X@std@@@dynamic_reconfigure@@_K1@Z
	?_Change_array@?$vector@V?$shared_ptr@$$CBVAbstractGroupDescription@VideoStreamConfig@video_stream_opencv@@@boost@@V?$allocator@V?$shared_ptr@$$CBVAbstractGroupDescription@VideoStreamConfig@video_stream_opencv@@@boost@@@std@@@std@@AEAAXQEAV?$shared_ptr@$$CBVAbstractGroupDescription@VideoStreamConfig@video_stream_opencv@@@boost@@_K1@Z
	?_Change_array@?$vector@V?$shared_ptr@$$CBVAbstractParamDescription@VideoStreamConfig@video_stream_opencv@@@boost@@V?$allocator@V?$shared_ptr@$$CBVAbstractParamDescription@VideoStreamConfig@video_stream_opencv@@@boost@@@std@@@std@@AEAAXQEAV?$shared_ptr@$$CBVAbstractParamDescription@VideoStreamConfig@video_stream_opencv@@@boost@@_K1@Z
	?_Check_C_return@std@@YAHH@Z
	?_Check_grow_by_1@?$_Tree@V?$_Tmap_traits@V?$basic_string@DU?$char_traits@D@std@@V?$allocator@D@2@@std@@PEAVAbstractMetaObjectBase@impl@class_loader@@U?$less@V?$basic_string@DU?$char_traits@D@std@@V?$allocator@D@2@@std@@@2@V?$allocator@U?$pair@$$CBV?$basic_string@DU?$char_traits@D@std@@V?$allocator@D@2@@std@@PEAVAbstractMetaObjectBase@impl@class_loader@@@std@@@2@$0A@@std@@@std@@IEAAXXZ
	?_Check_memory_order@std@@YAXW4memory_order@1@@Z
	?_Clear_and_reserve_geometric@?$vector@U?$ParamDescription_@V?$allocator@X@std@@@dynamic_reconfigure@@V?$allocator@U?$ParamDescription_@V?$allocator@X@std@@@dynamic_reconfigure@@@std@@@std@@AEAAX_K@Z
	?_Clear_and_reserve_geometric@?$vector@V?$shared_ptr@$$CBVAbstractParamDescription@VideoStreamConfig@video_stream_opencv@@@boost@@V?$allocator@V?$shared_ptr@$$CBVAbstractParamDescription@VideoStreamConfig@video_stream_opencv@@@boost@@@std@@@std@@AEAAX_K@Z
	?_Compat@?$_Deque_const_iterator@V?$_Deque_val@U?$_Deque_simple_types@N@std@@@std@@@std@@QEBAXAEBV12@@Z
	?_Compat@?$_Vector_const_iterator@V?$_Vector_val@U?$_Simple_types@U?$BoolParameter_@V?$allocator@X@std@@@dynamic_reconfigure@@@std@@@std@@@std@@QEBAXAEBV12@@Z
	?_Compat@?$_Vector_const_iterator@V?$_Vector_val@U?$_Simple_types@U?$DoubleParameter_@V?$allocator@X@std@@@dynamic_reconfigure@@@std@@@std@@@std@@QEBAXAEBV12@@Z
	?_Compat@?$_Vector_const_iterator@V?$_Vector_val@U?$_Simple_types@U?$GroupState_@V?$allocator@X@std@@@dynamic_reconfigure@@@std@@@std@@@std@@QEBAXAEBV12@@Z
	?_Compat@?$_Vector_const_iterator@V?$_Vector_val@U?$_Simple_types@U?$Group_@V?$allocator@X@std@@@dynamic_reconfigure@@@std@@@std@@@std@@QEBAXAEBV12@@Z
	?_Compat@?$_Vector_const_iterator@V?$_Vector_val@U?$_Simple_types@U?$IntParameter_@V?$allocator@X@std@@@dynamic_reconfigure@@@std@@@std@@@std@@QEBAXAEBV12@@Z
	?_Compat@?$_Vector_const_iterator@V?$_Vector_val@U?$_Simple_types@U?$ParamDescription_@V?$allocator@X@std@@@dynamic_reconfigure@@@std@@@std@@@std@@QEBAXAEBV12@@Z
	?_Compat@?$_Vector_const_iterator@V?$_Vector_val@U?$_Simple_types@U?$StrParameter_@V?$allocator@X@std@@@dynamic_reconfigure@@@std@@@std@@@std@@QEBAXAEBV12@@Z
	?_Compat@?$_Vector_const_iterator@V?$_Vector_val@U?$_Simple_types@V?$shared_ptr@$$CBVAbstractGroupDescription@VideoStreamConfig@video_stream_opencv@@@boost@@@std@@@std@@@std@@QEBAXAEBV12@@Z
	?_Compat@?$_Vector_const_iterator@V?$_Vector_val@U?$_Simple_types@V?$shared_ptr@$$CBVAbstractParamDescription@VideoStreamConfig@video_stream_opencv@@@boost@@@std@@@std@@@std@@QEBAXAEBV12@@Z
	?_Construct_lv_contents@?$basic_string@DU?$char_traits@D@std@@V?$allocator@D@2@@std@@AEAAXAEBV12@@Z
	?_Copy_assign@?$basic_string@DU?$char_traits@D@std@@V?$allocator@D@2@@std@@AEAAXAEBV12@U?$integral_constant@_N$0A@@2@@Z
	?_Copy_assign@?$vector@U?$ParamDescription_@V?$allocator@X@std@@@dynamic_reconfigure@@V?$allocator@U?$ParamDescription_@V?$allocator@X@std@@@dynamic_reconfigure@@@std@@@std@@AEAAXAEBV12@U?$integral_constant@_N$0A@@2@@Z
	?_Copy_assign@?$vector@V?$shared_ptr@$$CBVAbstractParamDescription@VideoStreamConfig@video_stream_opencv@@@boost@@V?$allocator@V?$shared_ptr@$$CBVAbstractParamDescription@VideoStreamConfig@video_stream_opencv@@@boost@@@std@@@std@@AEAAXAEBV12@U?$integral_constant@_N$0A@@2@@Z
	?_Destroy@?$vector@NV?$allocator@N@std@@@std@@AEAAXPEAN0@Z
	?_Destroy@?$vector@U?$BoolParameter_@V?$allocator@X@std@@@dynamic_reconfigure@@V?$allocator@U?$BoolParameter_@V?$allocator@X@std@@@dynamic_reconfigure@@@std@@@std@@AEAAXPEAU?$BoolParameter_@V?$allocator@X@std@@@dynamic_reconfigure@@0@Z
	?_Destroy@?$vector@U?$DoubleParameter_@V?$allocator@X@std@@@dynamic_reconfigure@@V?$allocator@U?$DoubleParameter_@V?$allocator@X@std@@@dynamic_reconfigure@@@std@@@std@@AEAAXPEAU?$DoubleParameter_@V?$allocator@X@std@@@dynamic_reconfigure@@0@Z
	?_Destroy@?$vector@U?$GroupState_@V?$allocator@X@std@@@dynamic_reconfigure@@V?$allocator@U?$GroupState_@V?$allocator@X@std@@@dynamic_reconfigure@@@std@@@std@@AEAAXPEAU?$GroupState_@V?$allocator@X@std@@@dynamic_reconfigure@@0@Z
	?_Destroy@?$vector@U?$Group_@V?$allocator@X@std@@@dynamic_reconfigure@@V?$allocator@U?$Group_@V?$allocator@X@std@@@dynamic_reconfigure@@@std@@@std@@AEAAXPEAU?$Group_@V?$allocator@X@std@@@dynamic_reconfigure@@0@Z
	?_Destroy@?$vector@U?$IntParameter_@V?$allocator@X@std@@@dynamic_reconfigure@@V?$allocator@U?$IntParameter_@V?$allocator@X@std@@@dynamic_reconfigure@@@std@@@std@@AEAAXPEAU?$IntParameter_@V?$allocator@X@std@@@dynamic_reconfigure@@0@Z
	?_Destroy@?$vector@U?$ParamDescription_@V?$allocator@X@std@@@dynamic_reconfigure@@V?$allocator@U?$ParamDescription_@V?$allocator@X@std@@@dynamic_reconfigure@@@std@@@std@@AEAAXPEAU?$ParamDescription_@V?$allocator@X@std@@@dynamic_reconfigure@@0@Z
	?_Destroy@?$vector@U?$StrParameter_@V?$allocator@X@std@@@dynamic_reconfigure@@V?$allocator@U?$StrParameter_@V?$allocator@X@std@@@dynamic_reconfigure@@@std@@@std@@AEAAXPEAU?$StrParameter_@V?$allocator@X@std@@@dynamic_reconfigure@@0@Z
	?_Destroy@?$vector@V?$shared_ptr@$$CBVAbstractGroupDescription@VideoStreamConfig@video_stream_opencv@@@boost@@V?$allocator@V?$shared_ptr@$$CBVAbstractGroupDescription@VideoStreamConfig@video_stream_opencv@@@boost@@@std@@@std@@AEAAXPEAV?$shared_ptr@$$CBVAbstractGroupDescription@VideoStreamConfig@video_stream_opencv@@@boost@@0@Z
	?_Destroy@?$vector@V?$shared_ptr@$$CBVAbstractParamDescription@VideoStreamConfig@video_stream_opencv@@@boost@@V?$allocator@V?$shared_ptr@$$CBVAbstractParamDescription@VideoStreamConfig@video_stream_opencv@@@boost@@@std@@@std@@AEAAXPEAV?$shared_ptr@$$CBVAbstractParamDescription@VideoStreamConfig@video_stream_opencv@@@boost@@0@Z
	?_Eos@?$basic_string@DU?$char_traits@D@std@@V?$allocator@D@2@@std@@AEAAX_K@Z
	?_Equal@?$basic_string@DU?$char_traits@D@std@@V?$allocator@D@2@@std@@QEBA_NAEBV12@@Z
	?_Equal@?$basic_string@DU?$char_traits@D@std@@V?$allocator@D@2@@std@@QEBA_NQEBD@Z
	?_Get_data@?$deque@NV?$allocator@N@std@@@std@@AEAAAEAV?$_Deque_val@U?$_Deque_simple_types@N@std@@@2@XZ
	?_Get_data@?$deque@NV?$allocator@N@std@@@std@@AEBAAEBV?$_Deque_val@U?$_Deque_simple_types@N@std@@@2@XZ
	?_Get_data@?$deque@VMat@cv@@V?$allocator@VMat@cv@@@std@@@std@@AEAAAEAV?$_Deque_val@U?$_Deque_simple_types@VMat@cv@@@std@@@2@XZ
	?_Get_data@?$deque@VMat@cv@@V?$allocator@VMat@cv@@@std@@@std@@AEBAAEBV?$_Deque_val@U?$_Deque_simple_types@VMat@cv@@@std@@@2@XZ
	?_Get_first@?$_Compressed_pair@U?$less@V?$basic_string@DU?$char_traits@D@std@@V?$allocator@D@2@@std@@@std@@V?$_Compressed_pair@V?$allocator@U?$_Tree_node@U?$pair@$$CBV?$basic_string@DU?$char_traits@D@std@@V?$allocator@D@2@@std@@PEAVAbstractMetaObjectBase@impl@class_loader@@@std@@PEAX@std@@@std@@V?$_Tree_val@U?$_Tree_simple_types@U?$pair@$$CBV?$basic_string@DU?$char_traits@D@std@@V?$allocator@D@2@@std@@PEAVAbstractMetaObjectBase@impl@class_loader@@@std@@@std@@@2@$00@2@$00@std@@QEBAAEBU?$less@V?$basic_string@DU?$char_traits@D@std@@V?$allocator@D@2@@std@@@2@XZ
	?_Get_first@?$_Compressed_pair@V?$allocator@D@std@@V?$_String_val@U?$_Simple_types@D@std@@@2@$00@std@@QEAAAEAV?$allocator@D@2@XZ
	?_Get_first@?$_Compressed_pair@V?$allocator@D@std@@V?$_String_val@U?$_Simple_types@D@std@@@2@$00@std@@QEBAAEBV?$allocator@D@2@XZ
	?_Get_first@?$_Compressed_pair@V?$allocator@N@std@@V?$_Deque_val@U?$_Deque_simple_types@N@std@@@2@$00@std@@QEAAAEAV?$allocator@N@2@XZ
	?_Get_first@?$_Compressed_pair@V?$allocator@N@std@@V?$_Deque_val@U?$_Deque_simple_types@N@std@@@2@$00@std@@QEBAAEBV?$allocator@N@2@XZ
	?_Get_first@?$_Compressed_pair@V?$allocator@N@std@@V?$_Vector_val@U?$_Simple_types@N@std@@@2@$00@std@@QEAAAEAV?$allocator@N@2@XZ
	?_Get_first@?$_Compressed_pair@V?$allocator@N@std@@V?$_Vector_val@U?$_Simple_types@N@std@@@2@$00@std@@QEBAAEBV?$allocator@N@2@XZ
	?_Get_first@?$_Compressed_pair@V?$allocator@U?$BoolParameter_@V?$allocator@X@std@@@dynamic_reconfigure@@@std@@V?$_Vector_val@U?$_Simple_types@U?$BoolParameter_@V?$allocator@X@std@@@dynamic_reconfigure@@@std@@@2@$00@std@@QEAAAEAV?$allocator@U?$BoolParameter_@V?$allocator@X@std@@@dynamic_reconfigure@@@2@XZ
	?_Get_first@?$_Compressed_pair@V?$allocator@U?$BoolParameter_@V?$allocator@X@std@@@dynamic_reconfigure@@@std@@V?$_Vector_val@U?$_Simple_types@U?$BoolParameter_@V?$allocator@X@std@@@dynamic_reconfigure@@@std@@@2@$00@std@@QEBAAEBV?$allocator@U?$BoolParameter_@V?$allocator@X@std@@@dynamic_reconfigure@@@2@XZ
	?_Get_first@?$_Compressed_pair@V?$allocator@U?$DoubleParameter_@V?$allocator@X@std@@@dynamic_reconfigure@@@std@@V?$_Vector_val@U?$_Simple_types@U?$DoubleParameter_@V?$allocator@X@std@@@dynamic_reconfigure@@@std@@@2@$00@std@@QEAAAEAV?$allocator@U?$DoubleParameter_@V?$allocator@X@std@@@dynamic_reconfigure@@@2@XZ
	?_Get_first@?$_Compressed_pair@V?$allocator@U?$DoubleParameter_@V?$allocator@X@std@@@dynamic_reconfigure@@@std@@V?$_Vector_val@U?$_Simple_types@U?$DoubleParameter_@V?$allocator@X@std@@@dynamic_reconfigure@@@std@@@2@$00@std@@QEBAAEBV?$allocator@U?$DoubleParameter_@V?$allocator@X@std@@@dynamic_reconfigure@@@2@XZ
	?_Get_first@?$_Compressed_pair@V?$allocator@U?$GroupState_@V?$allocator@X@std@@@dynamic_reconfigure@@@std@@V?$_Vector_val@U?$_Simple_types@U?$GroupState_@V?$allocator@X@std@@@dynamic_reconfigure@@@std@@@2@$00@std@@QEAAAEAV?$allocator@U?$GroupState_@V?$allocator@X@std@@@dynamic_reconfigure@@@2@XZ
	?_Get_first@?$_Compressed_pair@V?$allocator@U?$GroupState_@V?$allocator@X@std@@@dynamic_reconfigure@@@std@@V?$_Vector_val@U?$_Simple_types@U?$GroupState_@V?$allocator@X@std@@@dynamic_reconfigure@@@std@@@2@$00@std@@QEBAAEBV?$allocator@U?$GroupState_@V?$allocator@X@std@@@dynamic_reconfigure@@@2@XZ
	?_Get_first@?$_Compressed_pair@V?$allocator@U?$Group_@V?$allocator@X@std@@@dynamic_reconfigure@@@std@@V?$_Vector_val@U?$_Simple_types@U?$Group_@V?$allocator@X@std@@@dynamic_reconfigure@@@std@@@2@$00@std@@QEAAAEAV?$allocator@U?$Group_@V?$allocator@X@std@@@dynamic_reconfigure@@@2@XZ
	?_Get_first@?$_Compressed_pair@V?$allocator@U?$Group_@V?$allocator@X@std@@@dynamic_reconfigure@@@std@@V?$_Vector_val@U?$_Simple_types@U?$Group_@V?$allocator@X@std@@@dynamic_reconfigure@@@std@@@2@$00@std@@QEBAAEBV?$allocator@U?$Group_@V?$allocator@X@std@@@dynamic_reconfigure@@@2@XZ
	?_Get_first@?$_Compressed_pair@V?$allocator@U?$IntParameter_@V?$allocator@X@std@@@dynamic_reconfigure@@@std@@V?$_Vector_val@U?$_Simple_types@U?$IntParameter_@V?$allocator@X@std@@@dynamic_reconfigure@@@std@@@2@$00@std@@QEAAAEAV?$allocator@U?$IntParameter_@V?$allocator@X@std@@@dynamic_reconfigure@@@2@XZ
	?_Get_first@?$_Compressed_pair@V?$allocator@U?$IntParameter_@V?$allocator@X@std@@@dynamic_reconfigure@@@std@@V?$_Vector_val@U?$_Simple_types@U?$IntParameter_@V?$allocator@X@std@@@dynamic_reconfigure@@@std@@@2@$00@std@@QEBAAEBV?$allocator@U?$IntParameter_@V?$allocator@X@std@@@dynamic_reconfigure@@@2@XZ
	?_Get_first@?$_Compressed_pair@V?$allocator@U?$ParamDescription_@V?$allocator@X@std@@@dynamic_reconfigure@@@std@@V?$_Vector_val@U?$_Simple_types@U?$ParamDescription_@V?$allocator@X@std@@@dynamic_reconfigure@@@std@@@2@$00@std@@QEAAAEAV?$allocator@U?$ParamDescription_@V?$allocator@X@std@@@dynamic_reconfigure@@@2@XZ
	?_Get_first@?$_Compressed_pair@V?$allocator@U?$ParamDescription_@V?$allocator@X@std@@@dynamic_reconfigure@@@std@@V?$_Vector_val@U?$_Simple_types@U?$ParamDescription_@V?$allocator@X@std@@@dynamic_reconfigure@@@std@@@2@$00@std@@QEBAAEBV?$allocator@U?$ParamDescription_@V?$allocator@X@std@@@dynamic_reconfigure@@@2@XZ
	?_Get_first@?$_Compressed_pair@V?$allocator@U?$StrParameter_@V?$allocator@X@std@@@dynamic_reconfigure@@@std@@V?$_Vector_val@U?$_Simple_types@U?$StrParameter_@V?$allocator@X@std@@@dynamic_reconfigure@@@std@@@2@$00@std@@QEAAAEAV?$allocator@U?$StrParameter_@V?$allocator@X@std@@@dynamic_reconfigure@@@2@XZ
	?_Get_first@?$_Compressed_pair@V?$allocator@U?$StrParameter_@V?$allocator@X@std@@@dynamic_reconfigure@@@std@@V?$_Vector_val@U?$_Simple_types@U?$StrParameter_@V?$allocator@X@std@@@dynamic_reconfigure@@@std@@@2@$00@std@@QEBAAEBV?$allocator@U?$StrParameter_@V?$allocator@X@std@@@dynamic_reconfigure@@@2@XZ
	?_Get_first@?$_Compressed_pair@V?$allocator@U?$_Tree_node@U?$pair@$$CBV?$basic_string@DU?$char_traits@D@std@@V?$allocator@D@2@@std@@PEAVAbstractMetaObjectBase@impl@class_loader@@@std@@PEAX@std@@@std@@V?$_Tree_val@U?$_Tree_simple_types@U?$pair@$$CBV?$basic_string@DU?$char_traits@D@std@@V?$allocator@D@2@@std@@PEAVAbstractMetaObjectBase@impl@class_loader@@@std@@@std@@@2@$00@std@@QEAAAEAV?$allocator@U?$_Tree_node@U?$pair@$$CBV?$basic_string@DU?$char_traits@D@std@@V?$allocator@D@2@@std@@PEAVAbstractMetaObjectBase@impl@class_loader@@@std@@PEAX@std@@@2@XZ
	?_Get_first@?$_Compressed_pair@V?$allocator@U?$_Tree_node@U?$pair@$$CBV?$basic_string@DU?$char_traits@D@std@@V?$allocator@D@2@@std@@PEAVAbstractMetaObjectBase@impl@class_loader@@@std@@PEAX@std@@@std@@V?$_Tree_val@U?$_Tree_simple_types@U?$pair@$$CBV?$basic_string@DU?$char_traits@D@std@@V?$allocator@D@2@@std@@PEAVAbstractMetaObjectBase@impl@class_loader@@@std@@@std@@@2@$00@std@@QEBAAEBV?$allocator@U?$_Tree_node@U?$pair@$$CBV?$basic_string@DU?$char_traits@D@std@@V?$allocator@D@2@@std@@PEAVAbstractMetaObjectBase@impl@class_loader@@@std@@PEAX@std@@@2@XZ
	?_Get_first@?$_Compressed_pair@V?$allocator@V?$shared_ptr@$$CBVAbstractGroupDescription@VideoStreamConfig@video_stream_opencv@@@boost@@@std@@V?$_Vector_val@U?$_Simple_types@V?$shared_ptr@$$CBVAbstractGroupDescription@VideoStreamConfig@video_stream_opencv@@@boost@@@std@@@2@$00@std@@QEAAAEAV?$allocator@V?$shared_ptr@$$CBVAbstractGroupDescription@VideoStreamConfig@video_stream_opencv@@@boost@@@2@XZ
	?_Get_first@?$_Compressed_pair@V?$allocator@V?$shared_ptr@$$CBVAbstractGroupDescription@VideoStreamConfig@video_stream_opencv@@@boost@@@std@@V?$_Vector_val@U?$_Simple_types@V?$shared_ptr@$$CBVAbstractGroupDescription@VideoStreamConfig@video_stream_opencv@@@boost@@@std@@@2@$00@std@@QEBAAEBV?$allocator@V?$shared_ptr@$$CBVAbstractGroupDescription@VideoStreamConfig@video_stream_opencv@@@boost@@@2@XZ
	?_Get_first@?$_Compressed_pair@V?$allocator@V?$shared_ptr@$$CBVAbstractParamDescription@VideoStreamConfig@video_stream_opencv@@@boost@@@std@@V?$_Vector_val@U?$_Simple_types@V?$shared_ptr@$$CBVAbstractParamDescription@VideoStreamConfig@video_stream_opencv@@@boost@@@std@@@2@$00@std@@QEAAAEAV?$allocator@V?$shared_ptr@$$CBVAbstractParamDescription@VideoStreamConfig@video_stream_opencv@@@boost@@@2@XZ
	?_Get_first@?$_Compressed_pair@V?$allocator@V?$shared_ptr@$$CBVAbstractParamDescription@VideoStreamConfig@video_stream_opencv@@@boost@@@std@@V?$_Vector_val@U?$_Simple_types@V?$shared_ptr@$$CBVAbstractParamDescription@VideoStreamConfig@video_stream_opencv@@@boost@@@std@@@2@$00@std@@QEBAAEBV?$allocator@V?$shared_ptr@$$CBVAbstractParamDescription@VideoStreamConfig@video_stream_opencv@@@boost@@@2@XZ
	?_Get_first@?$_Compressed_pair@V?$allocator@VMat@cv@@@std@@V?$_Deque_val@U?$_Deque_simple_types@VMat@cv@@@std@@@2@$00@std@@QEAAAEAV?$allocator@VMat@cv@@@2@XZ
	?_Get_first@?$_Compressed_pair@V?$allocator@VMat@cv@@@std@@V?$_Deque_val@U?$_Deque_simple_types@VMat@cv@@@std@@@2@$00@std@@QEBAAEBV?$allocator@VMat@cv@@@2@XZ
	?_Get_first@?$_Compressed_pair@V?$allocator@_W@std@@V?$_String_val@U?$_Simple_types@_W@std@@@2@$00@std@@QEAAAEAV?$allocator@_W@2@XZ
	?_Get_scary@?$_Tree@V?$_Tmap_traits@V?$basic_string@DU?$char_traits@D@std@@V?$allocator@D@2@@std@@PEAVAbstractMetaObjectBase@impl@class_loader@@U?$less@V?$basic_string@DU?$char_traits@D@std@@V?$allocator@D@2@@std@@@2@V?$allocator@U?$pair@$$CBV?$basic_string@DU?$char_traits@D@std@@V?$allocator@D@2@@std@@PEAVAbstractMetaObjectBase@impl@class_loader@@@std@@@2@$0A@@std@@@std@@IEAAPEAV?$_Tree_val@U?$_Tree_simple_types@U?$pair@$$CBV?$basic_string@DU?$char_traits@D@std@@V?$allocator@D@2@@std@@PEAVAbstractMetaObjectBase@impl@class_loader@@@std@@@std@@@2@XZ
	?_Get_scary@?$_Tree@V?$_Tmap_traits@V?$basic_string@DU?$char_traits@D@std@@V?$allocator@D@2@@std@@PEAVAbstractMetaObjectBase@impl@class_loader@@U?$less@V?$basic_string@DU?$char_traits@D@std@@V?$allocator@D@2@@std@@@2@V?$allocator@U?$pair@$$CBV?$basic_string@DU?$char_traits@D@std@@V?$allocator@D@2@@std@@PEAVAbstractMetaObjectBase@impl@class_loader@@@std@@@2@$0A@@std@@@std@@IEBAPEBV?$_Tree_val@U?$_Tree_simple_types@U?$pair@$$CBV?$basic_string@DU?$char_traits@D@std@@V?$allocator@D@2@@std@@PEAVAbstractMetaObjectBase@impl@class_loader@@@std@@@std@@@2@XZ
	?_Getal@?$_Tree@V?$_Tmap_traits@V?$basic_string@DU?$char_traits@D@std@@V?$allocator@D@2@@std@@PEAVAbstractMetaObjectBase@impl@class_loader@@U?$less@V?$basic_string@DU?$char_traits@D@std@@V?$allocator@D@2@@std@@@2@V?$allocator@U?$pair@$$CBV?$basic_string@DU?$char_traits@D@std@@V?$allocator@D@2@@std@@PEAVAbstractMetaObjectBase@impl@class_loader@@@std@@@2@$0A@@std@@@std@@IEAAAEAV?$allocator@U?$_Tree_node@U?$pair@$$CBV?$basic_string@DU?$char_traits@D@std@@V?$allocator@D@2@@std@@PEAVAbstractMetaObjectBase@impl@class_loader@@@std@@PEAX@std@@@2@XZ
	?_Getal@?$_Tree@V?$_Tmap_traits@V?$basic_string@DU?$char_traits@D@std@@V?$allocator@D@2@@std@@PEAVAbstractMetaObjectBase@impl@class_loader@@U?$less@V?$basic_string@DU?$char_traits@D@std@@V?$allocator@D@2@@std@@@2@V?$allocator@U?$pair@$$CBV?$basic_string@DU?$char_traits@D@std@@V?$allocator@D@2@@std@@PEAVAbstractMetaObjectBase@impl@class_loader@@@std@@@2@$0A@@std@@@std@@IEBAAEBV?$allocator@U?$_Tree_node@U?$pair@$$CBV?$basic_string@DU?$char_traits@D@std@@V?$allocator@D@2@@std@@PEAVAbstractMetaObjectBase@impl@class_loader@@@std@@PEAX@std@@@2@XZ
	?_Getal@?$basic_string@DU?$char_traits@D@std@@V?$allocator@D@2@@std@@AEAAAEAV?$allocator@D@2@XZ
	?_Getal@?$basic_string@DU?$char_traits@D@std@@V?$allocator@D@2@@std@@AEBAAEBV?$allocator@D@2@XZ
	?_Getal@?$basic_string@_WU?$char_traits@_W@std@@V?$allocator@_W@2@@std@@AEAAAEAV?$allocator@_W@2@XZ
	?_Getal@?$deque@NV?$allocator@N@std@@@std@@AEAAAEAV?$allocator@N@2@XZ
	?_Getal@?$deque@NV?$allocator@N@std@@@std@@AEBAAEBV?$allocator@N@2@XZ
	?_Getal@?$deque@VMat@cv@@V?$allocator@VMat@cv@@@std@@@std@@AEAAAEAV?$allocator@VMat@cv@@@2@XZ
	?_Getal@?$deque@VMat@cv@@V?$allocator@VMat@cv@@@std@@@std@@AEBAAEBV?$allocator@VMat@cv@@@2@XZ
	?_Getal@?$vector@NV?$allocator@N@std@@@std@@AEAAAEAV?$allocator@N@2@XZ
	?_Getal@?$vector@NV?$allocator@N@std@@@std@@AEBAAEBV?$allocator@N@2@XZ
	?_Getal@?$vector@U?$BoolParameter_@V?$allocator@X@std@@@dynamic_reconfigure@@V?$allocator@U?$BoolParameter_@V?$allocator@X@std@@@dynamic_reconfigure@@@std@@@std@@AEAAAEAV?$allocator@U?$BoolParameter_@V?$allocator@X@std@@@dynamic_reconfigure@@@2@XZ
	?_Getal@?$vector@U?$BoolParameter_@V?$allocator@X@std@@@dynamic_reconfigure@@V?$allocator@U?$BoolParameter_@V?$allocator@X@std@@@dynamic_reconfigure@@@std@@@std@@AEBAAEBV?$allocator@U?$BoolParameter_@V?$allocator@X@std@@@dynamic_reconfigure@@@2@XZ
	?_Getal@?$vector@U?$DoubleParameter_@V?$allocator@X@std@@@dynamic_reconfigure@@V?$allocator@U?$DoubleParameter_@V?$allocator@X@std@@@dynamic_reconfigure@@@std@@@std@@AEAAAEAV?$allocator@U?$DoubleParameter_@V?$allocator@X@std@@@dynamic_reconfigure@@@2@XZ
	?_Getal@?$vector@U?$DoubleParameter_@V?$allocator@X@std@@@dynamic_reconfigure@@V?$allocator@U?$DoubleParameter_@V?$allocator@X@std@@@dynamic_reconfigure@@@std@@@std@@AEBAAEBV?$allocator@U?$DoubleParameter_@V?$allocator@X@std@@@dynamic_reconfigure@@@2@XZ
	?_Getal@?$vector@U?$GroupState_@V?$allocator@X@std@@@dynamic_reconfigure@@V?$allocator@U?$GroupState_@V?$allocator@X@std@@@dynamic_reconfigure@@@std@@@std@@AEAAAEAV?$allocator@U?$GroupState_@V?$allocator@X@std@@@dynamic_reconfigure@@@2@XZ
	?_Getal@?$vector@U?$GroupState_@V?$allocator@X@std@@@dynamic_reconfigure@@V?$allocator@U?$GroupState_@V?$allocator@X@std@@@dynamic_reconfigure@@@std@@@std@@AEBAAEBV?$allocator@U?$GroupState_@V?$allocator@X@std@@@dynamic_reconfigure@@@2@XZ
	?_Getal@?$vector@U?$Group_@V?$allocator@X@std@@@dynamic_reconfigure@@V?$allocator@U?$Group_@V?$allocator@X@std@@@dynamic_reconfigure@@@std@@@std@@AEAAAEAV?$allocator@U?$Group_@V?$allocator@X@std@@@dynamic_reconfigure@@@2@XZ
	?_Getal@?$vector@U?$Group_@V?$allocator@X@std@@@dynamic_reconfigure@@V?$allocator@U?$Group_@V?$allocator@X@std@@@dynamic_reconfigure@@@std@@@std@@AEBAAEBV?$allocator@U?$Group_@V?$allocator@X@std@@@dynamic_reconfigure@@@2@XZ
	?_Getal@?$vector@U?$IntParameter_@V?$allocator@X@std@@@dynamic_reconfigure@@V?$allocator@U?$IntParameter_@V?$allocator@X@std@@@dynamic_reconfigure@@@std@@@std@@AEAAAEAV?$allocator@U?$IntParameter_@V?$allocator@X@std@@@dynamic_reconfigure@@@2@XZ
	?_Getal@?$vector@U?$IntParameter_@V?$allocator@X@std@@@dynamic_reconfigure@@V?$allocator@U?$IntParameter_@V?$allocator@X@std@@@dynamic_reconfigure@@@std@@@std@@AEBAAEBV?$allocator@U?$IntParameter_@V?$allocator@X@std@@@dynamic_reconfigure@@@2@XZ
	?_Getal@?$vector@U?$ParamDescription_@V?$allocator@X@std@@@dynamic_reconfigure@@V?$allocator@U?$ParamDescription_@V?$allocator@X@std@@@dynamic_reconfigure@@@std@@@std@@AEAAAEAV?$allocator@U?$ParamDescription_@V?$allocator@X@std@@@dynamic_reconfigure@@@2@XZ
	?_Getal@?$vector@U?$ParamDescription_@V?$allocator@X@std@@@dynamic_reconfigure@@V?$allocator@U?$ParamDescription_@V?$allocator@X@std@@@dynamic_reconfigure@@@std@@@std@@AEBAAEBV?$allocator@U?$ParamDescription_@V?$allocator@X@std@@@dynamic_reconfigure@@@2@XZ
	?_Getal@?$vector@U?$StrParameter_@V?$allocator@X@std@@@dynamic_reconfigure@@V?$allocator@U?$StrParameter_@V?$allocator@X@std@@@dynamic_reconfigure@@@std@@@std@@AEAAAEAV?$allocator@U?$StrParameter_@V?$allocator@X@std@@@dynamic_reconfigure@@@2@XZ
	?_Getal@?$vector@U?$StrParameter_@V?$allocator@X@std@@@dynamic_reconfigure@@V?$allocator@U?$StrParameter_@V?$allocator@X@std@@@dynamic_reconfigure@@@std@@@std@@AEBAAEBV?$allocator@U?$StrParameter_@V?$allocator@X@std@@@dynamic_reconfigure@@@2@XZ
	?_Getal@?$vector@V?$shared_ptr@$$CBVAbstractGroupDescription@VideoStreamConfig@video_stream_opencv@@@boost@@V?$allocator@V?$shared_ptr@$$CBVAbstractGroupDescription@VideoStreamConfig@video_stream_opencv@@@boost@@@std@@@std@@AEAAAEAV?$allocator@V?$shared_ptr@$$CBVAbstractGroupDescription@VideoStreamConfig@video_stream_opencv@@@boost@@@2@XZ
	?_Getal@?$vector@V?$shared_ptr@$$CBVAbstractGroupDescription@VideoStreamConfig@video_stream_opencv@@@boost@@V?$allocator@V?$shared_ptr@$$CBVAbstractGroupDescription@VideoStreamConfig@video_stream_opencv@@@boost@@@std@@@std@@AEBAAEBV?$allocator@V?$shared_ptr@$$CBVAbstractGroupDescription@VideoStreamConfig@video_stream_opencv@@@boost@@@2@XZ
	?_Getal@?$vector@V?$shared_ptr@$$CBVAbstractParamDescription@VideoStreamConfig@video_stream_opencv@@@boost@@V?$allocator@V?$shared_ptr@$$CBVAbstractParamDescription@VideoStreamConfig@video_stream_opencv@@@boost@@@std@@@std@@AEAAAEAV?$allocator@V?$shared_ptr@$$CBVAbstractParamDescription@VideoStreamConfig@video_stream_opencv@@@boost@@@2@XZ
	?_Getal@?$vector@V?$shared_ptr@$$CBVAbstractParamDescription@VideoStreamConfig@video_stream_opencv@@@boost@@V?$allocator@V?$shared_ptr@$$CBVAbstractParamDescription@VideoStreamConfig@video_stream_opencv@@@boost@@@std@@@std@@AEBAAEBV?$allocator@V?$shared_ptr@$$CBVAbstractParamDescription@VideoStreamConfig@video_stream_opencv@@@boost@@@2@XZ
	?_Getblock@?$_Deque_val@U?$_Deque_simple_types@N@std@@@std@@QEBA_K_K@Z
	?_Getblock@?$_Deque_val@U?$_Deque_simple_types@VMat@cv@@@std@@@std@@QEBA_K_K@Z
	?_Getblock@?$deque@NV?$allocator@N@std@@@std@@AEBA_K_K@Z
	?_Getblock@?$deque@VMat@cv@@V?$allocator@VMat@cv@@@std@@@std@@AEBA_K_K@Z
	?_Getcomp@?$_Tree@V?$_Tmap_traits@V?$basic_string@DU?$char_traits@D@std@@V?$allocator@D@2@@std@@PEAVAbstractMetaObjectBase@impl@class_loader@@U?$less@V?$basic_string@DU?$char_traits@D@std@@V?$allocator@D@2@@std@@@2@V?$allocator@U?$pair@$$CBV?$basic_string@DU?$char_traits@D@std@@V?$allocator@D@2@@std@@PEAVAbstractMetaObjectBase@impl@class_loader@@@std@@@2@$0A@@std@@@std@@IEBAAEBU?$less@V?$basic_string@DU?$char_traits@D@std@@V?$allocator@D@2@@std@@@2@XZ
	?_Getcont@_Iterator_base12@std@@QEBAPEBU_Container_base12@2@XZ
	?_Getstate@?$basic_stringbuf@DU?$char_traits@D@std@@V?$allocator@D@2@@std@@CAHH@Z
	?_Growmap@?$deque@NV?$allocator@N@std@@@std@@AEAAX_K@Z
	?_Growmap@?$deque@VMat@cv@@V?$allocator@VMat@cv@@@std@@@std@@AEAAX_K@Z
	?_Insert_node@?$_Tree_val@U?$_Tree_simple_types@U?$pair@$$CBV?$basic_string@DU?$char_traits@D@std@@V?$allocator@D@2@@std@@PEAVAbstractMetaObjectBase@impl@class_loader@@@std@@@std@@@std@@QEAAPEAU?$_Tree_node@U?$pair@$$CBV?$basic_string@DU?$char_traits@D@std@@V?$allocator@D@2@@std@@PEAVAbstractMetaObjectBase@impl@class_loader@@@std@@PEAX@2@U?$_Tree_id@PEAU?$_Tree_node@U?$pair@$$CBV?$basic_string@DU?$char_traits@D@std@@V?$allocator@D@2@@std@@PEAVAbstractMetaObjectBase@impl@class_loader@@@std@@PEAX@std@@@2@QEAU32@@Z
	?_Large_string_engaged@?$_String_val@U?$_Simple_types@D@std@@@std@@QEBA_NXZ
	?_Large_string_engaged@?$_String_val@U?$_Simple_types@_W@std@@@std@@QEBA_NXZ
	?_Lrotate@?$_Tree_val@U?$_Tree_simple_types@U?$pair@$$CBV?$basic_string@DU?$char_traits@D@std@@V?$allocator@D@2@@std@@PEAVAbstractMetaObjectBase@impl@class_loader@@@std@@@std@@@std@@QEAAXPEAU?$_Tree_node@U?$pair@$$CBV?$basic_string@DU?$char_traits@D@std@@V?$allocator@D@2@@std@@PEAVAbstractMetaObjectBase@impl@class_loader@@@std@@PEAX@2@@Z
	?_Maklocwcs@std@@YAPEA_WPEB_W@Z
	?_Map@?$deque@NV?$allocator@N@std@@@std@@AEAAAEAPEAPEANXZ
	?_Map@?$deque@VMat@cv@@V?$allocator@VMat@cv@@@std@@@std@@AEAAAEAPEAPEAVMat@cv@@XZ
	?_Mapsize@?$deque@NV?$allocator@N@std@@@std@@AEAAAEA_KXZ
	?_Mapsize@?$deque@VMat@cv@@V?$allocator@VMat@cv@@@std@@@std@@AEAAAEA_KXZ
	?_Memcpy_val_from@?$basic_string@DU?$char_traits@D@std@@V?$allocator@D@2@@std@@AEAAXAEBV12@@Z
	?_Move_assign@?$basic_string@DU?$char_traits@D@std@@V?$allocator@D@2@@std@@AEAAXAEAV12@U_Equal_allocators@2@@Z
	?_Move_assign@?$vector@NV?$allocator@N@std@@@std@@AEAAXAEAV12@U_Equal_allocators@2@@Z
	?_Mymtx@_Mutex_base@std@@AEAAPEAU_Mtx_internal_imp_t@@XZ
	?_Myoff@?$deque@NV?$allocator@N@std@@@std@@AEAAAEA_KXZ
	?_Myoff@?$deque@VMat@cv@@V?$allocator@VMat@cv@@@std@@@std@@AEAAAEA_KXZ
	?_Myptr@?$_String_val@U?$_Simple_types@D@std@@@std@@QEAAPEADXZ
	?_Myptr@?$_String_val@U?$_Simple_types@D@std@@@std@@QEBAPEBDXZ
	?_Myptr@?$_String_val@U?$_Simple_types@_W@std@@@std@@QEBAPEB_WXZ
	?_Mysize@?$deque@NV?$allocator@N@std@@@std@@AEAAAEA_KXZ
	?_Mysize@?$deque@NV?$allocator@N@std@@@std@@AEBAAEB_KXZ
	?_Mysize@?$deque@VMat@cv@@V?$allocator@VMat@cv@@@std@@@std@@AEAAAEA_KXZ
	?_Mysize@?$deque@VMat@cv@@V?$allocator@VMat@cv@@@std@@@std@@AEBAAEB_KXZ
	?_Negate@?$_Atomic_integral_facade@H@std@@SAHH@Z
	?_Orphan_all@?$deque@NV?$allocator@N@std@@@std@@AEAAXXZ
	?_Orphan_all@?$deque@VMat@cv@@V?$allocator@VMat@cv@@@std@@@std@@AEAAXXZ
	?_Orphan_all@_Container_base0@std@@QEAAXXZ
	?_Orphan_all@_Container_base12@std@@QEAAXXZ
	?_Orphan_range@?$vector@NV?$allocator@N@std@@@std@@AEBAXPEAN0@Z
	?_Orphan_range@?$vector@U?$BoolParameter_@V?$allocator@X@std@@@dynamic_reconfigure@@V?$allocator@U?$BoolParameter_@V?$allocator@X@std@@@dynamic_reconfigure@@@std@@@std@@AEBAXPEAU?$BoolParameter_@V?$allocator@X@std@@@dynamic_reconfigure@@0@Z
	?_Orphan_range@?$vector@U?$DoubleParameter_@V?$allocator@X@std@@@dynamic_reconfigure@@V?$allocator@U?$DoubleParameter_@V?$allocator@X@std@@@dynamic_reconfigure@@@std@@@std@@AEBAXPEAU?$DoubleParameter_@V?$allocator@X@std@@@dynamic_reconfigure@@0@Z
	?_Orphan_range@?$vector@U?$GroupState_@V?$allocator@X@std@@@dynamic_reconfigure@@V?$allocator@U?$GroupState_@V?$allocator@X@std@@@dynamic_reconfigure@@@std@@@std@@AEBAXPEAU?$GroupState_@V?$allocator@X@std@@@dynamic_reconfigure@@0@Z
	?_Orphan_range@?$vector@U?$Group_@V?$allocator@X@std@@@dynamic_reconfigure@@V?$allocator@U?$Group_@V?$allocator@X@std@@@dynamic_reconfigure@@@std@@@std@@AEBAXPEAU?$Group_@V?$allocator@X@std@@@dynamic_reconfigure@@0@Z
	?_Orphan_range@?$vector@U?$IntParameter_@V?$allocator@X@std@@@dynamic_reconfigure@@V?$allocator@U?$IntParameter_@V?$allocator@X@std@@@dynamic_reconfigure@@@std@@@std@@AEBAXPEAU?$IntParameter_@V?$allocator@X@std@@@dynamic_reconfigure@@0@Z
	?_Orphan_range@?$vector@U?$ParamDescription_@V?$allocator@X@std@@@dynamic_reconfigure@@V?$allocator@U?$ParamDescription_@V?$allocator@X@std@@@dynamic_reconfigure@@@std@@@std@@AEBAXPEAU?$ParamDescription_@V?$allocator@X@std@@@dynamic_reconfigure@@0@Z
	?_Orphan_range@?$vector@U?$StrParameter_@V?$allocator@X@std@@@dynamic_reconfigure@@V?$allocator@U?$StrParameter_@V?$allocator@X@std@@@dynamic_reconfigure@@@std@@@std@@AEBAXPEAU?$StrParameter_@V?$allocator@X@std@@@dynamic_reconfigure@@0@Z
	?_Orphan_range@?$vector@V?$shared_ptr@$$CBVAbstractGroupDescription@VideoStreamConfig@video_stream_opencv@@@boost@@V?$allocator@V?$shared_ptr@$$CBVAbstractGroupDescription@VideoStreamConfig@video_stream_opencv@@@boost@@@std@@@std@@AEBAXPEAV?$shared_ptr@$$CBVAbstractGroupDescription@VideoStreamConfig@video_stream_opencv@@@boost@@0@Z
	?_Orphan_range@?$vector@V?$shared_ptr@$$CBVAbstractParamDescription@VideoStreamConfig@video_stream_opencv@@@boost@@V?$allocator@V?$shared_ptr@$$CBVAbstractParamDescription@VideoStreamConfig@video_stream_opencv@@@boost@@@std@@@std@@AEBAXPEAV?$shared_ptr@$$CBVAbstractParamDescription@VideoStreamConfig@video_stream_opencv@@@boost@@0@Z
	?_Release@?$_Alloc_construct_ptr@V?$allocator@U?$_Tree_node@U?$pair@$$CBV?$basic_string@DU?$char_traits@D@std@@V?$allocator@D@2@@std@@PEAVAbstractMetaObjectBase@impl@class_loader@@@std@@PEAX@std@@@std@@@std@@QEAAPEAU?$_Tree_node@U?$pair@$$CBV?$basic_string@DU?$char_traits@D@std@@V?$allocator@D@2@@std@@PEAVAbstractMetaObjectBase@impl@class_loader@@@std@@PEAX@2@XZ
	?_Release@?$_Uninitialized_backout@PEAPEAN@std@@QEAAPEAPEANXZ
	?_Release@?$_Uninitialized_backout@PEAPEAVMat@cv@@@std@@QEAAPEAPEAVMat@cv@@XZ
	?_Release@?$_Uninitialized_backout_al@V?$allocator@N@std@@@std@@QEAAPEANXZ
	?_Release@?$_Uninitialized_backout_al@V?$allocator@U?$BoolParameter_@V?$allocator@X@std@@@dynamic_reconfigure@@@std@@@std@@QEAAPEAU?$BoolParameter_@V?$allocator@X@std@@@dynamic_reconfigure@@XZ
	?_Release@?$_Uninitialized_backout_al@V?$allocator@U?$DoubleParameter_@V?$allocator@X@std@@@dynamic_reconfigure@@@std@@@std@@QEAAPEAU?$DoubleParameter_@V?$allocator@X@std@@@dynamic_reconfigure@@XZ
	?_Release@?$_Uninitialized_backout_al@V?$allocator@U?$GroupState_@V?$allocator@X@std@@@dynamic_reconfigure@@@std@@@std@@QEAAPEAU?$GroupState_@V?$allocator@X@std@@@dynamic_reconfigure@@XZ
	?_Release@?$_Uninitialized_backout_al@V?$allocator@U?$Group_@V?$allocator@X@std@@@dynamic_reconfigure@@@std@@@std@@QEAAPEAU?$Group_@V?$allocator@X@std@@@dynamic_reconfigure@@XZ
	?_Release@?$_Uninitialized_backout_al@V?$allocator@U?$IntParameter_@V?$allocator@X@std@@@dynamic_reconfigure@@@std@@@std@@QEAAPEAU?$IntParameter_@V?$allocator@X@std@@@dynamic_reconfigure@@XZ
	?_Release@?$_Uninitialized_backout_al@V?$allocator@U?$ParamDescription_@V?$allocator@X@std@@@dynamic_reconfigure@@@std@@@std@@QEAAPEAU?$ParamDescription_@V?$allocator@X@std@@@dynamic_reconfigure@@XZ
	?_Release@?$_Uninitialized_backout_al@V?$allocator@U?$StrParameter_@V?$allocator@X@std@@@dynamic_reconfigure@@@std@@@std@@QEAAPEAU?$StrParameter_@V?$allocator@X@std@@@dynamic_reconfigure@@XZ
	?_Release@?$_Uninitialized_backout_al@V?$allocator@V?$shared_ptr@$$CBVAbstractGroupDescription@VideoStreamConfig@video_stream_opencv@@@boost@@@std@@@std@@QEAAPEAV?$shared_ptr@$$CBVAbstractGroupDescription@VideoStreamConfig@video_stream_opencv@@@boost@@XZ
	?_Release@?$_Uninitialized_backout_al@V?$allocator@V?$shared_ptr@$$CBVAbstractParamDescription@VideoStreamConfig@video_stream_opencv@@@boost@@@std@@@std@@QEAAPEAV?$shared_ptr@$$CBVAbstractParamDescription@VideoStreamConfig@video_stream_opencv@@@boost@@XZ
	?_Release@_Fake_proxy_ptr_impl@std@@QEAAXXZ
	?_Rrotate@?$_Tree_val@U?$_Tree_simple_types@U?$pair@$$CBV?$basic_string@DU?$char_traits@D@std@@V?$allocator@D@2@@std@@PEAVAbstractMetaObjectBase@impl@class_loader@@@std@@@std@@@std@@QEAAXPEAU?$_Tree_node@U?$pair@$$CBV?$basic_string@DU?$char_traits@D@std@@V?$allocator@D@2@@std@@PEAVAbstractMetaObjectBase@impl@class_loader@@@std@@PEAX@2@@Z
	?_Setcont@?$_Deque_const_iterator@V?$_Deque_val@U?$_Deque_simple_types@N@std@@@std@@@std@@QEAAXPEBV?$_Deque_val@U?$_Deque_simple_types@N@std@@@2@@Z
	?_Swap_proxy_and_iterators@?$basic_string@DU?$char_traits@D@std@@V?$allocator@D@2@@std@@AEAAXAEAV12@@Z
	?_Swap_proxy_and_iterators@_Container_base0@std@@QEAAXAEAU12@@Z
	?_Swap_proxy_and_iterators@_Container_base12@std@@QEAAXAEAU12@@Z
	?_Swap_proxy_and_iterators_unlocked@_Container_base12@std@@AEAAXAEAU12@@Z
	?_Take_contents@?$_Vector_val@U?$_Simple_types@N@std@@@std@@QEAAXAEAV12@@Z
	?_Take_contents@?$basic_string@DU?$char_traits@D@std@@V?$allocator@D@2@@std@@AEAAXAEAV12@@Z
	?_Take_contents@?$deque@NV?$allocator@N@std@@@std@@AEAAXAEAV12@@Z
	?_Throw_bad_array_new_length@std@@YAXXZ
	?_Throw_tree_length_error@std@@YAXXZ
	?_Tidy@?$basic_stringbuf@DU?$char_traits@D@std@@V?$allocator@D@2@@std@@IEAAXXZ
	?_Tidy@?$deque@NV?$allocator@N@std@@@std@@AEAAXXZ
	?_Tidy@?$deque@VMat@cv@@V?$allocator@VMat@cv@@@std@@@std@@AEAAXXZ
	?_Tidy@?$vector@NV?$allocator@N@std@@@std@@AEAAXXZ
	?_Tidy@?$vector@U?$BoolParameter_@V?$allocator@X@std@@@dynamic_reconfigure@@V?$allocator@U?$BoolParameter_@V?$allocator@X@std@@@dynamic_reconfigure@@@std@@@std@@AEAAXXZ
	?_Tidy@?$vector@U?$DoubleParameter_@V?$allocator@X@std@@@dynamic_reconfigure@@V?$allocator@U?$DoubleParameter_@V?$allocator@X@std@@@dynamic_reconfigure@@@std@@@std@@AEAAXXZ
	?_Tidy@?$vector@U?$GroupState_@V?$allocator@X@std@@@dynamic_reconfigure@@V?$allocator@U?$GroupState_@V?$allocator@X@std@@@dynamic_reconfigure@@@std@@@std@@AEAAXXZ
	?_Tidy@?$vector@U?$Group_@V?$allocator@X@std@@@dynamic_reconfigure@@V?$allocator@U?$Group_@V?$allocator@X@std@@@dynamic_reconfigure@@@std@@@std@@AEAAXXZ
	?_Tidy@?$vector@U?$IntParameter_@V?$allocator@X@std@@@dynamic_reconfigure@@V?$allocator@U?$IntParameter_@V?$allocator@X@std@@@dynamic_reconfigure@@@std@@@std@@AEAAXXZ
	?_Tidy@?$vector@U?$ParamDescription_@V?$allocator@X@std@@@dynamic_reconfigure@@V?$allocator@U?$ParamDescription_@V?$allocator@X@std@@@dynamic_reconfigure@@@std@@@std@@AEAAXXZ
	?_Tidy@?$vector@U?$StrParameter_@V?$allocator@X@std@@@dynamic_reconfigure@@V?$allocator@U?$StrParameter_@V?$allocator@X@std@@@dynamic_reconfigure@@@std@@@std@@AEAAXXZ
	?_Tidy@?$vector@V?$shared_ptr@$$CBVAbstractGroupDescription@VideoStreamConfig@video_stream_opencv@@@boost@@V?$allocator@V?$shared_ptr@$$CBVAbstractGroupDescription@VideoStreamConfig@video_stream_opencv@@@boost@@@std@@@std@@AEAAXXZ
	?_Tidy@?$vector@V?$shared_ptr@$$CBVAbstractParamDescription@VideoStreamConfig@video_stream_opencv@@@boost@@V?$allocator@V?$shared_ptr@$$CBVAbstractParamDescription@VideoStreamConfig@video_stream_opencv@@@boost@@@std@@@std@@AEAAXXZ
	?_Tidy_deallocate@?$basic_string@DU?$char_traits@D@std@@V?$allocator@D@2@@std@@AEAAXXZ
	?_Tidy_deallocate@?$basic_string@_WU?$char_traits@_W@std@@V?$allocator@_W@2@@std@@AEAAXXZ
	?_Tidy_init@?$basic_string@DU?$char_traits@D@std@@V?$allocator@D@2@@std@@AEAAXXZ
	?_Tidy_init@?$basic_string@_WU?$char_traits@_W@std@@V?$allocator@_W@2@@std@@AEAAXXZ
	?_Ufill@?$vector@NV?$allocator@N@std@@@std@@AEAAPEANPEAN_KAEBN@Z
	?_Ufill@?$vector@U?$BoolParameter_@V?$allocator@X@std@@@dynamic_reconfigure@@V?$allocator@U?$BoolParameter_@V?$allocator@X@std@@@dynamic_reconfigure@@@std@@@std@@AEAAPEAU?$BoolParameter_@V?$allocator@X@std@@@dynamic_reconfigure@@PEAU34@_KU_Value_init_tag@2@@Z
	?_Ufill@?$vector@U?$DoubleParameter_@V?$allocator@X@std@@@dynamic_reconfigure@@V?$allocator@U?$DoubleParameter_@V?$allocator@X@std@@@dynamic_reconfigure@@@std@@@std@@AEAAPEAU?$DoubleParameter_@V?$allocator@X@std@@@dynamic_reconfigure@@PEAU34@_KU_Value_init_tag@2@@Z
	?_Ufill@?$vector@U?$GroupState_@V?$allocator@X@std@@@dynamic_reconfigure@@V?$allocator@U?$GroupState_@V?$allocator@X@std@@@dynamic_reconfigure@@@std@@@std@@AEAAPEAU?$GroupState_@V?$allocator@X@std@@@dynamic_reconfigure@@PEAU34@_KU_Value_init_tag@2@@Z
	?_Ufill@?$vector@U?$IntParameter_@V?$allocator@X@std@@@dynamic_reconfigure@@V?$allocator@U?$IntParameter_@V?$allocator@X@std@@@dynamic_reconfigure@@@std@@@std@@AEAAPEAU?$IntParameter_@V?$allocator@X@std@@@dynamic_reconfigure@@PEAU34@_KU_Value_init_tag@2@@Z
	?_Ufill@?$vector@U?$StrParameter_@V?$allocator@X@std@@@dynamic_reconfigure@@V?$allocator@U?$StrParameter_@V?$allocator@X@std@@@dynamic_reconfigure@@@std@@@std@@AEAAPEAU?$StrParameter_@V?$allocator@X@std@@@dynamic_reconfigure@@PEAU34@_KU_Value_init_tag@2@@Z
	?_Umove@?$vector@U?$BoolParameter_@V?$allocator@X@std@@@dynamic_reconfigure@@V?$allocator@U?$BoolParameter_@V?$allocator@X@std@@@dynamic_reconfigure@@@std@@@std@@AEAAPEAU?$BoolParameter_@V?$allocator@X@std@@@dynamic_reconfigure@@PEAU34@00@Z
	?_Umove@?$vector@U?$DoubleParameter_@V?$allocator@X@std@@@dynamic_reconfigure@@V?$allocator@U?$DoubleParameter_@V?$allocator@X@std@@@dynamic_reconfigure@@@std@@@std@@AEAAPEAU?$DoubleParameter_@V?$allocator@X@std@@@dynamic_reconfigure@@PEAU34@00@Z
	?_Umove@?$vector@U?$GroupState_@V?$allocator@X@std@@@dynamic_reconfigure@@V?$allocator@U?$GroupState_@V?$allocator@X@std@@@dynamic_reconfigure@@@std@@@std@@AEAAPEAU?$GroupState_@V?$allocator@X@std@@@dynamic_reconfigure@@PEAU34@00@Z
	?_Umove@?$vector@U?$Group_@V?$allocator@X@std@@@dynamic_reconfigure@@V?$allocator@U?$Group_@V?$allocator@X@std@@@dynamic_reconfigure@@@std@@@std@@AEAAPEAU?$Group_@V?$allocator@X@std@@@dynamic_reconfigure@@PEAU34@00@Z
	?_Umove@?$vector@U?$IntParameter_@V?$allocator@X@std@@@dynamic_reconfigure@@V?$allocator@U?$IntParameter_@V?$allocator@X@std@@@dynamic_reconfigure@@@std@@@std@@AEAAPEAU?$IntParameter_@V?$allocator@X@std@@@dynamic_reconfigure@@PEAU34@00@Z
	?_Umove@?$vector@U?$ParamDescription_@V?$allocator@X@std@@@dynamic_reconfigure@@V?$allocator@U?$ParamDescription_@V?$allocator@X@std@@@dynamic_reconfigure@@@std@@@std@@AEAAPEAU?$ParamDescription_@V?$allocator@X@std@@@dynamic_reconfigure@@PEAU34@00@Z
	?_Umove@?$vector@U?$StrParameter_@V?$allocator@X@std@@@dynamic_reconfigure@@V?$allocator@U?$StrParameter_@V?$allocator@X@std@@@dynamic_reconfigure@@@std@@@std@@AEAAPEAU?$StrParameter_@V?$allocator@X@std@@@dynamic_reconfigure@@PEAU34@00@Z
	?_Umove@?$vector@V?$shared_ptr@$$CBVAbstractGroupDescription@VideoStreamConfig@video_stream_opencv@@@boost@@V?$allocator@V?$shared_ptr@$$CBVAbstractGroupDescription@VideoStreamConfig@video_stream_opencv@@@boost@@@std@@@std@@AEAAPEAV?$shared_ptr@$$CBVAbstractGroupDescription@VideoStreamConfig@video_stream_opencv@@@boost@@PEAV34@00@Z
	?_Umove@?$vector@V?$shared_ptr@$$CBVAbstractParamDescription@VideoStreamConfig@video_stream_opencv@@@boost@@V?$allocator@V?$shared_ptr@$$CBVAbstractParamDescription@VideoStreamConfig@video_stream_opencv@@@boost@@@std@@@std@@AEAAPEAV?$shared_ptr@$$CBVAbstractParamDescription@VideoStreamConfig@video_stream_opencv@@@boost@@PEAV34@00@Z
	?_Umove_if_noexcept1@?$vector@NV?$allocator@N@std@@@std@@AEAAXPEAN00U?$integral_constant@_N$00@2@@Z
	?_Umove_if_noexcept1@?$vector@U?$BoolParameter_@V?$allocator@X@std@@@dynamic_reconfigure@@V?$allocator@U?$BoolParameter_@V?$allocator@X@std@@@dynamic_reconfigure@@@std@@@std@@AEAAXPEAU?$BoolParameter_@V?$allocator@X@std@@@dynamic_reconfigure@@00U?$integral_constant@_N$00@2@@Z
	?_Umove_if_noexcept1@?$vector@U?$DoubleParameter_@V?$allocator@X@std@@@dynamic_reconfigure@@V?$allocator@U?$DoubleParameter_@V?$allocator@X@std@@@dynamic_reconfigure@@@std@@@std@@AEAAXPEAU?$DoubleParameter_@V?$allocator@X@std@@@dynamic_reconfigure@@00U?$integral_constant@_N$00@2@@Z
	?_Umove_if_noexcept1@?$vector@U?$GroupState_@V?$allocator@X@std@@@dynamic_reconfigure@@V?$allocator@U?$GroupState_@V?$allocator@X@std@@@dynamic_reconfigure@@@std@@@std@@AEAAXPEAU?$GroupState_@V?$allocator@X@std@@@dynamic_reconfigure@@00U?$integral_constant@_N$00@2@@Z
	?_Umove_if_noexcept1@?$vector@U?$Group_@V?$allocator@X@std@@@dynamic_reconfigure@@V?$allocator@U?$Group_@V?$allocator@X@std@@@dynamic_reconfigure@@@std@@@std@@AEAAXPEAU?$Group_@V?$allocator@X@std@@@dynamic_reconfigure@@00U?$integral_constant@_N$00@2@@Z
	?_Umove_if_noexcept1@?$vector@U?$IntParameter_@V?$allocator@X@std@@@dynamic_reconfigure@@V?$allocator@U?$IntParameter_@V?$allocator@X@std@@@dynamic_reconfigure@@@std@@@std@@AEAAXPEAU?$IntParameter_@V?$allocator@X@std@@@dynamic_reconfigure@@00U?$integral_constant@_N$00@2@@Z
	?_Umove_if_noexcept1@?$vector@U?$ParamDescription_@V?$allocator@X@std@@@dynamic_reconfigure@@V?$allocator@U?$ParamDescription_@V?$allocator@X@std@@@dynamic_reconfigure@@@std@@@std@@AEAAXPEAU?$ParamDescription_@V?$allocator@X@std@@@dynamic_reconfigure@@00U?$integral_constant@_N$00@2@@Z
	?_Umove_if_noexcept1@?$vector@U?$StrParameter_@V?$allocator@X@std@@@dynamic_reconfigure@@V?$allocator@U?$StrParameter_@V?$allocator@X@std@@@dynamic_reconfigure@@@std@@@std@@AEAAXPEAU?$StrParameter_@V?$allocator@X@std@@@dynamic_reconfigure@@00U?$integral_constant@_N$00@2@@Z
	?_Umove_if_noexcept1@?$vector@V?$shared_ptr@$$CBVAbstractGroupDescription@VideoStreamConfig@video_stream_opencv@@@boost@@V?$allocator@V?$shared_ptr@$$CBVAbstractGroupDescription@VideoStreamConfig@video_stream_opencv@@@boost@@@std@@@std@@AEAAXPEAV?$shared_ptr@$$CBVAbstractGroupDescription@VideoStreamConfig@video_stream_opencv@@@boost@@00U?$integral_constant@_N$00@2@@Z
	?_Umove_if_noexcept1@?$vector@V?$shared_ptr@$$CBVAbstractParamDescription@VideoStreamConfig@video_stream_opencv@@@boost@@V?$allocator@V?$shared_ptr@$$CBVAbstractParamDescription@VideoStreamConfig@video_stream_opencv@@@boost@@@std@@@std@@AEAAXPEAV?$shared_ptr@$$CBVAbstractParamDescription@VideoStreamConfig@video_stream_opencv@@@boost@@00U?$integral_constant@_N$00@2@@Z
	?_Umove_if_noexcept@?$vector@NV?$allocator@N@std@@@std@@AEAAXPEAN00@Z
	?_Umove_if_noexcept@?$vector@U?$BoolParameter_@V?$allocator@X@std@@@dynamic_reconfigure@@V?$allocator@U?$BoolParameter_@V?$allocator@X@std@@@dynamic_reconfigure@@@std@@@std@@AEAAXPEAU?$BoolParameter_@V?$allocator@X@std@@@dynamic_reconfigure@@00@Z
	?_Umove_if_noexcept@?$vector@U?$DoubleParameter_@V?$allocator@X@std@@@dynamic_reconfigure@@V?$allocator@U?$DoubleParameter_@V?$allocator@X@std@@@dynamic_reconfigure@@@std@@@std@@AEAAXPEAU?$DoubleParameter_@V?$allocator@X@std@@@dynamic_reconfigure@@00@Z
	?_Umove_if_noexcept@?$vector@U?$GroupState_@V?$allocator@X@std@@@dynamic_reconfigure@@V?$allocator@U?$GroupState_@V?$allocator@X@std@@@dynamic_reconfigure@@@std@@@std@@AEAAXPEAU?$GroupState_@V?$allocator@X@std@@@dynamic_reconfigure@@00@Z
	?_Umove_if_noexcept@?$vector@U?$Group_@V?$allocator@X@std@@@dynamic_reconfigure@@V?$allocator@U?$Group_@V?$allocator@X@std@@@dynamic_reconfigure@@@std@@@std@@AEAAXPEAU?$Group_@V?$allocator@X@std@@@dynamic_reconfigure@@00@Z
	?_Umove_if_noexcept@?$vector@U?$IntParameter_@V?$allocator@X@std@@@dynamic_reconfigure@@V?$allocator@U?$IntParameter_@V?$allocator@X@std@@@dynamic_reconfigure@@@std@@@std@@AEAAXPEAU?$IntParameter_@V?$allocator@X@std@@@dynamic_reconfigure@@00@Z
	?_Umove_if_noexcept@?$vector@U?$ParamDescription_@V?$allocator@X@std@@@dynamic_reconfigure@@V?$allocator@U?$ParamDescription_@V?$allocator@X@std@@@dynamic_reconfigure@@@std@@@std@@AEAAXPEAU?$ParamDescription_@V?$allocator@X@std@@@dynamic_reconfigure@@00@Z
	?_Umove_if_noexcept@?$vector@U?$StrParameter_@V?$allocator@X@std@@@dynamic_reconfigure@@V?$allocator@U?$StrParameter_@V?$allocator@X@std@@@dynamic_reconfigure@@@std@@@std@@AEAAXPEAU?$StrParameter_@V?$allocator@X@std@@@dynamic_reconfigure@@00@Z
	?_Umove_if_noexcept@?$vector@V?$shared_ptr@$$CBVAbstractGroupDescription@VideoStreamConfig@video_stream_opencv@@@boost@@V?$allocator@V?$shared_ptr@$$CBVAbstractGroupDescription@VideoStreamConfig@video_stream_opencv@@@boost@@@std@@@std@@AEAAXPEAV?$shared_ptr@$$CBVAbstractGroupDescription@VideoStreamConfig@video_stream_opencv@@@boost@@00@Z
	?_Umove_if_noexcept@?$vector@V?$shared_ptr@$$CBVAbstractParamDescription@VideoStreamConfig@video_stream_opencv@@@boost@@V?$allocator@V?$shared_ptr@$$CBVAbstractParamDescription@VideoStreamConfig@video_stream_opencv@@@boost@@@std@@@std@@AEAAXPEAV?$shared_ptr@$$CBVAbstractParamDescription@VideoStreamConfig@video_stream_opencv@@@boost@@00@Z
	?_Unchecked_begin@?$deque@VMat@cv@@V?$allocator@VMat@cv@@@std@@@std@@QEAA?AV?$_Deque_unchecked_iterator@V?$_Deque_val@U?$_Deque_simple_types@VMat@cv@@@std@@@std@@@2@XZ
	?_Xlen@?$deque@NV?$allocator@N@std@@@std@@AEBAXXZ
	?_Xlen@?$deque@VMat@cv@@V?$allocator@VMat@cv@@@std@@@std@@AEBAXXZ
	?_Xlen_string@std@@YAXXZ
	?_Xlength@?$vector@NV?$allocator@N@std@@@std@@CAXXZ
	?_Xlength@?$vector@U?$BoolParameter_@V?$allocator@X@std@@@dynamic_reconfigure@@V?$allocator@U?$BoolParameter_@V?$allocator@X@std@@@dynamic_reconfigure@@@std@@@std@@CAXXZ
	?_Xlength@?$vector@U?$DoubleParameter_@V?$allocator@X@std@@@dynamic_reconfigure@@V?$allocator@U?$DoubleParameter_@V?$allocator@X@std@@@dynamic_reconfigure@@@std@@@std@@CAXXZ
	?_Xlength@?$vector@U?$GroupState_@V?$allocator@X@std@@@dynamic_reconfigure@@V?$allocator@U?$GroupState_@V?$allocator@X@std@@@dynamic_reconfigure@@@std@@@std@@CAXXZ
	?_Xlength@?$vector@U?$Group_@V?$allocator@X@std@@@dynamic_reconfigure@@V?$allocator@U?$Group_@V?$allocator@X@std@@@dynamic_reconfigure@@@std@@@std@@CAXXZ
	?_Xlength@?$vector@U?$IntParameter_@V?$allocator@X@std@@@dynamic_reconfigure@@V?$allocator@U?$IntParameter_@V?$allocator@X@std@@@dynamic_reconfigure@@@std@@@std@@CAXXZ
	?_Xlength@?$vector@U?$ParamDescription_@V?$allocator@X@std@@@dynamic_reconfigure@@V?$allocator@U?$ParamDescription_@V?$allocator@X@std@@@dynamic_reconfigure@@@std@@@std@@CAXXZ
	?_Xlength@?$vector@U?$StrParameter_@V?$allocator@X@std@@@dynamic_reconfigure@@V?$allocator@U?$StrParameter_@V?$allocator@X@std@@@dynamic_reconfigure@@@std@@@std@@CAXXZ
	?_Xlength@?$vector@V?$shared_ptr@$$CBVAbstractGroupDescription@VideoStreamConfig@video_stream_opencv@@@boost@@V?$allocator@V?$shared_ptr@$$CBVAbstractGroupDescription@VideoStreamConfig@video_stream_opencv@@@boost@@@std@@@std@@CAXXZ
	?_Xlength@?$vector@V?$shared_ptr@$$CBVAbstractParamDescription@VideoStreamConfig@video_stream_opencv@@@boost@@V?$allocator@V?$shared_ptr@$$CBVAbstractParamDescription@VideoStreamConfig@video_stream_opencv@@@boost@@@std@@@std@@CAXXZ
	?__clamp__@VideoStreamConfig@video_stream_opencv@@QEAAXXZ
	?__fromMessage__@VideoStreamConfig@video_stream_opencv@@QEAA_NAEAU?$Config_@V?$allocator@X@std@@@dynamic_reconfigure@@@Z
	?__fromServer__@VideoStreamConfig@video_stream_opencv@@QEAAXAEBVNodeHandle@ros@@@Z
	?__getDefault__@VideoStreamConfig@video_stream_opencv@@SAAEBV12@XZ
	?__getDescriptionMessage__@VideoStreamConfig@video_stream_opencv@@SAAEBU?$ConfigDescription_@V?$allocator@X@std@@@dynamic_reconfigure@@XZ
	?__getGroupDescriptions__@VideoStreamConfig@video_stream_opencv@@SAAEBV?$vector@V?$shared_ptr@$$CBVAbstractGroupDescription@VideoStreamConfig@video_stream_opencv@@@boost@@V?$allocator@V?$shared_ptr@$$CBVAbstractGroupDescription@VideoStreamConfig@video_stream_opencv@@@boost@@@std@@@std@@XZ
	?__getMax__@VideoStreamConfig@video_stream_opencv@@SAAEBV12@XZ
	?__getMin__@VideoStreamConfig@video_stream_opencv@@SAAEBV12@XZ
	?__getParamDescriptions__@VideoStreamConfig@video_stream_opencv@@SAAEBV?$vector@V?$shared_ptr@$$CBVAbstractParamDescription@VideoStreamConfig@video_stream_opencv@@@boost@@V?$allocator@V?$shared_ptr@$$CBVAbstractParamDescription@VideoStreamConfig@video_stream_opencv@@@boost@@@std@@@std@@XZ
	?__get_statics__@VideoStreamConfig@video_stream_opencv@@CAPEBVVideoStreamConfigStatics@2@XZ
	?__level__@VideoStreamConfig@video_stream_opencv@@QEBAIAEBV12@@Z
	?__toMessage__@VideoStreamConfig@video_stream_opencv@@QEBAXAEAU?$Config_@V?$allocator@X@std@@@dynamic_reconfigure@@@Z
	?__toMessage__@VideoStreamConfig@video_stream_opencv@@QEBAXAEAU?$Config_@V?$allocator@X@std@@@dynamic_reconfigure@@AEBV?$vector@V?$shared_ptr@$$CBVAbstractParamDescription@VideoStreamConfig@video_stream_opencv@@@boost@@V?$allocator@V?$shared_ptr@$$CBVAbstractParamDescription@VideoStreamConfig@video_stream_opencv@@@boost@@@std@@@std@@AEBV?$vector@V?$shared_ptr@$$CBVAbstractGroupDescription@VideoStreamConfig@video_stream_opencv@@@boost@@V?$allocator@V?$shared_ptr@$$CBVAbstractGroupDescription@VideoStreamConfig@video_stream_opencv@@@boost@@@std@@@6@@Z
	?__toServer__@VideoStreamConfig@video_stream_opencv@@QEBAXAEBVNodeHandle@ros@@@Z
	?_internal_get_untyped_deleter@?$shared_ptr@U?$ReconfigureRequest_@V?$allocator@X@std@@@dynamic_reconfigure@@@boost@@QEBAPEAXXZ
	?_internal_get_untyped_deleter@?$shared_ptr@U?$ReconfigureResponse_@V?$allocator@X@std@@@dynamic_reconfigure@@@boost@@QEBAPEAXXZ
	?_internal_get_untyped_deleter@?$shared_ptr@V?$Server@VVideoStreamConfig@video_stream_opencv@@@dynamic_reconfigure@@@boost@@QEBAPEAXXZ
	?_internal_get_untyped_deleter@?$shared_ptr@V?$ServiceCallbackHelperT@U?$ServiceSpec@U?$ReconfigureRequest_@V?$allocator@X@std@@@dynamic_reconfigure@@U?$ReconfigureResponse_@V?$allocator@X@std@@@2@@ros@@@ros@@@boost@@QEBAPEAXXZ
	?_internal_get_untyped_deleter@?$shared_ptr@VCvImage@cv_bridge@@@boost@@QEBAPEAXXZ
	?a2_@?$storage2@V?$value@PEAV?$Server@VVideoStreamConfig@video_stream_opencv@@@dynamic_reconfigure@@@_bi@boost@@U?$arg@$00@3@@_bi@boost@@SA?AU?$arg@$00@3@XZ
	?a2_@?$storage2@V?$value@PEAVVideoStreamNodelet@video_stream_opencv@@@_bi@boost@@U?$arg@$00@3@@_bi@boost@@SA?AU?$arg@$00@3@XZ
	?a3_@?$storage3@V?$value@PEAV?$Server@VVideoStreamConfig@video_stream_opencv@@@dynamic_reconfigure@@@_bi@boost@@U?$arg@$00@3@U?$arg@$01@3@@_bi@boost@@SA?AU?$arg@$01@3@XZ
	?a3_@?$storage3@V?$value@PEAVVideoStreamNodelet@video_stream_opencv@@@_bi@boost@@U?$arg@$00@3@U?$arg@$01@3@@_bi@boost@@SA?AU?$arg@$01@3@XZ
	?add_ref@?$refcount_ptr@Uerror_info_container@exception_detail@boost@@@exception_detail@boost@@AEAAXXZ
	?add_ref_copy@sp_counted_base@detail@boost@@QEAAXXZ
	?address@?$sp_ms_deleter@U?$ReconfigureRequest_@V?$allocator@X@std@@@dynamic_reconfigure@@@detail@boost@@QEAAPEAXXZ
	?address@?$sp_ms_deleter@U?$ReconfigureResponse_@V?$allocator@X@std@@@dynamic_reconfigure@@@detail@boost@@QEAAPEAXXZ
	?address@?$sp_ms_deleter@V?$Server@VVideoStreamConfig@video_stream_opencv@@@dynamic_reconfigure@@@detail@boost@@QEAAPEAXXZ
	?address@?$sp_ms_deleter@V?$ServiceCallbackHelperT@U?$ServiceSpec@U?$ReconfigureRequest_@V?$allocator@X@std@@@dynamic_reconfigure@@U?$ReconfigureResponse_@V?$allocator@X@std@@@2@@ros@@@ros@@@detail@boost@@QEAAPEAXXZ
	?address@?$sp_ms_deleter@VCvImage@cv_bridge@@@detail@boost@@QEAAPEAXXZ
	?adopt@?$refcount_ptr@Uerror_info_container@exception_detail@boost@@@exception_detail@boost@@QEAAXPEAUerror_info_container@23@@Z
	?allocate@?$allocator@D@std@@QEAAPEAD_K@Z
	?allocate@?$allocator@N@std@@QEAAPEAN_K@Z
	?allocate@?$allocator@PEAN@std@@QEAAPEAPEAN_K@Z
	?allocate@?$allocator@PEAVMat@cv@@@std@@QEAAPEAPEAVMat@cv@@_K@Z
	?allocate@?$allocator@U?$BoolParameter_@V?$allocator@X@std@@@dynamic_reconfigure@@@std@@QEAAPEAU?$BoolParameter_@V?$allocator@X@std@@@dynamic_reconfigure@@_K@Z
	?allocate@?$allocator@U?$DoubleParameter_@V?$allocator@X@std@@@dynamic_reconfigure@@@std@@QEAAPEAU?$DoubleParameter_@V?$allocator@X@std@@@dynamic_reconfigure@@_K@Z
	?allocate@?$allocator@U?$GroupState_@V?$allocator@X@std@@@dynamic_reconfigure@@@std@@QEAAPEAU?$GroupState_@V?$allocator@X@std@@@dynamic_reconfigure@@_K@Z
	?allocate@?$allocator@U?$Group_@V?$allocator@X@std@@@dynamic_reconfigure@@@std@@QEAAPEAU?$Group_@V?$allocator@X@std@@@dynamic_reconfigure@@_K@Z
	?allocate@?$allocator@U?$IntParameter_@V?$allocator@X@std@@@dynamic_reconfigure@@@std@@QEAAPEAU?$IntParameter_@V?$allocator@X@std@@@dynamic_reconfigure@@_K@Z
	?allocate@?$allocator@U?$ParamDescription_@V?$allocator@X@std@@@dynamic_reconfigure@@@std@@QEAAPEAU?$ParamDescription_@V?$allocator@X@std@@@dynamic_reconfigure@@_K@Z
	?allocate@?$allocator@U?$StrParameter_@V?$allocator@X@std@@@dynamic_reconfigure@@@std@@QEAAPEAU?$StrParameter_@V?$allocator@X@std@@@dynamic_reconfigure@@_K@Z
	?allocate@?$allocator@U?$_Tree_node@U?$pair@$$CBV?$basic_string@DU?$char_traits@D@std@@V?$allocator@D@2@@std@@PEAVAbstractMetaObjectBase@impl@class_loader@@@std@@PEAX@std@@@std@@QEAAPEAU?$_Tree_node@U?$pair@$$CBV?$basic_string@DU?$char_traits@D@std@@V?$allocator@D@2@@std@@PEAVAbstractMetaObjectBase@impl@class_loader@@@std@@PEAX@2@_K@Z
	?allocate@?$allocator@U_Container_proxy@std@@@std@@QEAAPEAU_Container_proxy@2@_K@Z
	?allocate@?$allocator@V?$shared_ptr@$$CBVAbstractGroupDescription@VideoStreamConfig@video_stream_opencv@@@boost@@@std@@QEAAPEAV?$shared_ptr@$$CBVAbstractGroupDescription@VideoStreamConfig@video_stream_opencv@@@boost@@_K@Z
	?allocate@?$allocator@V?$shared_ptr@$$CBVAbstractParamDescription@VideoStreamConfig@video_stream_opencv@@@boost@@@std@@QEAAPEAV?$shared_ptr@$$CBVAbstractParamDescription@VideoStreamConfig@video_stream_opencv@@@boost@@_K@Z
	?allocate@?$allocator@VMat@cv@@@std@@QEAAPEAVMat@cv@@_K@Z
	?allocate_raw_heap_memory@detail@boost@@YAPEAXI@Z
	?append@?$basic_string@DU?$char_traits@D@std@@V?$allocator@D@2@@std@@QEAAAEAV12@AEBV12@@Z
	?append@?$basic_string@DU?$char_traits@D@std@@V?$allocator@D@2@@std@@QEAAAEAV12@QEBD@Z
	?append@?$basic_string@DU?$char_traits@D@std@@V?$allocator@D@2@@std@@QEAAAEAV12@QEBD_K@Z
	?append@?$basic_string@DU?$char_traits@D@std@@V?$allocator@D@2@@std@@QEAAAEAV12@_KD@Z
	?assign@?$_Narrow_char_traits@DH@std@@SAPEADQEAD_KD@Z
	?assign@?$_Narrow_char_traits@DH@std@@SAXAEADAEBD@Z
	?assign@?$_WChar_traits@_W@std@@SAXAEA_WAEB_W@Z
	?assign@?$array@N$08@boost@@QEAAXAEBN@Z
	?assign@?$array@N$0M@@boost@@QEAAXAEBN@Z
	?assign@?$basic_string@DU?$char_traits@D@std@@V?$allocator@D@2@@std@@QEAAAEAV12@QEBD@Z
	?assign@?$basic_string@DU?$char_traits@D@std@@V?$allocator@D@2@@std@@QEAAAEAV12@QEBD_K@Z
	?assign@?$basic_string@DU?$char_traits@D@std@@V?$allocator@D@2@@std@@QEAAAEAV12@_KD@Z
	?assign_to_own@?$function0@V?$shared_ptr@U?$ReconfigureRequest_@V?$allocator@X@std@@@dynamic_reconfigure@@@boost@@@boost@@AEAAXAEBV12@@Z
	?assign_to_own@?$function0@V?$shared_ptr@U?$ReconfigureResponse_@V?$allocator@X@std@@@dynamic_reconfigure@@@boost@@@boost@@AEAAXAEBV12@@Z
	?assign_to_own@?$function1@XAEBVSingleSubscriberPublisher@ros@@@boost@@AEAAXAEBV12@@Z
	?assign_to_own@?$function2@XAEAVVideoStreamConfig@video_stream_opencv@@I@boost@@AEAAXAEBV12@@Z
	?assign_to_own@?$function2@_NAEAU?$ReconfigureRequest_@V?$allocator@X@std@@@dynamic_reconfigure@@AEAU?$ReconfigureResponse_@V?$allocator@X@std@@@2@@boost@@AEAAXAEBV12@@Z
	?atomic_decrement@detail@boost@@YAHPEAU?$atomic@H@std@@@Z
	?atomic_increment@detail@boost@@YAXPEAU?$atomic@H@std@@@Z
	?begin@?$array@N$08@boost@@QEAAPEANXZ
	?begin@?$array@N$0M@@boost@@QEAAPEANXZ
	?begin@?$basic_string@DU?$char_traits@D@std@@V?$allocator@D@2@@std@@QEBA?AV?$_String_const_iterator@V?$_String_val@U?$_Simple_types@D@std@@@std@@@2@XZ
	?begin@?$converter@V?$generic_list@N@assign_detail@boost@@V?$_Deque_iterator@V?$_Deque_val@U?$_Deque_simple_types@N@std@@@std@@@std@@@assign_detail@boost@@QEBA?AV?$_Deque_iterator@V?$_Deque_val@U?$_Deque_simple_types@N@std@@@std@@@std@@XZ
	?begin@?$deque@NV?$allocator@N@std@@@std@@QEAA?AV?$_Deque_iterator@V?$_Deque_val@U?$_Deque_simple_types@N@std@@@std@@@2@XZ
	?begin@?$generic_list@N@assign_detail@boost@@QEBA?AV?$_Deque_iterator@V?$_Deque_val@U?$_Deque_simple_types@N@std@@@std@@@std@@XZ
	?begin@?$vector@U?$BoolParameter_@V?$allocator@X@std@@@dynamic_reconfigure@@V?$allocator@U?$BoolParameter_@V?$allocator@X@std@@@dynamic_reconfigure@@@std@@@std@@QEAA?AV?$_Vector_iterator@V?$_Vector_val@U?$_Simple_types@U?$BoolParameter_@V?$allocator@X@std@@@dynamic_reconfigure@@@std@@@std@@@2@XZ
	?begin@?$vector@U?$BoolParameter_@V?$allocator@X@std@@@dynamic_reconfigure@@V?$allocator@U?$BoolParameter_@V?$allocator@X@std@@@dynamic_reconfigure@@@std@@@std@@QEBA?AV?$_Vector_const_iterator@V?$_Vector_val@U?$_Simple_types@U?$BoolParameter_@V?$allocator@X@std@@@dynamic_reconfigure@@@std@@@std@@@2@XZ
	?begin@?$vector@U?$DoubleParameter_@V?$allocator@X@std@@@dynamic_reconfigure@@V?$allocator@U?$DoubleParameter_@V?$allocator@X@std@@@dynamic_reconfigure@@@std@@@std@@QEAA?AV?$_Vector_iterator@V?$_Vector_val@U?$_Simple_types@U?$DoubleParameter_@V?$allocator@X@std@@@dynamic_reconfigure@@@std@@@std@@@2@XZ
	?begin@?$vector@U?$DoubleParameter_@V?$allocator@X@std@@@dynamic_reconfigure@@V?$allocator@U?$DoubleParameter_@V?$allocator@X@std@@@dynamic_reconfigure@@@std@@@std@@QEBA?AV?$_Vector_const_iterator@V?$_Vector_val@U?$_Simple_types@U?$DoubleParameter_@V?$allocator@X@std@@@dynamic_reconfigure@@@std@@@std@@@2@XZ
	?begin@?$vector@U?$GroupState_@V?$allocator@X@std@@@dynamic_reconfigure@@V?$allocator@U?$GroupState_@V?$allocator@X@std@@@dynamic_reconfigure@@@std@@@std@@QEAA?AV?$_Vector_iterator@V?$_Vector_val@U?$_Simple_types@U?$GroupState_@V?$allocator@X@std@@@dynamic_reconfigure@@@std@@@std@@@2@XZ
	?begin@?$vector@U?$GroupState_@V?$allocator@X@std@@@dynamic_reconfigure@@V?$allocator@U?$GroupState_@V?$allocator@X@std@@@dynamic_reconfigure@@@std@@@std@@QEBA?AV?$_Vector_const_iterator@V?$_Vector_val@U?$_Simple_types@U?$GroupState_@V?$allocator@X@std@@@dynamic_reconfigure@@@std@@@std@@@2@XZ
	?begin@?$vector@U?$Group_@V?$allocator@X@std@@@dynamic_reconfigure@@V?$allocator@U?$Group_@V?$allocator@X@std@@@dynamic_reconfigure@@@std@@@std@@QEBA?AV?$_Vector_const_iterator@V?$_Vector_val@U?$_Simple_types@U?$Group_@V?$allocator@X@std@@@dynamic_reconfigure@@@std@@@std@@@2@XZ
	?begin@?$vector@U?$IntParameter_@V?$allocator@X@std@@@dynamic_reconfigure@@V?$allocator@U?$IntParameter_@V?$allocator@X@std@@@dynamic_reconfigure@@@std@@@std@@QEAA?AV?$_Vector_iterator@V?$_Vector_val@U?$_Simple_types@U?$IntParameter_@V?$allocator@X@std@@@dynamic_reconfigure@@@std@@@std@@@2@XZ
	?begin@?$vector@U?$IntParameter_@V?$allocator@X@std@@@dynamic_reconfigure@@V?$allocator@U?$IntParameter_@V?$allocator@X@std@@@dynamic_reconfigure@@@std@@@std@@QEBA?AV?$_Vector_const_iterator@V?$_Vector_val@U?$_Simple_types@U?$IntParameter_@V?$allocator@X@std@@@dynamic_reconfigure@@@std@@@std@@@2@XZ
	?begin@?$vector@U?$ParamDescription_@V?$allocator@X@std@@@dynamic_reconfigure@@V?$allocator@U?$ParamDescription_@V?$allocator@X@std@@@dynamic_reconfigure@@@std@@@std@@QEBA?AV?$_Vector_const_iterator@V?$_Vector_val@U?$_Simple_types@U?$ParamDescription_@V?$allocator@X@std@@@dynamic_reconfigure@@@std@@@std@@@2@XZ
	?begin@?$vector@U?$StrParameter_@V?$allocator@X@std@@@dynamic_reconfigure@@V?$allocator@U?$StrParameter_@V?$allocator@X@std@@@dynamic_reconfigure@@@std@@@std@@QEAA?AV?$_Vector_iterator@V?$_Vector_val@U?$_Simple_types@U?$StrParameter_@V?$allocator@X@std@@@dynamic_reconfigure@@@std@@@std@@@2@XZ
	?begin@?$vector@U?$StrParameter_@V?$allocator@X@std@@@dynamic_reconfigure@@V?$allocator@U?$StrParameter_@V?$allocator@X@std@@@dynamic_reconfigure@@@std@@@std@@QEBA?AV?$_Vector_const_iterator@V?$_Vector_val@U?$_Simple_types@U?$StrParameter_@V?$allocator@X@std@@@dynamic_reconfigure@@@std@@@std@@@2@XZ
	?begin@?$vector@V?$shared_ptr@$$CBVAbstractGroupDescription@VideoStreamConfig@video_stream_opencv@@@boost@@V?$allocator@V?$shared_ptr@$$CBVAbstractGroupDescription@VideoStreamConfig@video_stream_opencv@@@boost@@@std@@@std@@QEAA?AV?$_Vector_iterator@V?$_Vector_val@U?$_Simple_types@V?$shared_ptr@$$CBVAbstractGroupDescription@VideoStreamConfig@video_stream_opencv@@@boost@@@std@@@std@@@2@XZ
	?begin@?$vector@V?$shared_ptr@$$CBVAbstractGroupDescription@VideoStreamConfig@video_stream_opencv@@@boost@@V?$allocator@V?$shared_ptr@$$CBVAbstractGroupDescription@VideoStreamConfig@video_stream_opencv@@@boost@@@std@@@std@@QEBA?AV?$_Vector_const_iterator@V?$_Vector_val@U?$_Simple_types@V?$shared_ptr@$$CBVAbstractGroupDescription@VideoStreamConfig@video_stream_opencv@@@boost@@@std@@@std@@@2@XZ
	?begin@?$vector@V?$shared_ptr@$$CBVAbstractParamDescription@VideoStreamConfig@video_stream_opencv@@@boost@@V?$allocator@V?$shared_ptr@$$CBVAbstractParamDescription@VideoStreamConfig@video_stream_opencv@@@boost@@@std@@@std@@QEAA?AV?$_Vector_iterator@V?$_Vector_val@U?$_Simple_types@V?$shared_ptr@$$CBVAbstractParamDescription@VideoStreamConfig@video_stream_opencv@@@boost@@@std@@@std@@@2@XZ
	?begin@?$vector@V?$shared_ptr@$$CBVAbstractParamDescription@VideoStreamConfig@video_stream_opencv@@@boost@@V?$allocator@V?$shared_ptr@$$CBVAbstractParamDescription@VideoStreamConfig@video_stream_opencv@@@boost@@@std@@@std@@QEBA?AV?$_Vector_const_iterator@V?$_Vector_val@U?$_Simple_types@V?$shared_ptr@$$CBVAbstractParamDescription@VideoStreamConfig@video_stream_opencv@@@boost@@@std@@@std@@@2@XZ
	?c_str@?$basic_string@DU?$char_traits@D@std@@V?$allocator@D@2@@std@@QEBAPEBDXZ
	?c_str@?$basic_string@_WU?$char_traits@_W@std@@V?$allocator@_W@2@@std@@QEBAPEB_WXZ
	?calcLevel@?$ParamDescription@H@VideoStreamConfig@video_stream_opencv@@UEBAXAEAIAEBV23@1@Z
	?calcLevel@?$ParamDescription@N@VideoStreamConfig@video_stream_opencv@@UEBAXAEAIAEBV23@1@Z
	?calcLevel@?$ParamDescription@V?$basic_string@DU?$char_traits@D@std@@V?$allocator@D@2@@std@@@VideoStreamConfig@video_stream_opencv@@UEBAXAEAIAEBV23@1@Z
	?calcLevel@?$ParamDescription@_N@VideoStreamConfig@video_stream_opencv@@UEBAXAEAIAEBV23@1@Z
	?call@?$ServiceCallbackHelperT@U?$ServiceSpec@U?$ReconfigureRequest_@V?$allocator@X@std@@@dynamic_reconfigure@@U?$ReconfigureResponse_@V?$allocator@X@std@@@2@@ros@@@ros@@UEAA_NAEAUServiceCallbackHelperCallParams@2@@Z
	?call@?$ServiceSpec@U?$ReconfigureRequest_@V?$allocator@X@std@@@dynamic_reconfigure@@U?$ReconfigureResponse_@V?$allocator@X@std@@@2@@ros@@SA_NAEBV?$function@$$A6A_NAEAU?$ReconfigureRequest_@V?$allocator@X@std@@@dynamic_reconfigure@@AEAU?$ReconfigureResponse_@V?$allocator@X@std@@@2@@Z@boost@@AEAU?$ServiceSpecCallParams@U?$ReconfigureRequest_@V?$allocator@X@std@@@dynamic_reconfigure@@U?$ReconfigureResponse_@V?$allocator@X@std@@@2@@2@@Z
	?callCallback@?$Server@VVideoStreamConfig@video_stream_opencv@@@dynamic_reconfigure@@AEAAXAEAVVideoStreamConfig@video_stream_opencv@@H@Z
	?canonical@filesystem@boost@@YA?AVpath@12@AEBV312@0@Z
	?capacity@?$vector@NV?$allocator@N@std@@@std@@QEBA_KXZ
	?capacity@?$vector@U?$BoolParameter_@V?$allocator@X@std@@@dynamic_reconfigure@@V?$allocator@U?$BoolParameter_@V?$allocator@X@std@@@dynamic_reconfigure@@@std@@@std@@QEBA_KXZ
	?capacity@?$vector@U?$DoubleParameter_@V?$allocator@X@std@@@dynamic_reconfigure@@V?$allocator@U?$DoubleParameter_@V?$allocator@X@std@@@dynamic_reconfigure@@@std@@@std@@QEBA_KXZ
	?capacity@?$vector@U?$GroupState_@V?$allocator@X@std@@@dynamic_reconfigure@@V?$allocator@U?$GroupState_@V?$allocator@X@std@@@dynamic_reconfigure@@@std@@@std@@QEBA_KXZ
	?capacity@?$vector@U?$Group_@V?$allocator@X@std@@@dynamic_reconfigure@@V?$allocator@U?$Group_@V?$allocator@X@std@@@dynamic_reconfigure@@@std@@@std@@QEBA_KXZ
	?capacity@?$vector@U?$IntParameter_@V?$allocator@X@std@@@dynamic_reconfigure@@V?$allocator@U?$IntParameter_@V?$allocator@X@std@@@dynamic_reconfigure@@@std@@@std@@QEBA_KXZ
	?capacity@?$vector@U?$ParamDescription_@V?$allocator@X@std@@@dynamic_reconfigure@@V?$allocator@U?$ParamDescription_@V?$allocator@X@std@@@dynamic_reconfigure@@@std@@@std@@QEBA_KXZ
	?capacity@?$vector@U?$StrParameter_@V?$allocator@X@std@@@dynamic_reconfigure@@V?$allocator@U?$StrParameter_@V?$allocator@X@std@@@dynamic_reconfigure@@@std@@@std@@QEBA_KXZ
	?capacity@?$vector@V?$shared_ptr@$$CBVAbstractGroupDescription@VideoStreamConfig@video_stream_opencv@@@boost@@V?$allocator@V?$shared_ptr@$$CBVAbstractGroupDescription@VideoStreamConfig@video_stream_opencv@@@boost@@@std@@@std@@QEBA_KXZ
	?capacity@?$vector@V?$shared_ptr@$$CBVAbstractParamDescription@VideoStreamConfig@video_stream_opencv@@@boost@@V?$allocator@V?$shared_ptr@$$CBVAbstractParamDescription@VideoStreamConfig@video_stream_opencv@@@boost@@@std@@@std@@QEBA_KXZ
	?category@error_code@system@boost@@QEBAAEBVerror_category@23@XZ
	?clamp@?$ParamDescription@H@VideoStreamConfig@video_stream_opencv@@UEBAXAEAV23@AEBV23@1@Z
	?clamp@?$ParamDescription@N@VideoStreamConfig@video_stream_opencv@@UEBAXAEAV23@AEBV23@1@Z
	?clamp@?$ParamDescription@V?$basic_string@DU?$char_traits@D@std@@V?$allocator@D@2@@std@@@VideoStreamConfig@video_stream_opencv@@UEBAXAEAV23@AEBV23@1@Z
	?clamp@?$ParamDescription@_N@VideoStreamConfig@video_stream_opencv@@UEBAXAEAV23@AEBV23@1@Z
	?clear@?$basic_string@DU?$char_traits@D@std@@V?$allocator@D@2@@std@@QEAAXXZ
	?clear@?$basic_vtable0@V?$shared_ptr@U?$ReconfigureRequest_@V?$allocator@X@std@@@dynamic_reconfigure@@@boost@@@function@detail@boost@@QEBAXAEATfunction_buffer@234@@Z
	?clear@?$basic_vtable0@V?$shared_ptr@U?$ReconfigureResponse_@V?$allocator@X@std@@@dynamic_reconfigure@@@boost@@@function@detail@boost@@QEBAXAEATfunction_buffer@234@@Z
	?clear@?$basic_vtable0@VSerializedMessage@ros@@@function@detail@boost@@QEBAXAEATfunction_buffer@234@@Z
	?clear@?$basic_vtable1@XAEBUTimerEvent@ros@@@function@detail@boost@@QEBAXAEATfunction_buffer@234@@Z
	?clear@?$basic_vtable1@XAEBVSingleSubscriberPublisher@image_transport@@@function@detail@boost@@QEBAXAEATfunction_buffer@234@@Z
	?clear@?$basic_vtable1@XAEBVSingleSubscriberPublisher@ros@@@function@detail@boost@@QEBAXAEATfunction_buffer@234@@Z
	?clear@?$basic_vtable2@XAEAVVideoStreamConfig@video_stream_opencv@@I@function@detail@boost@@QEBAXAEATfunction_buffer@234@@Z
	?clear@?$basic_vtable2@_NAEAU?$ReconfigureRequest_@V?$allocator@X@std@@@dynamic_reconfigure@@AEAU?$ReconfigureResponse_@V?$allocator@X@std@@@2@@function@detail@boost@@QEBAXAEATfunction_buffer@234@@Z
	?clear@?$function0@V?$shared_ptr@U?$ReconfigureRequest_@V?$allocator@X@std@@@dynamic_reconfigure@@@boost@@@boost@@QEAAXXZ
	?clear@?$function0@V?$shared_ptr@U?$ReconfigureResponse_@V?$allocator@X@std@@@dynamic_reconfigure@@@boost@@@boost@@QEAAXXZ
	?clear@?$function0@VSerializedMessage@ros@@@boost@@QEAAXXZ
	?clear@?$function1@XAEBUTimerEvent@ros@@@boost@@QEAAXXZ
	?clear@?$function1@XAEBVSingleSubscriberPublisher@image_transport@@@boost@@QEAAXXZ
	?clear@?$function1@XAEBVSingleSubscriberPublisher@ros@@@boost@@QEAAXXZ
	?clear@?$function2@XAEAVVideoStreamConfig@video_stream_opencv@@I@boost@@QEAAXXZ
	?clear@?$function2@_NAEAU?$ReconfigureRequest_@V?$allocator@X@std@@@dynamic_reconfigure@@AEAU?$ReconfigureResponse_@V?$allocator@X@std@@@2@@boost@@QEAAXXZ
	?clear@?$vector@U?$BoolParameter_@V?$allocator@X@std@@@dynamic_reconfigure@@V?$allocator@U?$BoolParameter_@V?$allocator@X@std@@@dynamic_reconfigure@@@std@@@std@@QEAAXXZ
	?clear@?$vector@U?$DoubleParameter_@V?$allocator@X@std@@@dynamic_reconfigure@@V?$allocator@U?$DoubleParameter_@V?$allocator@X@std@@@dynamic_reconfigure@@@std@@@std@@QEAAXXZ
	?clear@?$vector@U?$GroupState_@V?$allocator@X@std@@@dynamic_reconfigure@@V?$allocator@U?$GroupState_@V?$allocator@X@std@@@dynamic_reconfigure@@@std@@@std@@QEAAXXZ
	?clear@?$vector@U?$IntParameter_@V?$allocator@X@std@@@dynamic_reconfigure@@V?$allocator@U?$IntParameter_@V?$allocator@X@std@@@dynamic_reconfigure@@@std@@@std@@QEAAXXZ
	?clear@?$vector@U?$StrParameter_@V?$allocator@X@std@@@dynamic_reconfigure@@V?$allocator@U?$StrParameter_@V?$allocator@X@std@@@dynamic_reconfigure@@@std@@@std@@QEAAXXZ
	?clear@ConfigTools@dynamic_reconfigure@@SAXAEAU?$Config_@V?$allocator@X@std@@@2@@Z
	?clear_waiting_and_try_lock@basic_timed_mutex@detail@boost@@QEAAXAEAJ@Z
	?clone@?$holder@H@any@boost@@UEBAPEAVplaceholder@23@XZ
	?clone@?$holder@N@any@boost@@UEBAPEAVplaceholder@23@XZ
	?clone@?$holder@PEAVDEFAULT@VideoStreamConfig@video_stream_opencv@@@any@boost@@UEBAPEAVplaceholder@23@XZ
	?clone@?$holder@PEAVVideoStreamConfig@video_stream_opencv@@@any@boost@@UEBAPEAVplaceholder@23@XZ
	?clone@?$holder@V?$basic_string@DU?$char_traits@D@std@@V?$allocator@D@2@@std@@@any@boost@@UEBAPEAVplaceholder@23@XZ
	?clone@?$holder@VDEFAULT@VideoStreamConfig@video_stream_opencv@@@any@boost@@UEBAPEAVplaceholder@23@XZ
	?clone@?$holder@VVideoStreamConfig@video_stream_opencv@@@any@boost@@UEBAPEAVplaceholder@23@XZ
	?clone@?$holder@_N@any@boost@@UEBAPEAVplaceholder@23@XZ
	?clone@?$wrapexcept@Vassignment_exception@assign@boost@@@boost@@UEBAPEBVclone_base@exception_detail@2@XZ
	?clone@?$wrapexcept@Vbad_alloc@std@@@boost@@UEBAPEBVclone_base@exception_detail@2@XZ
	?clone@?$wrapexcept@Vbad_any_cast@boost@@@boost@@UEBAPEBVclone_base@exception_detail@2@XZ
	?clone@?$wrapexcept@Vbad_function_call@boost@@@boost@@UEBAPEBVclone_base@exception_detail@2@XZ
	?clone@?$wrapexcept@Vlock_error@boost@@@boost@@UEBAPEBVclone_base@exception_detail@2@XZ
	?clone@?$wrapexcept@Vthread_resource_error@boost@@@boost@@UEBAPEBVclone_base@exception_detail@2@XZ
	?clone@Mat@cv@@QEBA?AV12@XZ
	?compare@?$_Narrow_char_traits@DH@std@@SAHQEBD0_K@Z
	?compare@?$basic_string@DU?$char_traits@D@std@@V?$allocator@D@2@@std@@QEBAHAEBV12@@Z
	?configCallback@VideoStreamNodelet@video_stream_opencv@@MEAAXAEAVVideoStreamConfig@2@I@Z
	?connectionCallback@VideoStreamNodelet@video_stream_opencv@@MEAAXAEBVSingleSubscriberPublisher@image_transport@@@Z
	?connectionCallbackImpl@VideoStreamNodelet@video_stream_opencv@@MEAAXXZ
	?convert@path_traits@filesystem@boost@@YAXPEBD0AEAV?$basic_string@_WU?$char_traits@_W@std@@V?$allocator@_W@2@@std@@@Z
	?convert@path_traits@filesystem@boost@@YAXPEB_W0AEAV?$basic_string@DU?$char_traits@D@std@@V?$allocator@D@2@@std@@@Z
	?convertParams@AbstractGroupDescription@VideoStreamConfig@video_stream_opencv@@QEAAXXZ
	?copy@?$_Char_traits@DH@std@@SAPEADQEADQEBD_K@Z
	?copy_boost_exception@exception_detail@boost@@YAXPEAVexception@2@PEBV32@@Z
	?copy_from@?$wrapexcept@Vassignment_exception@assign@boost@@@boost@@AEAAXPEBX@Z
	?copy_from@?$wrapexcept@Vbad_alloc@std@@@boost@@AEAAXPEBX@Z
	?copy_from@?$wrapexcept@Vbad_any_cast@boost@@@boost@@AEAAXPEBX@Z
	?copy_from@?$wrapexcept@Vbad_function_call@boost@@@boost@@AEAAXPEBX@Z
	?copy_from@?$wrapexcept@Vlock_error@boost@@@boost@@AEAAXPEBX@Z
	?copy_from@?$wrapexcept@Vthread_resource_error@boost@@@boost@@AEAAXPEBX@Z
	?create@?$MetaObject@VVideoStreamNodelet@video_stream_opencv@@VNodelet@nodelet@@@impl@class_loader@@UEBAPEAVNodelet@nodelet@@XZ
	?create_anonymous_event@win32@detail@boost@@YAPEAXW4event_type@123@W4initial_event_state@123@@Z
	?create_event@win32@detail@boost@@YAPEAXPEBDW4event_type@123@W4initial_event_state@123@@Z
	?current_path@filesystem@boost@@YA?AVpath@12@XZ
	?data@?$basic_string@DU?$char_traits@D@std@@V?$allocator@D@2@@std@@QEBAPEBDXZ
	?deallocate@?$_Default_allocator_traits@V?$allocator@U_Container_proxy@std@@@std@@@std@@SAXAEAV?$allocator@U_Container_proxy@std@@@2@QEAU_Container_proxy@2@_K@Z
	?deallocate@?$allocator@D@std@@QEAAXQEAD_K@Z
	?deallocate@?$allocator@N@std@@QEAAXQEAN_K@Z
	?deallocate@?$allocator@PEAN@std@@QEAAXQEAPEAN_K@Z
	?deallocate@?$allocator@PEAVMat@cv@@@std@@QEAAXQEAPEAVMat@cv@@_K@Z
	?deallocate@?$allocator@U?$BoolParameter_@V?$allocator@X@std@@@dynamic_reconfigure@@@std@@QEAAXQEAU?$BoolParameter_@V?$allocator@X@std@@@dynamic_reconfigure@@_K@Z
	?deallocate@?$allocator@U?$DoubleParameter_@V?$allocator@X@std@@@dynamic_reconfigure@@@std@@QEAAXQEAU?$DoubleParameter_@V?$allocator@X@std@@@dynamic_reconfigure@@_K@Z
	?deallocate@?$allocator@U?$GroupState_@V?$allocator@X@std@@@dynamic_reconfigure@@@std@@QEAAXQEAU?$GroupState_@V?$allocator@X@std@@@dynamic_reconfigure@@_K@Z
	?deallocate@?$allocator@U?$Group_@V?$allocator@X@std@@@dynamic_reconfigure@@@std@@QEAAXQEAU?$Group_@V?$allocator@X@std@@@dynamic_reconfigure@@_K@Z
	?deallocate@?$allocator@U?$IntParameter_@V?$allocator@X@std@@@dynamic_reconfigure@@@std@@QEAAXQEAU?$IntParameter_@V?$allocator@X@std@@@dynamic_reconfigure@@_K@Z
	?deallocate@?$allocator@U?$ParamDescription_@V?$allocator@X@std@@@dynamic_reconfigure@@@std@@QEAAXQEAU?$ParamDescription_@V?$allocator@X@std@@@dynamic_reconfigure@@_K@Z
	?deallocate@?$allocator@U?$StrParameter_@V?$allocator@X@std@@@dynamic_reconfigure@@@std@@QEAAXQEAU?$StrParameter_@V?$allocator@X@std@@@dynamic_reconfigure@@_K@Z
	?deallocate@?$allocator@U?$_Tree_node@U?$pair@$$CBV?$basic_string@DU?$char_traits@D@std@@V?$allocator@D@2@@std@@PEAVAbstractMetaObjectBase@impl@class_loader@@@std@@PEAX@std@@@std@@QEAAXQEAU?$_Tree_node@U?$pair@$$CBV?$basic_string@DU?$char_traits@D@std@@V?$allocator@D@2@@std@@PEAVAbstractMetaObjectBase@impl@class_loader@@@std@@PEAX@2@_K@Z
	?deallocate@?$allocator@V?$shared_ptr@$$CBVAbstractGroupDescription@VideoStreamConfig@video_stream_opencv@@@boost@@@std@@QEAAXQEAV?$shared_ptr@$$CBVAbstractGroupDescription@VideoStreamConfig@video_stream_opencv@@@boost@@_K@Z
	?deallocate@?$allocator@V?$shared_ptr@$$CBVAbstractParamDescription@VideoStreamConfig@video_stream_opencv@@@boost@@@std@@QEAAXQEAV?$shared_ptr@$$CBVAbstractParamDescription@VideoStreamConfig@video_stream_opencv@@@boost@@_K@Z
	?deallocate@?$allocator@VMat@cv@@@std@@QEAAXQEAVMat@cv@@_K@Z
	?deallocate@?$allocator@_W@std@@QEAAXQEA_W_K@Z
	?default_error_condition@error_category@system@boost@@UEBA?AVerror_condition@23@H@Z
	?default_error_condition@system_error_category@detail@system@boost@@UEBA?AVerror_condition@34@H@Z
	?destroy@?$basic_recursive_mutex_impl@Ubasic_timed_mutex@detail@boost@@@detail@boost@@QEAAXXZ
	?destroy@?$sp_ms_deleter@U?$ReconfigureRequest_@V?$allocator@X@std@@@dynamic_reconfigure@@@detail@boost@@AEAAXXZ
	?destroy@?$sp_ms_deleter@U?$ReconfigureResponse_@V?$allocator@X@std@@@dynamic_reconfigure@@@detail@boost@@AEAAXXZ
	?destroy@?$sp_ms_deleter@V?$Server@VVideoStreamConfig@video_stream_opencv@@@dynamic_reconfigure@@@detail@boost@@AEAAXXZ
	?destroy@?$sp_ms_deleter@V?$ServiceCallbackHelperT@U?$ServiceSpec@U?$ReconfigureRequest_@V?$allocator@X@std@@@dynamic_reconfigure@@U?$ReconfigureResponse_@V?$allocator@X@std@@@2@@ros@@@ros@@@detail@boost@@AEAAXXZ
	?destroy@?$sp_ms_deleter@VCvImage@cv_bridge@@@detail@boost@@AEAAXXZ
	?destroy@basic_timed_mutex@detail@boost@@QEAAXXZ
	?destroy@sp_counted_base@detail@boost@@UEAAXXZ
	?disconnectionCallback@VideoStreamNodelet@video_stream_opencv@@MEAAXAEBVSingleSubscriberPublisher@image_transport@@@Z
	?disconnectionCallbackImpl@VideoStreamNodelet@video_stream_opencv@@MEAAXXZ
	?dispose@?$sp_counted_impl_p@V?$GroupDescription@VDEFAULT@VideoStreamConfig@video_stream_opencv@@V23@@VideoStreamConfig@video_stream_opencv@@@detail@boost@@UEAAXXZ
	?dispose@?$sp_counted_impl_p@V?$ParamDescription@H@VideoStreamConfig@video_stream_opencv@@@detail@boost@@UEAAXXZ
	?dispose@?$sp_counted_impl_p@V?$ParamDescription@N@VideoStreamConfig@video_stream_opencv@@@detail@boost@@UEAAXXZ
	?dispose@?$sp_counted_impl_p@V?$ParamDescription@V?$basic_string@DU?$char_traits@D@std@@V?$allocator@D@2@@std@@@VideoStreamConfig@video_stream_opencv@@@detail@boost@@UEAAXXZ
	?dispose@?$sp_counted_impl_p@V?$ParamDescription@_N@VideoStreamConfig@video_stream_opencv@@@detail@boost@@UEAAXXZ
	?dispose@?$sp_counted_impl_p@VNodeHandle@ros@@@detail@boost@@UEAAXXZ
	?dispose@?$sp_counted_impl_p@VVideoCapture@cv@@@detail@boost@@UEAAXXZ
	?dispose@?$sp_counted_impl_pd@PEAEU?$checked_array_deleter@E@boost@@@detail@boost@@UEAAXXZ
	?dispose@?$sp_counted_impl_pd@PEAU?$ReconfigureRequest_@V?$allocator@X@std@@@dynamic_reconfigure@@V?$sp_ms_deleter@U?$ReconfigureRequest_@V?$allocator@X@std@@@dynamic_reconfigure@@@detail@boost@@@detail@boost@@UEAAXXZ
	?dispose@?$sp_counted_impl_pd@PEAU?$ReconfigureResponse_@V?$allocator@X@std@@@dynamic_reconfigure@@V?$sp_ms_deleter@U?$ReconfigureResponse_@V?$allocator@X@std@@@dynamic_reconfigure@@@detail@boost@@@detail@boost@@UEAAXXZ
	?dispose@?$sp_counted_impl_pd@PEAV?$Server@VVideoStreamConfig@video_stream_opencv@@@dynamic_reconfigure@@V?$sp_ms_deleter@V?$Server@VVideoStreamConfig@video_stream_opencv@@@dynamic_reconfigure@@@detail@boost@@@detail@boost@@UEAAXXZ
	?dispose@?$sp_counted_impl_pd@PEAV?$ServiceCallbackHelperT@U?$ServiceSpec@U?$ReconfigureRequest_@V?$allocator@X@std@@@dynamic_reconfigure@@U?$ReconfigureResponse_@V?$allocator@X@std@@@2@@ros@@@ros@@V?$sp_ms_deleter@V?$ServiceCallbackHelperT@U?$ServiceSpec@U?$ReconfigureRequest_@V?$allocator@X@std@@@dynamic_reconfigure@@U?$ReconfigureResponse_@V?$allocator@X@std@@@2@@ros@@@ros@@@detail@boost@@@detail@boost@@UEAAXXZ
	?dispose@?$sp_counted_impl_pd@PEAVCvImage@cv_bridge@@V?$sp_ms_deleter@VCvImage@cv_bridge@@@detail@boost@@@detail@boost@@UEAAXXZ
	?do_capture@VideoStreamNodelet@video_stream_opencv@@MEAAXXZ
	?do_publish@VideoStreamNodelet@video_stream_opencv@@MEAAXAEBUTimerEvent@ros@@@Z
	?empty@?$basic_string@DU?$char_traits@D@std@@V?$allocator@D@2@@std@@QEBA_NXZ
	?empty@?$basic_string@_WU?$char_traits@_W@std@@V?$allocator@_W@2@@std@@QEBA_NXZ
	?empty@?$deque@NV?$allocator@N@std@@@std@@QEBA_NXZ
	?empty@?$deque@VMat@cv@@V?$allocator@VMat@cv@@@std@@@std@@QEBA_NXZ
	?empty@?$queue@VMat@cv@@V?$deque@VMat@cv@@V?$allocator@VMat@cv@@@std@@@std@@@std@@QEBA_NXZ
	?empty@Mat@cv@@QEBA_NXZ
	?empty@function_base@boost@@QEBA_NXZ
	?end@?$_Tree@V?$_Tmap_traits@V?$basic_string@DU?$char_traits@D@std@@V?$allocator@D@2@@std@@PEAVAbstractMetaObjectBase@impl@class_loader@@U?$less@V?$basic_string@DU?$char_traits@D@std@@V?$allocator@D@2@@std@@@2@V?$allocator@U?$pair@$$CBV?$basic_string@DU?$char_traits@D@std@@V?$allocator@D@2@@std@@PEAVAbstractMetaObjectBase@impl@class_loader@@@std@@@2@$0A@@std@@@std@@QEAA?AV?$_Tree_iterator@V?$_Tree_val@U?$_Tree_simple_types@U?$pair@$$CBV?$basic_string@DU?$char_traits@D@std@@V?$allocator@D@2@@std@@PEAVAbstractMetaObjectBase@impl@class_loader@@@std@@@std@@@std@@@2@XZ
	?end@?$converter@V?$generic_list@N@assign_detail@boost@@V?$_Deque_iterator@V?$_Deque_val@U?$_Deque_simple_types@N@std@@@std@@@std@@@assign_detail@boost@@QEBA?AV?$_Deque_iterator@V?$_Deque_val@U?$_Deque_simple_types@N@std@@@std@@@std@@XZ
	?end@?$deque@NV?$allocator@N@std@@@std@@QEAA?AV?$_Deque_iterator@V?$_Deque_val@U?$_Deque_simple_types@N@std@@@std@@@2@XZ
	?end@?$generic_list@N@assign_detail@boost@@QEBA?AV?$_Deque_iterator@V?$_Deque_val@U?$_Deque_simple_types@N@std@@@std@@@std@@XZ
	?end@?$vector@U?$BoolParameter_@V?$allocator@X@std@@@dynamic_reconfigure@@V?$allocator@U?$BoolParameter_@V?$allocator@X@std@@@dynamic_reconfigure@@@std@@@std@@QEAA?AV?$_Vector_iterator@V?$_Vector_val@U?$_Simple_types@U?$BoolParameter_@V?$allocator@X@std@@@dynamic_reconfigure@@@std@@@std@@@2@XZ
	?end@?$vector@U?$BoolParameter_@V?$allocator@X@std@@@dynamic_reconfigure@@V?$allocator@U?$BoolParameter_@V?$allocator@X@std@@@dynamic_reconfigure@@@std@@@std@@QEBA?AV?$_Vector_const_iterator@V?$_Vector_val@U?$_Simple_types@U?$BoolParameter_@V?$allocator@X@std@@@dynamic_reconfigure@@@std@@@std@@@2@XZ
	?end@?$vector@U?$DoubleParameter_@V?$allocator@X@std@@@dynamic_reconfigure@@V?$allocator@U?$DoubleParameter_@V?$allocator@X@std@@@dynamic_reconfigure@@@std@@@std@@QEAA?AV?$_Vector_iterator@V?$_Vector_val@U?$_Simple_types@U?$DoubleParameter_@V?$allocator@X@std@@@dynamic_reconfigure@@@std@@@std@@@2@XZ
	?end@?$vector@U?$DoubleParameter_@V?$allocator@X@std@@@dynamic_reconfigure@@V?$allocator@U?$DoubleParameter_@V?$allocator@X@std@@@dynamic_reconfigure@@@std@@@std@@QEBA?AV?$_Vector_const_iterator@V?$_Vector_val@U?$_Simple_types@U?$DoubleParameter_@V?$allocator@X@std@@@dynamic_reconfigure@@@std@@@std@@@2@XZ
	?end@?$vector@U?$GroupState_@V?$allocator@X@std@@@dynamic_reconfigure@@V?$allocator@U?$GroupState_@V?$allocator@X@std@@@dynamic_reconfigure@@@std@@@std@@QEAA?AV?$_Vector_iterator@V?$_Vector_val@U?$_Simple_types@U?$GroupState_@V?$allocator@X@std@@@dynamic_reconfigure@@@std@@@std@@@2@XZ
	?end@?$vector@U?$GroupState_@V?$allocator@X@std@@@dynamic_reconfigure@@V?$allocator@U?$GroupState_@V?$allocator@X@std@@@dynamic_reconfigure@@@std@@@std@@QEBA?AV?$_Vector_const_iterator@V?$_Vector_val@U?$_Simple_types@U?$GroupState_@V?$allocator@X@std@@@dynamic_reconfigure@@@std@@@std@@@2@XZ
	?end@?$vector@U?$Group_@V?$allocator@X@std@@@dynamic_reconfigure@@V?$allocator@U?$Group_@V?$allocator@X@std@@@dynamic_reconfigure@@@std@@@std@@QEBA?AV?$_Vector_const_iterator@V?$_Vector_val@U?$_Simple_types@U?$Group_@V?$allocator@X@std@@@dynamic_reconfigure@@@std@@@std@@@2@XZ
	?end@?$vector@U?$IntParameter_@V?$allocator@X@std@@@dynamic_reconfigure@@V?$allocator@U?$IntParameter_@V?$allocator@X@std@@@dynamic_reconfigure@@@std@@@std@@QEAA?AV?$_Vector_iterator@V?$_Vector_val@U?$_Simple_types@U?$IntParameter_@V?$allocator@X@std@@@dynamic_reconfigure@@@std@@@std@@@2@XZ
	?end@?$vector@U?$IntParameter_@V?$allocator@X@std@@@dynamic_reconfigure@@V?$allocator@U?$IntParameter_@V?$allocator@X@std@@@dynamic_reconfigure@@@std@@@std@@QEBA?AV?$_Vector_const_iterator@V?$_Vector_val@U?$_Simple_types@U?$IntParameter_@V?$allocator@X@std@@@dynamic_reconfigure@@@std@@@std@@@2@XZ
	?end@?$vector@U?$ParamDescription_@V?$allocator@X@std@@@dynamic_reconfigure@@V?$allocator@U?$ParamDescription_@V?$allocator@X@std@@@dynamic_reconfigure@@@std@@@std@@QEBA?AV?$_Vector_const_iterator@V?$_Vector_val@U?$_Simple_types@U?$ParamDescription_@V?$allocator@X@std@@@dynamic_reconfigure@@@std@@@std@@@2@XZ
	?end@?$vector@U?$StrParameter_@V?$allocator@X@std@@@dynamic_reconfigure@@V?$allocator@U?$StrParameter_@V?$allocator@X@std@@@dynamic_reconfigure@@@std@@@std@@QEAA?AV?$_Vector_iterator@V?$_Vector_val@U?$_Simple_types@U?$StrParameter_@V?$allocator@X@std@@@dynamic_reconfigure@@@std@@@std@@@2@XZ
	?end@?$vector@U?$StrParameter_@V?$allocator@X@std@@@dynamic_reconfigure@@V?$allocator@U?$StrParameter_@V?$allocator@X@std@@@dynamic_reconfigure@@@std@@@std@@QEBA?AV?$_Vector_const_iterator@V?$_Vector_val@U?$_Simple_types@U?$StrParameter_@V?$allocator@X@std@@@dynamic_reconfigure@@@std@@@std@@@2@XZ
	?end@?$vector@V?$shared_ptr@$$CBVAbstractGroupDescription@VideoStreamConfig@video_stream_opencv@@@boost@@V?$allocator@V?$shared_ptr@$$CBVAbstractGroupDescription@VideoStreamConfig@video_stream_opencv@@@boost@@@std@@@std@@QEAA?AV?$_Vector_iterator@V?$_Vector_val@U?$_Simple_types@V?$shared_ptr@$$CBVAbstractGroupDescription@VideoStreamConfig@video_stream_opencv@@@boost@@@std@@@std@@@2@XZ
	?end@?$vector@V?$shared_ptr@$$CBVAbstractGroupDescription@VideoStreamConfig@video_stream_opencv@@@boost@@V?$allocator@V?$shared_ptr@$$CBVAbstractGroupDescription@VideoStreamConfig@video_stream_opencv@@@boost@@@std@@@std@@QEBA?AV?$_Vector_const_iterator@V?$_Vector_val@U?$_Simple_types@V?$shared_ptr@$$CBVAbstractGroupDescription@VideoStreamConfig@video_stream_opencv@@@boost@@@std@@@std@@@2@XZ
	?end@?$vector@V?$shared_ptr@$$CBVAbstractParamDescription@VideoStreamConfig@video_stream_opencv@@@boost@@V?$allocator@V?$shared_ptr@$$CBVAbstractParamDescription@VideoStreamConfig@video_stream_opencv@@@boost@@@std@@@std@@QEAA?AV?$_Vector_iterator@V?$_Vector_val@U?$_Simple_types@V?$shared_ptr@$$CBVAbstractParamDescription@VideoStreamConfig@video_stream_opencv@@@boost@@@std@@@std@@@2@XZ
	?end@?$vector@V?$shared_ptr@$$CBVAbstractParamDescription@VideoStreamConfig@video_stream_opencv@@@boost@@V?$allocator@V?$shared_ptr@$$CBVAbstractParamDescription@VideoStreamConfig@video_stream_opencv@@@boost@@@std@@@std@@QEBA?AV?$_Vector_const_iterator@V?$_Vector_val@U?$_Simple_types@V?$shared_ptr@$$CBVAbstractParamDescription@VideoStreamConfig@video_stream_opencv@@@boost@@@std@@@std@@@2@XZ
	?eof@?$_Narrow_char_traits@DH@std@@SAHXZ
	?eq@?$_Narrow_char_traits@DH@std@@SA_NAEBD0@Z
	?eq_int_type@?$_Narrow_char_traits@DH@std@@SA_NAEBH0@Z
	?equal@stl_type_index@typeindex@boost@@QEBA_NAEBV123@@Z
	?equivalent@error_category@system@boost@@UEBA_NAEBVerror_code@23@H@Z
	?equivalent@error_category@system@boost@@UEBA_NHAEBVerror_condition@23@@Z
	?failed@error_category@system@boost@@UEBA_NH@Z
	?failed_impl@detail@system@boost@@YA_NHAEBVerror_category@23@@Z
	?fetch_add@?$_Atomic_integral@H$03@std@@QEAAHHW4memory_order@2@@Z
	?fetch_sub@?$_Atomic_integral_facade@H@std@@QEAAHHW4memory_order@2@@Z
	?file_name@source_location@boost@@QEBAPEBDXZ
	?fill@?$array@N$08@boost@@QEAAXAEBN@Z
	?fill@?$array@N$0M@@boost@@QEAAXAEBN@Z
	?find@?$_Narrow_char_traits@DH@std@@SAPEBDQEBD_KAEBD@Z
	?find@?$_Tree@V?$_Tmap_traits@V?$basic_string@DU?$char_traits@D@std@@V?$allocator@D@2@@std@@PEAVAbstractMetaObjectBase@impl@class_loader@@U?$less@V?$basic_string@DU?$char_traits@D@std@@V?$allocator@D@2@@std@@@2@V?$allocator@U?$pair@$$CBV?$basic_string@DU?$char_traits@D@std@@V?$allocator@D@2@@std@@PEAVAbstractMetaObjectBase@impl@class_loader@@@std@@@2@$0A@@std@@@std@@QEAA?AV?$_Tree_iterator@V?$_Tree_val@U?$_Tree_simple_types@U?$pair@$$CBV?$basic_string@DU?$char_traits@D@std@@V?$allocator@D@2@@std@@PEAVAbstractMetaObjectBase@impl@class_loader@@@std@@@std@@@std@@@2@AEBV?$basic_string@DU?$char_traits@D@std@@V?$allocator@D@2@@2@@Z
	?find@?$basic_string@DU?$char_traits@D@std@@V?$allocator@D@2@@std@@QEBA_KQEBD_K@Z
	?free_raw_heap_memory@detail@boost@@YAXPEAX@Z
	?fromMessage@?$GroupDescription@VDEFAULT@VideoStreamConfig@video_stream_opencv@@V23@@VideoStreamConfig@video_stream_opencv@@UEBA_NAEBU?$Config_@V?$allocator@X@std@@@dynamic_reconfigure@@AEAVany@boost@@@Z
	?fromMessage@?$ParamDescription@H@VideoStreamConfig@video_stream_opencv@@UEBA_NAEBU?$Config_@V?$allocator@X@std@@@dynamic_reconfigure@@AEAV23@@Z
	?fromMessage@?$ParamDescription@N@VideoStreamConfig@video_stream_opencv@@UEBA_NAEBU?$Config_@V?$allocator@X@std@@@dynamic_reconfigure@@AEAV23@@Z
	?fromMessage@?$ParamDescription@V?$basic_string@DU?$char_traits@D@std@@V?$allocator@D@2@@std@@@VideoStreamConfig@video_stream_opencv@@UEBA_NAEBU?$Config_@V?$allocator@X@std@@@dynamic_reconfigure@@AEAV23@@Z
	?fromMessage@?$ParamDescription@_N@VideoStreamConfig@video_stream_opencv@@UEBA_NAEBU?$Config_@V?$allocator@X@std@@@dynamic_reconfigure@@AEAV23@@Z
	?fromServer@?$ParamDescription@H@VideoStreamConfig@video_stream_opencv@@UEBAXAEBVNodeHandle@ros@@AEAV23@@Z
	?fromServer@?$ParamDescription@N@VideoStreamConfig@video_stream_opencv@@UEBAXAEBVNodeHandle@ros@@AEAV23@@Z
	?fromServer@?$ParamDescription@V?$basic_string@DU?$char_traits@D@std@@V?$allocator@D@2@@std@@@VideoStreamConfig@video_stream_opencv@@UEBAXAEBVNodeHandle@ros@@AEAV23@@Z
	?fromServer@?$ParamDescription@_N@VideoStreamConfig@video_stream_opencv@@UEBAXAEBVNodeHandle@ros@@AEAV23@@Z
	?front@?$deque@VMat@cv@@V?$allocator@VMat@cv@@@std@@@std@@QEAAAEAVMat@cv@@XZ
	?front@?$queue@VMat@cv@@V?$deque@VMat@cv@@V?$allocator@VMat@cv@@@std@@@std@@@std@@QEAAAEAVMat@cv@@XZ
	?function_name@source_location@boost@@QEBAPEBDXZ
	?generic_category@system@boost@@YAAEBVerror_category@12@XZ
	?generic_error_category_message@detail@system@boost@@YA?AV?$basic_string@DU?$char_traits@D@std@@V?$allocator@D@2@@std@@H@Z
	?generic_error_category_message@detail@system@boost@@YAPEBDHPEAD_K@Z
	?get@?$refcount_ptr@Uerror_info_container@exception_detail@boost@@@exception_detail@boost@@QEBAPEAUerror_info_container@23@XZ
	?get@?$reference_wrapper@$$CBU?$ConfigDescription_@V?$allocator@X@std@@@dynamic_reconfigure@@@boost@@QEBAAEBU?$ConfigDescription_@V?$allocator@X@std@@@dynamic_reconfigure@@XZ
	?get@?$reference_wrapper@$$CBU?$Config_@V?$allocator@X@std@@@dynamic_reconfigure@@@boost@@QEBAAEBU?$Config_@V?$allocator@X@std@@@dynamic_reconfigure@@XZ
	?get@?$shared_array@E@boost@@QEBAPEAEXZ
	?get@?$value@PEAV?$Server@VVideoStreamConfig@video_stream_opencv@@@dynamic_reconfigure@@@_bi@boost@@QEAAAEAPEAV?$Server@VVideoStreamConfig@video_stream_opencv@@@dynamic_reconfigure@@XZ
	?get@?$value@PEAVVideoStreamNodelet@video_stream_opencv@@@_bi@boost@@QEAAAEAPEAVVideoStreamNodelet@video_stream_opencv@@XZ
	?getValue@?$ParamDescription@H@VideoStreamConfig@video_stream_opencv@@UEBAXAEBV23@AEAVany@boost@@@Z
	?getValue@?$ParamDescription@N@VideoStreamConfig@video_stream_opencv@@UEBAXAEBV23@AEAVany@boost@@@Z
	?getValue@?$ParamDescription@V?$basic_string@DU?$char_traits@D@std@@V?$allocator@D@2@@std@@@VideoStreamConfig@video_stream_opencv@@UEBAXAEBV23@AEAVany@boost@@@Z
	?getValue@?$ParamDescription@_N@VideoStreamConfig@video_stream_opencv@@UEBAXAEBV23@AEAVany@boost@@@Z
	?getVectorForType@ConfigTools@dynamic_reconfigure@@SAAEAV?$vector@U?$BoolParameter_@V?$allocator@X@std@@@dynamic_reconfigure@@V?$allocator@U?$BoolParameter_@V?$allocator@X@std@@@dynamic_reconfigure@@@std@@@std@@AEAU?$Config_@V?$allocator@X@std@@@2@_N@Z
	?getVectorForType@ConfigTools@dynamic_reconfigure@@SAAEAV?$vector@U?$DoubleParameter_@V?$allocator@X@std@@@dynamic_reconfigure@@V?$allocator@U?$DoubleParameter_@V?$allocator@X@std@@@dynamic_reconfigure@@@std@@@std@@AEAU?$Config_@V?$allocator@X@std@@@2@N@Z
	?getVectorForType@ConfigTools@dynamic_reconfigure@@SAAEAV?$vector@U?$IntParameter_@V?$allocator@X@std@@@dynamic_reconfigure@@V?$allocator@U?$IntParameter_@V?$allocator@X@std@@@dynamic_reconfigure@@@std@@@std@@AEAU?$Config_@V?$allocator@X@std@@@2@H@Z
	?getVectorForType@ConfigTools@dynamic_reconfigure@@SAAEAV?$vector@U?$StrParameter_@V?$allocator@X@std@@@dynamic_reconfigure@@V?$allocator@U?$StrParameter_@V?$allocator@X@std@@@dynamic_reconfigure@@@std@@@std@@AEAU?$Config_@V?$allocator@X@std@@@2@AEBV?$basic_string@DU?$char_traits@D@std@@V?$allocator@D@2@@4@@Z
	?getVectorForType@ConfigTools@dynamic_reconfigure@@SAAEBV?$vector@U?$BoolParameter_@V?$allocator@X@std@@@dynamic_reconfigure@@V?$allocator@U?$BoolParameter_@V?$allocator@X@std@@@dynamic_reconfigure@@@std@@@std@@AEBU?$Config_@V?$allocator@X@std@@@2@_N@Z
	?getVectorForType@ConfigTools@dynamic_reconfigure@@SAAEBV?$vector@U?$DoubleParameter_@V?$allocator@X@std@@@dynamic_reconfigure@@V?$allocator@U?$DoubleParameter_@V?$allocator@X@std@@@dynamic_reconfigure@@@std@@@std@@AEBU?$Config_@V?$allocator@X@std@@@2@N@Z
	?getVectorForType@ConfigTools@dynamic_reconfigure@@SAAEBV?$vector@U?$IntParameter_@V?$allocator@X@std@@@dynamic_reconfigure@@V?$allocator@U?$IntParameter_@V?$allocator@X@std@@@dynamic_reconfigure@@@std@@@std@@AEBU?$Config_@V?$allocator@X@std@@@2@H@Z
	?getVectorForType@ConfigTools@dynamic_reconfigure@@SAAEBV?$vector@U?$StrParameter_@V?$allocator@X@std@@@dynamic_reconfigure@@V?$allocator@U?$StrParameter_@V?$allocator@X@std@@@dynamic_reconfigure@@@std@@@std@@AEBU?$Config_@V?$allocator@X@std@@@2@AEBV?$basic_string@DU?$char_traits@D@std@@V?$allocator@D@2@@4@@Z
	?get_default_camera_info_from_image@VideoStreamNodelet@video_stream_opencv@@MEAA?AU?$CameraInfo_@V?$allocator@X@std@@@sensor_msgs@@V?$shared_ptr@U?$Image_@V?$allocator@X@std@@@sensor_msgs@@@boost@@@Z
	?get_deleter@?$sp_counted_impl_p@V?$GroupDescription@VDEFAULT@VideoStreamConfig@video_stream_opencv@@V23@@VideoStreamConfig@video_stream_opencv@@@detail@boost@@UEAAPEAXAEBVtype_info@@@Z
	?get_deleter@?$sp_counted_impl_p@V?$ParamDescription@H@VideoStreamConfig@video_stream_opencv@@@detail@boost@@UEAAPEAXAEBVtype_info@@@Z
	?get_deleter@?$sp_counted_impl_p@V?$ParamDescription@N@VideoStreamConfig@video_stream_opencv@@@detail@boost@@UEAAPEAXAEBVtype_info@@@Z
	?get_deleter@?$sp_counted_impl_p@V?$ParamDescription@V?$basic_string@DU?$char_traits@D@std@@V?$allocator@D@2@@std@@@VideoStreamConfig@video_stream_opencv@@@detail@boost@@UEAAPEAXAEBVtype_info@@@Z
	?get_deleter@?$sp_counted_impl_p@V?$ParamDescription@_N@VideoStreamConfig@video_stream_opencv@@@detail@boost@@UEAAPEAXAEBVtype_info@@@Z
	?get_deleter@?$sp_counted_impl_p@VNodeHandle@ros@@@detail@boost@@UEAAPEAXAEBVtype_info@@@Z
	?get_deleter@?$sp_counted_impl_p@VVideoCapture@cv@@@detail@boost@@UEAAPEAXAEBVtype_info@@@Z
	?get_deleter@?$sp_counted_impl_pd@PEAEU?$checked_array_deleter@E@boost@@@detail@boost@@UEAAPEAXAEBVtype_info@@@Z
	?get_deleter@?$sp_counted_impl_pd@PEAU?$ReconfigureRequest_@V?$allocator@X@std@@@dynamic_reconfigure@@V?$sp_ms_deleter@U?$ReconfigureRequest_@V?$allocator@X@std@@@dynamic_reconfigure@@@detail@boost@@@detail@boost@@UEAAPEAXAEBVtype_info@@@Z
	?get_deleter@?$sp_counted_impl_pd@PEAU?$ReconfigureResponse_@V?$allocator@X@std@@@dynamic_reconfigure@@V?$sp_ms_deleter@U?$ReconfigureResponse_@V?$allocator@X@std@@@dynamic_reconfigure@@@detail@boost@@@detail@boost@@UEAAPEAXAEBVtype_info@@@Z
	?get_deleter@?$sp_counted_impl_pd@PEAV?$Server@VVideoStreamConfig@video_stream_opencv@@@dynamic_reconfigure@@V?$sp_ms_deleter@V?$Server@VVideoStreamConfig@video_stream_opencv@@@dynamic_reconfigure@@@detail@boost@@@detail@boost@@UEAAPEAXAEBVtype_info@@@Z
	?get_deleter@?$sp_counted_impl_pd@PEAV?$ServiceCallbackHelperT@U?$ServiceSpec@U?$ReconfigureRequest_@V?$allocator@X@std@@@dynamic_reconfigure@@U?$ReconfigureResponse_@V?$allocator@X@std@@@2@@ros@@@ros@@V?$sp_ms_deleter@V?$ServiceCallbackHelperT@U?$ServiceSpec@U?$ReconfigureRequest_@V?$allocator@X@std@@@dynamic_reconfigure@@U?$ReconfigureResponse_@V?$allocator@X@std@@@2@@ros@@@ros@@@detail@boost@@@detail@boost@@UEAAPEAXAEBVtype_info@@@Z
	?get_deleter@?$sp_counted_impl_pd@PEAVCvImage@cv_bridge@@V?$sp_ms_deleter@VCvImage@cv_bridge@@@detail@boost@@@detail@boost@@UEAAPEAXAEBVtype_info@@@Z
	?get_event@basic_timed_mutex@detail@boost@@AEAAPEAXXZ
	?get_instance@VideoStreamConfigStatics@video_stream_opencv@@CAPEBV12@XZ
	?get_local_deleter@?$sp_counted_impl_p@V?$GroupDescription@VDEFAULT@VideoStreamConfig@video_stream_opencv@@V23@@VideoStreamConfig@video_stream_opencv@@@detail@boost@@UEAAPEAXAEBVtype_info@@@Z
	?get_local_deleter@?$sp_counted_impl_p@V?$ParamDescription@H@VideoStreamConfig@video_stream_opencv@@@detail@boost@@UEAAPEAXAEBVtype_info@@@Z
	?get_local_deleter@?$sp_counted_impl_p@V?$ParamDescription@N@VideoStreamConfig@video_stream_opencv@@@detail@boost@@UEAAPEAXAEBVtype_info@@@Z
	?get_local_deleter@?$sp_counted_impl_p@V?$ParamDescription@V?$basic_string@DU?$char_traits@D@std@@V?$allocator@D@2@@std@@@VideoStreamConfig@video_stream_opencv@@@detail@boost@@UEAAPEAXAEBVtype_info@@@Z
	?get_local_deleter@?$sp_counted_impl_p@V?$ParamDescription@_N@VideoStreamConfig@video_stream_opencv@@@detail@boost@@UEAAPEAXAEBVtype_info@@@Z
	?get_local_deleter@?$sp_counted_impl_p@VNodeHandle@ros@@@detail@boost@@UEAAPEAXAEBVtype_info@@@Z
	?get_local_deleter@?$sp_counted_impl_p@VVideoCapture@cv@@@detail@boost@@UEAAPEAXAEBVtype_info@@@Z
	?get_local_deleter@?$sp_counted_impl_pd@PEAEU?$checked_array_deleter@E@boost@@@detail@boost@@UEAAPEAXAEBVtype_info@@@Z
	?get_local_deleter@?$sp_counted_impl_pd@PEAU?$ReconfigureRequest_@V?$allocator@X@std@@@dynamic_reconfigure@@V?$sp_ms_deleter@U?$ReconfigureRequest_@V?$allocator@X@std@@@dynamic_reconfigure@@@detail@boost@@@detail@boost@@UEAAPEAXAEBVtype_info@@@Z
	?get_local_deleter@?$sp_counted_impl_pd@PEAU?$ReconfigureResponse_@V?$allocator@X@std@@@dynamic_reconfigure@@V?$sp_ms_deleter@U?$ReconfigureResponse_@V?$allocator@X@std@@@dynamic_reconfigure@@@detail@boost@@@detail@boost@@UEAAPEAXAEBVtype_info@@@Z
	?get_local_deleter@?$sp_counted_impl_pd@PEAV?$Server@VVideoStreamConfig@video_stream_opencv@@@dynamic_reconfigure@@V?$sp_ms_deleter@V?$Server@VVideoStreamConfig@video_stream_opencv@@@dynamic_reconfigure@@@detail@boost@@@detail@boost@@UEAAPEAXAEBVtype_info@@@Z
	?get_local_deleter@?$sp_counted_impl_pd@PEAV?$ServiceCallbackHelperT@U?$ServiceSpec@U?$ReconfigureRequest_@V?$allocator@X@std@@@dynamic_reconfigure@@U?$ReconfigureResponse_@V?$allocator@X@std@@@2@@ros@@@ros@@V?$sp_ms_deleter@V?$ServiceCallbackHelperT@U?$ServiceSpec@U?$ReconfigureRequest_@V?$allocator@X@std@@@dynamic_reconfigure@@U?$ReconfigureResponse_@V?$allocator@X@std@@@2@@ros@@@ros@@@detail@boost@@@detail@boost@@UEAAPEAXAEBVtype_info@@@Z
	?get_local_deleter@?$sp_counted_impl_pd@PEAVCvImage@cv_bridge@@V?$sp_ms_deleter@VCvImage@cv_bridge@@@detail@boost@@@detail@boost@@UEAAPEAXAEBVtype_info@@@Z
	?get_untyped_deleter@?$sp_counted_impl_p@V?$GroupDescription@VDEFAULT@VideoStreamConfig@video_stream_opencv@@V23@@VideoStreamConfig@video_stream_opencv@@@detail@boost@@UEAAPEAXXZ
	?get_untyped_deleter@?$sp_counted_impl_p@V?$ParamDescription@H@VideoStreamConfig@video_stream_opencv@@@detail@boost@@UEAAPEAXXZ
	?get_untyped_deleter@?$sp_counted_impl_p@V?$ParamDescription@N@VideoStreamConfig@video_stream_opencv@@@detail@boost@@UEAAPEAXXZ
	?get_untyped_deleter@?$sp_counted_impl_p@V?$ParamDescription@V?$basic_string@DU?$char_traits@D@std@@V?$allocator@D@2@@std@@@VideoStreamConfig@video_stream_opencv@@@detail@boost@@UEAAPEAXXZ
	?get_untyped_deleter@?$sp_counted_impl_p@V?$ParamDescription@_N@VideoStreamConfig@video_stream_opencv@@@detail@boost@@UEAAPEAXXZ
	?get_untyped_deleter@?$sp_counted_impl_p@VNodeHandle@ros@@@detail@boost@@UEAAPEAXXZ
	?get_untyped_deleter@?$sp_counted_impl_p@VVideoCapture@cv@@@detail@boost@@UEAAPEAXXZ
	?get_untyped_deleter@?$sp_counted_impl_pd@PEAEU?$checked_array_deleter@E@boost@@@detail@boost@@UEAAPEAXXZ
	?get_untyped_deleter@?$sp_counted_impl_pd@PEAU?$ReconfigureRequest_@V?$allocator@X@std@@@dynamic_reconfigure@@V?$sp_ms_deleter@U?$ReconfigureRequest_@V?$allocator@X@std@@@dynamic_reconfigure@@@detail@boost@@@detail@boost@@UEAAPEAXXZ
	?get_untyped_deleter@?$sp_counted_impl_pd@PEAU?$ReconfigureResponse_@V?$allocator@X@std@@@dynamic_reconfigure@@V?$sp_ms_deleter@U?$ReconfigureResponse_@V?$allocator@X@std@@@dynamic_reconfigure@@@detail@boost@@@detail@boost@@UEAAPEAXXZ
	?get_untyped_deleter@?$sp_counted_impl_pd@PEAV?$Server@VVideoStreamConfig@video_stream_opencv@@@dynamic_reconfigure@@V?$sp_ms_deleter@V?$Server@VVideoStreamConfig@video_stream_opencv@@@dynamic_reconfigure@@@detail@boost@@@detail@boost@@UEAAPEAXXZ
	?get_untyped_deleter@?$sp_counted_impl_pd@PEAV?$ServiceCallbackHelperT@U?$ServiceSpec@U?$ReconfigureRequest_@V?$allocator@X@std@@@dynamic_reconfigure@@U?$ReconfigureResponse_@V?$allocator@X@std@@@2@@ros@@@ros@@V?$sp_ms_deleter@V?$ServiceCallbackHelperT@U?$ServiceSpec@U?$ReconfigureRequest_@V?$allocator@X@std@@@dynamic_reconfigure@@U?$ReconfigureResponse_@V?$allocator@X@std@@@2@@ros@@@ros@@@detail@boost@@@detail@boost@@UEAAPEAXXZ
	?get_untyped_deleter@?$sp_counted_impl_pd@PEAVCvImage@cv_bridge@@V?$sp_ms_deleter@VCvImage@cv_bridge@@@detail@boost@@@detail@boost@@UEAAPEAXXZ
	?get_untyped_deleter@shared_count@detail@boost@@QEBAPEAXXZ
	?get_vtable@?$function0@V?$shared_ptr@U?$ReconfigureRequest_@V?$allocator@X@std@@@dynamic_reconfigure@@@boost@@@boost@@AEBAPEAU?$basic_vtable0@V?$shared_ptr@U?$ReconfigureRequest_@V?$allocator@X@std@@@dynamic_reconfigure@@@boost@@@function@detail@2@XZ
	?get_vtable@?$function0@V?$shared_ptr@U?$ReconfigureResponse_@V?$allocator@X@std@@@dynamic_reconfigure@@@boost@@@boost@@AEBAPEAU?$basic_vtable0@V?$shared_ptr@U?$ReconfigureResponse_@V?$allocator@X@std@@@dynamic_reconfigure@@@boost@@@function@detail@2@XZ
	?get_vtable@?$function0@VSerializedMessage@ros@@@boost@@AEBAPEAU?$basic_vtable0@VSerializedMessage@ros@@@function@detail@2@XZ
	?get_vtable@?$function1@XAEBUTimerEvent@ros@@@boost@@AEBAPEAU?$basic_vtable1@XAEBUTimerEvent@ros@@@function@detail@2@XZ
	?get_vtable@?$function1@XAEBVSingleSubscriberPublisher@image_transport@@@boost@@AEBAPEAU?$basic_vtable1@XAEBVSingleSubscriberPublisher@image_transport@@@function@detail@2@XZ
	?get_vtable@?$function1@XAEBVSingleSubscriberPublisher@ros@@@boost@@AEBAPEAU?$basic_vtable1@XAEBVSingleSubscriberPublisher@ros@@@function@detail@2@XZ
	?get_vtable@?$function2@XAEAVVideoStreamConfig@video_stream_opencv@@I@boost@@AEBAPEAU?$basic_vtable2@XAEAVVideoStreamConfig@video_stream_opencv@@I@function@detail@2@XZ
	?get_vtable@?$function2@_NAEAU?$ReconfigureRequest_@V?$allocator@X@std@@@dynamic_reconfigure@@AEAU?$ReconfigureResponse_@V?$allocator@X@std@@@2@@boost@@AEBAPEAU?$basic_vtable2@_NAEAU?$ReconfigureRequest_@V?$allocator@X@std@@@dynamic_reconfigure@@AEAU?$ReconfigureResponse_@V?$allocator@X@std@@@2@@function@detail@2@XZ
	?has_empty_target@function@detail@boost@@YA_NZZ
	?has_trivial_copy_and_destroy@function_base@boost@@QEBA_NXZ
	?infoConnectionCallback@VideoStreamNodelet@video_stream_opencv@@MEAAXAEBVSingleSubscriberPublisher@ros@@@Z
	?infoDisconnectionCallback@VideoStreamNodelet@video_stream_opencv@@MEAAXAEBVSingleSubscriberPublisher@ros@@@Z
	?init@?$Server@VVideoStreamConfig@video_stream_opencv@@@dynamic_reconfigure@@AEAAXXZ
	?init@_InputArray@cv@@IEAAXHPEBX@Z
	?initialize@?$basic_recursive_mutex_impl@Ubasic_timed_mutex@detail@boost@@@detail@boost@@QEAAXXZ
	?initialize@basic_timed_mutex@detail@boost@@QEAAXXZ
	?interlocked_bit_test_and_set@win32@detail@boost@@YA_NPEAJJ@Z
	?interlocked_read_acquire@detail@boost@@YAJPECJ@Z
	?interlocked_read_acquire@detail@boost@@YAPEAXPECREAX@Z
	?intrusive_ptr_add_ref@detail@boost@@YAXPEAUthread_data_base@12@@Z
	?intrusive_ptr_release@detail@boost@@YAXPEAUthread_data_base@12@@Z
	?invoke@?$function_invoker0@P6A?AV?$shared_ptr@U?$ReconfigureRequest_@V?$allocator@X@std@@@dynamic_reconfigure@@@boost@@XZV12@@function@detail@boost@@SA?AV?$shared_ptr@U?$ReconfigureRequest_@V?$allocator@X@std@@@dynamic_reconfigure@@@4@AEATfunction_buffer@234@@Z
	?invoke@?$function_invoker0@P6A?AV?$shared_ptr@U?$ReconfigureResponse_@V?$allocator@X@std@@@dynamic_reconfigure@@@boost@@XZV12@@function@detail@boost@@SA?AV?$shared_ptr@U?$ReconfigureResponse_@V?$allocator@X@std@@@dynamic_reconfigure@@@4@AEATfunction_buffer@234@@Z
	?invoke@?$function_obj_invoker0@V?$bind_t@VSerializedMessage@ros@@P6A?AV12@AEBU?$ConfigDescription_@V?$allocator@X@std@@@dynamic_reconfigure@@@ZV?$list1@V?$reference_wrapper@$$CBU?$ConfigDescription_@V?$allocator@X@std@@@dynamic_reconfigure@@@boost@@@_bi@boost@@@_bi@boost@@VSerializedMessage@ros@@@function@detail@boost@@SA?AVSerializedMessage@ros@@AEATfunction_buffer@234@@Z
	?invoke@?$function_obj_invoker0@V?$bind_t@VSerializedMessage@ros@@P6A?AV12@AEBU?$Config_@V?$allocator@X@std@@@dynamic_reconfigure@@@ZV?$list1@V?$reference_wrapper@$$CBU?$Config_@V?$allocator@X@std@@@dynamic_reconfigure@@@boost@@@_bi@boost@@@_bi@boost@@VSerializedMessage@ros@@@function@detail@boost@@SA?AVSerializedMessage@ros@@AEATfunction_buffer@234@@Z
	?invoke@?$function_obj_invoker2@V?$bind_t@_NV?$mf2@_NV?$Server@VVideoStreamConfig@video_stream_opencv@@@dynamic_reconfigure@@AEAU?$ReconfigureRequest_@V?$allocator@X@std@@@2@AEAU?$ReconfigureResponse_@V?$allocator@X@std@@@2@@_mfi@boost@@V?$list3@V?$value@PEAV?$Server@VVideoStreamConfig@video_stream_opencv@@@dynamic_reconfigure@@@_bi@boost@@U?$arg@$00@3@U?$arg@$01@3@@_bi@3@@_bi@boost@@_NAEAU?$ReconfigureRequest_@V?$allocator@X@std@@@dynamic_reconfigure@@AEAU?$ReconfigureResponse_@V?$allocator@X@std@@@5@@function@detail@boost@@SA_NAEATfunction_buffer@234@AEAU?$ReconfigureRequest_@V?$allocator@X@std@@@dynamic_reconfigure@@AEAU?$ReconfigureResponse_@V?$allocator@X@std@@@7@@Z
	?invoke@?$void_function_obj_invoker1@V?$bind_t@XV?$mf1@XVVideoStreamNodelet@video_stream_opencv@@AEBUTimerEvent@ros@@@_mfi@boost@@V?$list2@V?$value@PEAVVideoStreamNodelet@video_stream_opencv@@@_bi@boost@@U?$arg@$00@3@@_bi@3@@_bi@boost@@XAEBUTimerEvent@ros@@@function@detail@boost@@SAXAEATfunction_buffer@234@AEBUTimerEvent@ros@@@Z
	?invoke@?$void_function_obj_invoker1@V?$bind_t@XV?$mf1@XVVideoStreamNodelet@video_stream_opencv@@AEBVSingleSubscriberPublisher@image_transport@@@_mfi@boost@@V?$list2@V?$value@PEAVVideoStreamNodelet@video_stream_opencv@@@_bi@boost@@U?$arg@$00@3@@_bi@3@@_bi@boost@@XAEBVSingleSubscriberPublisher@image_transport@@@function@detail@boost@@SAXAEATfunction_buffer@234@AEBVSingleSubscriberPublisher@image_transport@@@Z
	?invoke@?$void_function_obj_invoker1@V?$bind_t@XV?$mf1@XVVideoStreamNodelet@video_stream_opencv@@AEBVSingleSubscriberPublisher@ros@@@_mfi@boost@@V?$list2@V?$value@PEAVVideoStreamNodelet@video_stream_opencv@@@_bi@boost@@U?$arg@$00@3@@_bi@3@@_bi@boost@@XAEBVSingleSubscriberPublisher@ros@@@function@detail@boost@@SAXAEATfunction_buffer@234@AEBVSingleSubscriberPublisher@ros@@@Z
	?invoke@?$void_function_obj_invoker2@V?$bind_t@XV?$mf2@XVVideoStreamNodelet@video_stream_opencv@@AEAVVideoStreamConfig@2@I@_mfi@boost@@V?$list3@V?$value@PEAVVideoStreamNodelet@video_stream_opencv@@@_bi@boost@@U?$arg@$00@3@U?$arg@$01@3@@_bi@3@@_bi@boost@@XAEAVVideoStreamConfig@video_stream_opencv@@I@function@detail@boost@@SAXAEATfunction_buffer@234@AEAVVideoStreamConfig@video_stream_opencv@@I@Z
	?length@?$_Narrow_char_traits@DH@std@@SA_KQEBD@Z
	?line@source_location@boost@@QEBAIXZ
	?lock@?$basic_recursive_mutex_impl@Ubasic_timed_mutex@detail@boost@@@detail@boost@@QEAAXXZ
	?lock@?$unique_lock@Vmutex@boost@@@boost@@QEAAXXZ
	?lock@?$unique_lock@Vrecursive_mutex@boost@@@boost@@QEAAXXZ
	?lock@_Mutex_base@std@@QEAAXXZ
	?lock@basic_timed_mutex@detail@boost@@QEAAXXZ
	?makeKeyValuePair@ConfigTools@dynamic_reconfigure@@SA?AU?$BoolParameter_@V?$allocator@X@std@@@2@AEBV?$basic_string@DU?$char_traits@D@std@@V?$allocator@D@2@@std@@_N@Z
	?makeKeyValuePair@ConfigTools@dynamic_reconfigure@@SA?AU?$DoubleParameter_@V?$allocator@X@std@@@2@AEBV?$basic_string@DU?$char_traits@D@std@@V?$allocator@D@2@@std@@N@Z
	?makeKeyValuePair@ConfigTools@dynamic_reconfigure@@SA?AU?$IntParameter_@V?$allocator@X@std@@@2@AEBV?$basic_string@DU?$char_traits@D@std@@V?$allocator@D@2@@std@@H@Z
	?makeKeyValuePair@ConfigTools@dynamic_reconfigure@@SA?AU?$StrParameter_@V?$allocator@X@std@@@2@AEBV?$basic_string@DU?$char_traits@D@std@@V?$allocator@D@2@@std@@0@Z
	?make_error_condition@errc@system@boost@@YA?AVerror_condition@23@W4errc_t@123@@Z
	?manage@?$functor_manager@P6A?AV?$shared_ptr@U?$ReconfigureRequest_@V?$allocator@X@std@@@dynamic_reconfigure@@@boost@@XZ@function@detail@boost@@SAXAEBTfunction_buffer@234@AEAT5234@W4functor_manager_operation_type@234@@Z
	?manage@?$functor_manager@P6A?AV?$shared_ptr@U?$ReconfigureResponse_@V?$allocator@X@std@@@dynamic_reconfigure@@@boost@@XZ@function@detail@boost@@SAXAEBTfunction_buffer@234@AEAT5234@W4functor_manager_operation_type@234@@Z
	?manage@?$functor_manager@V?$bind_t@VSerializedMessage@ros@@P6A?AV12@AEBU?$ConfigDescription_@V?$allocator@X@std@@@dynamic_reconfigure@@@ZV?$list1@V?$reference_wrapper@$$CBU?$ConfigDescription_@V?$allocator@X@std@@@dynamic_reconfigure@@@boost@@@_bi@boost@@@_bi@boost@@@function@detail@boost@@SAXAEBTfunction_buffer@234@AEAT5234@W4functor_manager_operation_type@234@@Z
	?manage@?$functor_manager@V?$bind_t@VSerializedMessage@ros@@P6A?AV12@AEBU?$Config_@V?$allocator@X@std@@@dynamic_reconfigure@@@ZV?$list1@V?$reference_wrapper@$$CBU?$Config_@V?$allocator@X@std@@@dynamic_reconfigure@@@boost@@@_bi@boost@@@_bi@boost@@@function@detail@boost@@SAXAEBTfunction_buffer@234@AEAT5234@W4functor_manager_operation_type@234@@Z
	?manage@?$functor_manager@V?$bind_t@XV?$mf1@XVVideoStreamNodelet@video_stream_opencv@@AEBUTimerEvent@ros@@@_mfi@boost@@V?$list2@V?$value@PEAVVideoStreamNodelet@video_stream_opencv@@@_bi@boost@@U?$arg@$00@3@@_bi@3@@_bi@boost@@@function@detail@boost@@SAXAEBTfunction_buffer@234@AEAT5234@W4functor_manager_operation_type@234@@Z
	?manage@?$functor_manager@V?$bind_t@XV?$mf1@XVVideoStreamNodelet@video_stream_opencv@@AEBVSingleSubscriberPublisher@image_transport@@@_mfi@boost@@V?$list2@V?$value@PEAVVideoStreamNodelet@video_stream_opencv@@@_bi@boost@@U?$arg@$00@3@@_bi@3@@_bi@boost@@@function@detail@boost@@SAXAEBTfunction_buffer@234@AEAT5234@W4functor_manager_operation_type@234@@Z
	?manage@?$functor_manager@V?$bind_t@XV?$mf1@XVVideoStreamNodelet@video_stream_opencv@@AEBVSingleSubscriberPublisher@ros@@@_mfi@boost@@V?$list2@V?$value@PEAVVideoStreamNodelet@video_stream_opencv@@@_bi@boost@@U?$arg@$00@3@@_bi@3@@_bi@boost@@@function@detail@boost@@SAXAEBTfunction_buffer@234@AEAT5234@W4functor_manager_operation_type@234@@Z
	?manage@?$functor_manager@V?$bind_t@XV?$mf2@XVVideoStreamNodelet@video_stream_opencv@@AEAVVideoStreamConfig@2@I@_mfi@boost@@V?$list3@V?$value@PEAVVideoStreamNodelet@video_stream_opencv@@@_bi@boost@@U?$arg@$00@3@U?$arg@$01@3@@_bi@3@@_bi@boost@@@function@detail@boost@@SAXAEBTfunction_buffer@234@AEAT5234@W4functor_manager_operation_type@234@@Z
	?manage@?$functor_manager@V?$bind_t@_NV?$mf2@_NV?$Server@VVideoStreamConfig@video_stream_opencv@@@dynamic_reconfigure@@AEAU?$ReconfigureRequest_@V?$allocator@X@std@@@2@AEAU?$ReconfigureResponse_@V?$allocator@X@std@@@2@@_mfi@boost@@V?$list3@V?$value@PEAV?$Server@VVideoStreamConfig@video_stream_opencv@@@dynamic_reconfigure@@@_bi@boost@@U?$arg@$00@3@U?$arg@$01@3@@_bi@3@@_bi@boost@@@function@detail@boost@@SAXAEBTfunction_buffer@234@AEAT5234@W4functor_manager_operation_type@234@@Z
	?manage_ptr@?$functor_manager_common@P6A?AV?$shared_ptr@U?$ReconfigureRequest_@V?$allocator@X@std@@@dynamic_reconfigure@@@boost@@XZ@function@detail@boost@@SAXAEBTfunction_buffer@234@AEAT5234@W4functor_manager_operation_type@234@@Z
	?manage_ptr@?$functor_manager_common@P6A?AV?$shared_ptr@U?$ReconfigureResponse_@V?$allocator@X@std@@@dynamic_reconfigure@@@boost@@XZ@function@detail@boost@@SAXAEBTfunction_buffer@234@AEAT5234@W4functor_manager_operation_type@234@@Z
	?manage_small@?$functor_manager_common@V?$bind_t@VSerializedMessage@ros@@P6A?AV12@AEBU?$ConfigDescription_@V?$allocator@X@std@@@dynamic_reconfigure@@@ZV?$list1@V?$reference_wrapper@$$CBU?$ConfigDescription_@V?$allocator@X@std@@@dynamic_reconfigure@@@boost@@@_bi@boost@@@_bi@boost@@@function@detail@boost@@SAXAEBTfunction_buffer@234@AEAT5234@W4functor_manager_operation_type@234@@Z
	?manage_small@?$functor_manager_common@V?$bind_t@VSerializedMessage@ros@@P6A?AV12@AEBU?$Config_@V?$allocator@X@std@@@dynamic_reconfigure@@@ZV?$list1@V?$reference_wrapper@$$CBU?$Config_@V?$allocator@X@std@@@dynamic_reconfigure@@@boost@@@_bi@boost@@@_bi@boost@@@function@detail@boost@@SAXAEBTfunction_buffer@234@AEAT5234@W4functor_manager_operation_type@234@@Z
	?manage_small@?$functor_manager_common@V?$bind_t@XV?$mf1@XVVideoStreamNodelet@video_stream_opencv@@AEBUTimerEvent@ros@@@_mfi@boost@@V?$list2@V?$value@PEAVVideoStreamNodelet@video_stream_opencv@@@_bi@boost@@U?$arg@$00@3@@_bi@3@@_bi@boost@@@function@detail@boost@@SAXAEBTfunction_buffer@234@AEAT5234@W4functor_manager_operation_type@234@@Z
	?manage_small@?$functor_manager_common@V?$bind_t@XV?$mf1@XVVideoStreamNodelet@video_stream_opencv@@AEBVSingleSubscriberPublisher@image_transport@@@_mfi@boost@@V?$list2@V?$value@PEAVVideoStreamNodelet@video_stream_opencv@@@_bi@boost@@U?$arg@$00@3@@_bi@3@@_bi@boost@@@function@detail@boost@@SAXAEBTfunction_buffer@234@AEAT5234@W4functor_manager_operation_type@234@@Z
	?manage_small@?$functor_manager_common@V?$bind_t@XV?$mf1@XVVideoStreamNodelet@video_stream_opencv@@AEBVSingleSubscriberPublisher@ros@@@_mfi@boost@@V?$list2@V?$value@PEAVVideoStreamNodelet@video_stream_opencv@@@_bi@boost@@U?$arg@$00@3@@_bi@3@@_bi@boost@@@function@detail@boost@@SAXAEBTfunction_buffer@234@AEAT5234@W4functor_manager_operation_type@234@@Z
	?manage_small@?$functor_manager_common@V?$bind_t@XV?$mf2@XVVideoStreamNodelet@video_stream_opencv@@AEAVVideoStreamConfig@2@I@_mfi@boost@@V?$list3@V?$value@PEAVVideoStreamNodelet@video_stream_opencv@@@_bi@boost@@U?$arg@$00@3@U?$arg@$01@3@@_bi@3@@_bi@boost@@@function@detail@boost@@SAXAEBTfunction_buffer@234@AEAT5234@W4functor_manager_operation_type@234@@Z
	?manage_small@?$functor_manager_common@V?$bind_t@_NV?$mf2@_NV?$Server@VVideoStreamConfig@video_stream_opencv@@@dynamic_reconfigure@@AEAU?$ReconfigureRequest_@V?$allocator@X@std@@@2@AEAU?$ReconfigureResponse_@V?$allocator@X@std@@@2@@_mfi@boost@@V?$list3@V?$value@PEAV?$Server@VVideoStreamConfig@video_stream_opencv@@@dynamic_reconfigure@@@_bi@boost@@U?$arg@$00@3@U?$arg@$01@3@@_bi@3@@_bi@boost@@@function@detail@boost@@SAXAEBTfunction_buffer@234@AEAT5234@W4functor_manager_operation_type@234@@Z
	?manager@?$functor_manager@P6A?AV?$shared_ptr@U?$ReconfigureRequest_@V?$allocator@X@std@@@dynamic_reconfigure@@@boost@@XZ@function@detail@boost@@CAXAEBTfunction_buffer@234@AEAT5234@W4functor_manager_operation_type@234@Ufunction_ptr_tag@234@@Z
	?manager@?$functor_manager@P6A?AV?$shared_ptr@U?$ReconfigureResponse_@V?$allocator@X@std@@@dynamic_reconfigure@@@boost@@XZ@function@detail@boost@@CAXAEBTfunction_buffer@234@AEAT5234@W4functor_manager_operation_type@234@Ufunction_ptr_tag@234@@Z
	?manager@?$functor_manager@V?$bind_t@VSerializedMessage@ros@@P6A?AV12@AEBU?$ConfigDescription_@V?$allocator@X@std@@@dynamic_reconfigure@@@ZV?$list1@V?$reference_wrapper@$$CBU?$ConfigDescription_@V?$allocator@X@std@@@dynamic_reconfigure@@@boost@@@_bi@boost@@@_bi@boost@@@function@detail@boost@@CAXAEBTfunction_buffer@234@AEAT5234@W4functor_manager_operation_type@234@U?$integral_constant@_N$00@4@@Z
	?manager@?$functor_manager@V?$bind_t@VSerializedMessage@ros@@P6A?AV12@AEBU?$ConfigDescription_@V?$allocator@X@std@@@dynamic_reconfigure@@@ZV?$list1@V?$reference_wrapper@$$CBU?$ConfigDescription_@V?$allocator@X@std@@@dynamic_reconfigure@@@boost@@@_bi@boost@@@_bi@boost@@@function@detail@boost@@CAXAEBTfunction_buffer@234@AEAT5234@W4functor_manager_operation_type@234@Ufunction_obj_tag@234@@Z
	?manager@?$functor_manager@V?$bind_t@VSerializedMessage@ros@@P6A?AV12@AEBU?$Config_@V?$allocator@X@std@@@dynamic_reconfigure@@@ZV?$list1@V?$reference_wrapper@$$CBU?$Config_@V?$allocator@X@std@@@dynamic_reconfigure@@@boost@@@_bi@boost@@@_bi@boost@@@function@detail@boost@@CAXAEBTfunction_buffer@234@AEAT5234@W4functor_manager_operation_type@234@U?$integral_constant@_N$00@4@@Z
	?manager@?$functor_manager@V?$bind_t@VSerializedMessage@ros@@P6A?AV12@AEBU?$Config_@V?$allocator@X@std@@@dynamic_reconfigure@@@ZV?$list1@V?$reference_wrapper@$$CBU?$Config_@V?$allocator@X@std@@@dynamic_reconfigure@@@boost@@@_bi@boost@@@_bi@boost@@@function@detail@boost@@CAXAEBTfunction_buffer@234@AEAT5234@W4functor_manager_operation_type@234@Ufunction_obj_tag@234@@Z
	?manager@?$functor_manager@V?$bind_t@XV?$mf1@XVVideoStreamNodelet@video_stream_opencv@@AEBUTimerEvent@ros@@@_mfi@boost@@V?$list2@V?$value@PEAVVideoStreamNodelet@video_stream_opencv@@@_bi@boost@@U?$arg@$00@3@@_bi@3@@_bi@boost@@@function@detail@boost@@CAXAEBTfunction_buffer@234@AEAT5234@W4functor_manager_operation_type@234@U?$integral_constant@_N$00@4@@Z
	?manager@?$functor_manager@V?$bind_t@XV?$mf1@XVVideoStreamNodelet@video_stream_opencv@@AEBUTimerEvent@ros@@@_mfi@boost@@V?$list2@V?$value@PEAVVideoStreamNodelet@video_stream_opencv@@@_bi@boost@@U?$arg@$00@3@@_bi@3@@_bi@boost@@@function@detail@boost@@CAXAEBTfunction_buffer@234@AEAT5234@W4functor_manager_operation_type@234@Ufunction_obj_tag@234@@Z
	?manager@?$functor_manager@V?$bind_t@XV?$mf1@XVVideoStreamNodelet@video_stream_opencv@@AEBVSingleSubscriberPublisher@image_transport@@@_mfi@boost@@V?$list2@V?$value@PEAVVideoStreamNodelet@video_stream_opencv@@@_bi@boost@@U?$arg@$00@3@@_bi@3@@_bi@boost@@@function@detail@boost@@CAXAEBTfunction_buffer@234@AEAT5234@W4functor_manager_operation_type@234@U?$integral_constant@_N$00@4@@Z
	?manager@?$functor_manager@V?$bind_t@XV?$mf1@XVVideoStreamNodelet@video_stream_opencv@@AEBVSingleSubscriberPublisher@image_transport@@@_mfi@boost@@V?$list2@V?$value@PEAVVideoStreamNodelet@video_stream_opencv@@@_bi@boost@@U?$arg@$00@3@@_bi@3@@_bi@boost@@@function@detail@boost@@CAXAEBTfunction_buffer@234@AEAT5234@W4functor_manager_operation_type@234@Ufunction_obj_tag@234@@Z
	?manager@?$functor_manager@V?$bind_t@XV?$mf1@XVVideoStreamNodelet@video_stream_opencv@@AEBVSingleSubscriberPublisher@ros@@@_mfi@boost@@V?$list2@V?$value@PEAVVideoStreamNodelet@video_stream_opencv@@@_bi@boost@@U?$arg@$00@3@@_bi@3@@_bi@boost@@@function@detail@boost@@CAXAEBTfunction_buffer@234@AEAT5234@W4functor_manager_operation_type@234@U?$integral_constant@_N$00@4@@Z
	?manager@?$functor_manager@V?$bind_t@XV?$mf1@XVVideoStreamNodelet@video_stream_opencv@@AEBVSingleSubscriberPublisher@ros@@@_mfi@boost@@V?$list2@V?$value@PEAVVideoStreamNodelet@video_stream_opencv@@@_bi@boost@@U?$arg@$00@3@@_bi@3@@_bi@boost@@@function@detail@boost@@CAXAEBTfunction_buffer@234@AEAT5234@W4functor_manager_operation_type@234@Ufunction_obj_tag@234@@Z
	?manager@?$functor_manager@V?$bind_t@XV?$mf2@XVVideoStreamNodelet@video_stream_opencv@@AEAVVideoStreamConfig@2@I@_mfi@boost@@V?$list3@V?$value@PEAVVideoStreamNodelet@video_stream_opencv@@@_bi@boost@@U?$arg@$00@3@U?$arg@$01@3@@_bi@3@@_bi@boost@@@function@detail@boost@@CAXAEBTfunction_buffer@234@AEAT5234@W4functor_manager_operation_type@234@U?$integral_constant@_N$00@4@@Z
	?manager@?$functor_manager@V?$bind_t@XV?$mf2@XVVideoStreamNodelet@video_stream_opencv@@AEAVVideoStreamConfig@2@I@_mfi@boost@@V?$list3@V?$value@PEAVVideoStreamNodelet@video_stream_opencv@@@_bi@boost@@U?$arg@$00@3@U?$arg@$01@3@@_bi@3@@_bi@boost@@@function@detail@boost@@CAXAEBTfunction_buffer@234@AEAT5234@W4functor_manager_operation_type@234@Ufunction_obj_tag@234@@Z
	?manager@?$functor_manager@V?$bind_t@_NV?$mf2@_NV?$Server@VVideoStreamConfig@video_stream_opencv@@@dynamic_reconfigure@@AEAU?$ReconfigureRequest_@V?$allocator@X@std@@@2@AEAU?$ReconfigureResponse_@V?$allocator@X@std@@@2@@_mfi@boost@@V?$list3@V?$value@PEAV?$Server@VVideoStreamConfig@video_stream_opencv@@@dynamic_reconfigure@@@_bi@boost@@U?$arg@$00@3@U?$arg@$01@3@@_bi@3@@_bi@boost@@@function@detail@boost@@CAXAEBTfunction_buffer@234@AEAT5234@W4functor_manager_operation_type@234@U?$integral_constant@_N$00@4@@Z
	?manager@?$functor_manager@V?$bind_t@_NV?$mf2@_NV?$Server@VVideoStreamConfig@video_stream_opencv@@@dynamic_reconfigure@@AEAU?$ReconfigureRequest_@V?$allocator@X@std@@@2@AEAU?$ReconfigureResponse_@V?$allocator@X@std@@@2@@_mfi@boost@@V?$list3@V?$value@PEAV?$Server@VVideoStreamConfig@video_stream_opencv@@@dynamic_reconfigure@@@_bi@boost@@U?$arg@$00@3@U?$arg@$01@3@@_bi@3@@_bi@boost@@@function@detail@boost@@CAXAEBTfunction_buffer@234@AEAT5234@W4functor_manager_operation_type@234@Ufunction_obj_tag@234@@Z
	?mark_waiting_and_try_lock@basic_timed_mutex@detail@boost@@QEAAXAEAJ@Z
	?max@?$numeric_limits@_J@std@@SA_JXZ
	?max_size@?$_Default_allocator_traits@V?$allocator@D@std@@@std@@SA_KAEBV?$allocator@D@2@@Z
	?max_size@?$_Default_allocator_traits@V?$allocator@N@std@@@std@@SA_KAEBV?$allocator@N@2@@Z
	?max_size@?$_Default_allocator_traits@V?$allocator@U?$BoolParameter_@V?$allocator@X@std@@@dynamic_reconfigure@@@std@@@std@@SA_KAEBV?$allocator@U?$BoolParameter_@V?$allocator@X@std@@@dynamic_reconfigure@@@2@@Z
	?max_size@?$_Default_allocator_traits@V?$allocator@U?$DoubleParameter_@V?$allocator@X@std@@@dynamic_reconfigure@@@std@@@std@@SA_KAEBV?$allocator@U?$DoubleParameter_@V?$allocator@X@std@@@dynamic_reconfigure@@@2@@Z
	?max_size@?$_Default_allocator_traits@V?$allocator@U?$GroupState_@V?$allocator@X@std@@@dynamic_reconfigure@@@std@@@std@@SA_KAEBV?$allocator@U?$GroupState_@V?$allocator@X@std@@@dynamic_reconfigure@@@2@@Z
	?max_size@?$_Default_allocator_traits@V?$allocator@U?$Group_@V?$allocator@X@std@@@dynamic_reconfigure@@@std@@@std@@SA_KAEBV?$allocator@U?$Group_@V?$allocator@X@std@@@dynamic_reconfigure@@@2@@Z
	?max_size@?$_Default_allocator_traits@V?$allocator@U?$IntParameter_@V?$allocator@X@std@@@dynamic_reconfigure@@@std@@@std@@SA_KAEBV?$allocator@U?$IntParameter_@V?$allocator@X@std@@@dynamic_reconfigure@@@2@@Z
	?max_size@?$_Default_allocator_traits@V?$allocator@U?$ParamDescription_@V?$allocator@X@std@@@dynamic_reconfigure@@@std@@@std@@SA_KAEBV?$allocator@U?$ParamDescription_@V?$allocator@X@std@@@dynamic_reconfigure@@@2@@Z
	?max_size@?$_Default_allocator_traits@V?$allocator@U?$StrParameter_@V?$allocator@X@std@@@dynamic_reconfigure@@@std@@@std@@SA_KAEBV?$allocator@U?$StrParameter_@V?$allocator@X@std@@@dynamic_reconfigure@@@2@@Z
	?max_size@?$_Default_allocator_traits@V?$allocator@U?$_Tree_node@U?$pair@$$CBV?$basic_string@DU?$char_traits@D@std@@V?$allocator@D@2@@std@@PEAVAbstractMetaObjectBase@impl@class_loader@@@std@@PEAX@std@@@std@@@std@@SA_KAEBV?$allocator@U?$_Tree_node@U?$pair@$$CBV?$basic_string@DU?$char_traits@D@std@@V?$allocator@D@2@@std@@PEAVAbstractMetaObjectBase@impl@class_loader@@@std@@PEAX@std@@@2@@Z
	?max_size@?$_Default_allocator_traits@V?$allocator@V?$shared_ptr@$$CBVAbstractGroupDescription@VideoStreamConfig@video_stream_opencv@@@boost@@@std@@@std@@SA_KAEBV?$allocator@V?$shared_ptr@$$CBVAbstractGroupDescription@VideoStreamConfig@video_stream_opencv@@@boost@@@2@@Z
	?max_size@?$_Default_allocator_traits@V?$allocator@V?$shared_ptr@$$CBVAbstractParamDescription@VideoStreamConfig@video_stream_opencv@@@boost@@@std@@@std@@SA_KAEBV?$allocator@V?$shared_ptr@$$CBVAbstractParamDescription@VideoStreamConfig@video_stream_opencv@@@boost@@@2@@Z
	?max_size@?$_Default_allocator_traits@V?$allocator@VMat@cv@@@std@@@std@@SA_KAEBV?$allocator@VMat@cv@@@2@@Z
	?max_size@?$_Tree@V?$_Tmap_traits@V?$basic_string@DU?$char_traits@D@std@@V?$allocator@D@2@@std@@PEAVAbstractMetaObjectBase@impl@class_loader@@U?$less@V?$basic_string@DU?$char_traits@D@std@@V?$allocator@D@2@@std@@@2@V?$allocator@U?$pair@$$CBV?$basic_string@DU?$char_traits@D@std@@V?$allocator@D@2@@std@@PEAVAbstractMetaObjectBase@impl@class_loader@@@std@@@2@$0A@@std@@@std@@QEBA_KXZ
	?max_size@?$basic_string@DU?$char_traits@D@std@@V?$allocator@D@2@@std@@QEBA_KXZ
	?max_size@?$deque@NV?$allocator@N@std@@@std@@QEBA_KXZ
	?max_size@?$deque@VMat@cv@@V?$allocator@VMat@cv@@@std@@@std@@QEBA_KXZ
	?max_size@?$vector@NV?$allocator@N@std@@@std@@QEBA_KXZ
	?max_size@?$vector@U?$BoolParameter_@V?$allocator@X@std@@@dynamic_reconfigure@@V?$allocator@U?$BoolParameter_@V?$allocator@X@std@@@dynamic_reconfigure@@@std@@@std@@QEBA_KXZ
	?max_size@?$vector@U?$DoubleParameter_@V?$allocator@X@std@@@dynamic_reconfigure@@V?$allocator@U?$DoubleParameter_@V?$allocator@X@std@@@dynamic_reconfigure@@@std@@@std@@QEBA_KXZ
	?max_size@?$vector@U?$GroupState_@V?$allocator@X@std@@@dynamic_reconfigure@@V?$allocator@U?$GroupState_@V?$allocator@X@std@@@dynamic_reconfigure@@@std@@@std@@QEBA_KXZ
	?max_size@?$vector@U?$Group_@V?$allocator@X@std@@@dynamic_reconfigure@@V?$allocator@U?$Group_@V?$allocator@X@std@@@dynamic_reconfigure@@@std@@@std@@QEBA_KXZ
	?max_size@?$vector@U?$IntParameter_@V?$allocator@X@std@@@dynamic_reconfigure@@V?$allocator@U?$IntParameter_@V?$allocator@X@std@@@dynamic_reconfigure@@@std@@@std@@QEBA_KXZ
	?max_size@?$vector@U?$ParamDescription_@V?$allocator@X@std@@@dynamic_reconfigure@@V?$allocator@U?$ParamDescription_@V?$allocator@X@std@@@dynamic_reconfigure@@@std@@@std@@QEBA_KXZ
	?max_size@?$vector@U?$StrParameter_@V?$allocator@X@std@@@dynamic_reconfigure@@V?$allocator@U?$StrParameter_@V?$allocator@X@std@@@dynamic_reconfigure@@@std@@@std@@QEBA_KXZ
	?max_size@?$vector@V?$shared_ptr@$$CBVAbstractGroupDescription@VideoStreamConfig@video_stream_opencv@@@boost@@V?$allocator@V?$shared_ptr@$$CBVAbstractGroupDescription@VideoStreamConfig@video_stream_opencv@@@boost@@@std@@@std@@QEBA_KXZ
	?max_size@?$vector@V?$shared_ptr@$$CBVAbstractParamDescription@VideoStreamConfig@video_stream_opencv@@@boost@@V?$allocator@V?$shared_ptr@$$CBVAbstractParamDescription@VideoStreamConfig@video_stream_opencv@@@boost@@@std@@@std@@QEBA_KXZ
	?message@error_code@system@boost@@QEBA?AV?$basic_string@DU?$char_traits@D@std@@V?$allocator@D@2@@std@@XZ
	?message@generic_error_category@detail@system@boost@@UEBA?AV?$basic_string@DU?$char_traits@D@std@@V?$allocator@D@2@@std@@H@Z
	?message@generic_error_category@detail@system@boost@@UEBAPEBDHPEAD_K@Z
	?message@system_error_category@detail@system@boost@@UEBA?AV?$basic_string@DU?$char_traits@D@std@@V?$allocator@D@2@@std@@H@Z
	?message@system_error_category@detail@system@boost@@UEBAPEBDHPEAD_K@Z
	?message_cp_win32@detail@system@boost@@YAIXZ
	?move@?$_Char_traits@DH@std@@SAPEADQEADQEBD_K@Z
	?move_assign@?$function1@XAEBVSingleSubscriberPublisher@ros@@@boost@@AEAAXAEAV12@@Z
	?move_assign@?$function2@XAEAVVideoStreamConfig@video_stream_opencv@@I@boost@@AEAAXAEAV12@@Z
	?name@generic_error_category@detail@system@boost@@UEBAPEBDXZ
	?name@system_error_category@detail@system@boost@@UEBAPEBDXZ
	?name@type_info@@QEBAPEBDXZ
	?nonnull@dummy@?$function2@XAEAVVideoStreamConfig@video_stream_opencv@@I@boost@@QEAAXXZ
	?not_eof@?$_Narrow_char_traits@DH@std@@SAHAEBH@Z
	?onInit@VideoStreamNodelet@video_stream_opencv@@MEAAXXZ
	?operator_fn@?$sp_ms_deleter@U?$ReconfigureRequest_@V?$allocator@X@std@@@dynamic_reconfigure@@@detail@boost@@SAXPEAU?$ReconfigureRequest_@V?$allocator@X@std@@@dynamic_reconfigure@@@Z
	?operator_fn@?$sp_ms_deleter@U?$ReconfigureResponse_@V?$allocator@X@std@@@dynamic_reconfigure@@@detail@boost@@SAXPEAU?$ReconfigureResponse_@V?$allocator@X@std@@@dynamic_reconfigure@@@Z
	?operator_fn@?$sp_ms_deleter@V?$Server@VVideoStreamConfig@video_stream_opencv@@@dynamic_reconfigure@@@detail@boost@@SAXPEAV?$Server@VVideoStreamConfig@video_stream_opencv@@@dynamic_reconfigure@@@Z
	?operator_fn@?$sp_ms_deleter@V?$ServiceCallbackHelperT@U?$ServiceSpec@U?$ReconfigureRequest_@V?$allocator@X@std@@@dynamic_reconfigure@@U?$ReconfigureResponse_@V?$allocator@X@std@@@2@@ros@@@ros@@@detail@boost@@SAXPEAV?$ServiceCallbackHelperT@U?$ServiceSpec@U?$ReconfigureRequest_@V?$allocator@X@std@@@dynamic_reconfigure@@U?$ReconfigureResponse_@V?$allocator@X@std@@@2@@ros@@@ros@@@Z
	?operator_fn@?$sp_ms_deleter@VCvImage@cv_bridge@@@detail@boost@@SAXPEAVCvImage@cv_bridge@@@Z
	?overflow@?$basic_stringbuf@DU?$char_traits@D@std@@V?$allocator@D@2@@std@@MEAAHH@Z
	?owns_lock@?$unique_lock@Vmutex@boost@@@boost@@QEBA_NXZ
	?owns_lock@?$unique_lock@Vrecursive_mutex@boost@@@boost@@QEBA_NXZ
	?pbackfail@?$basic_stringbuf@DU?$char_traits@D@std@@V?$allocator@D@2@@std@@MEAAHH@Z
	?pointer_to@?$pointer_traits@PEAD@std@@SAPEADAEAD@Z
	?pop@?$queue@VMat@cv@@V?$deque@VMat@cv@@V?$allocator@VMat@cv@@@std@@@std@@@std@@QEAAXXZ
	?pop_back@?$deque@NV?$allocator@N@std@@@std@@QEAAXXZ
	?pop_back@?$deque@VMat@cv@@V?$allocator@VMat@cv@@@std@@@std@@QEAAXXZ
	?pop_front@?$deque@VMat@cv@@V?$allocator@VMat@cv@@@std@@@std@@QEAAXXZ
	?push@?$queue@VMat@cv@@V?$deque@VMat@cv@@V?$allocator@VMat@cv@@@std@@@std@@@std@@QEAAX$$QEAVMat@cv@@@Z
	?push_back@?$deque@NV?$allocator@N@std@@@std@@QEAAX$$QEAN@Z
	?push_back@?$deque@VMat@cv@@V?$allocator@VMat@cv@@@std@@@std@@QEAAX$$QEAVMat@cv@@@Z
	?push_back@?$generic_list@N@assign_detail@boost@@AEAAX$$QEAN@Z
	?push_back@?$vector@U?$BoolParameter_@V?$allocator@X@std@@@dynamic_reconfigure@@V?$allocator@U?$BoolParameter_@V?$allocator@X@std@@@dynamic_reconfigure@@@std@@@std@@QEAAX$$QEAU?$BoolParameter_@V?$allocator@X@std@@@dynamic_reconfigure@@@Z
	?push_back@?$vector@U?$DoubleParameter_@V?$allocator@X@std@@@dynamic_reconfigure@@V?$allocator@U?$DoubleParameter_@V?$allocator@X@std@@@dynamic_reconfigure@@@std@@@std@@QEAAX$$QEAU?$DoubleParameter_@V?$allocator@X@std@@@dynamic_reconfigure@@@Z
	?push_back@?$vector@U?$GroupState_@V?$allocator@X@std@@@dynamic_reconfigure@@V?$allocator@U?$GroupState_@V?$allocator@X@std@@@dynamic_reconfigure@@@std@@@std@@QEAAXAEBU?$GroupState_@V?$allocator@X@std@@@dynamic_reconfigure@@@Z
	?push_back@?$vector@U?$Group_@V?$allocator@X@std@@@dynamic_reconfigure@@V?$allocator@U?$Group_@V?$allocator@X@std@@@dynamic_reconfigure@@@std@@@std@@QEAAXAEBU?$Group_@V?$allocator@X@std@@@dynamic_reconfigure@@@Z
	?push_back@?$vector@U?$IntParameter_@V?$allocator@X@std@@@dynamic_reconfigure@@V?$allocator@U?$IntParameter_@V?$allocator@X@std@@@dynamic_reconfigure@@@std@@@std@@QEAAX$$QEAU?$IntParameter_@V?$allocator@X@std@@@dynamic_reconfigure@@@Z
	?push_back@?$vector@U?$ParamDescription_@V?$allocator@X@std@@@dynamic_reconfigure@@V?$allocator@U?$ParamDescription_@V?$allocator@X@std@@@dynamic_reconfigure@@@std@@@std@@QEAAX$$QEAU?$ParamDescription_@V?$allocator@X@std@@@dynamic_reconfigure@@@Z
	?push_back@?$vector@U?$StrParameter_@V?$allocator@X@std@@@dynamic_reconfigure@@V?$allocator@U?$StrParameter_@V?$allocator@X@std@@@dynamic_reconfigure@@@std@@@std@@QEAAX$$QEAU?$StrParameter_@V?$allocator@X@std@@@dynamic_reconfigure@@@Z
	?push_back@?$vector@V?$shared_ptr@$$CBVAbstractGroupDescription@VideoStreamConfig@video_stream_opencv@@@boost@@V?$allocator@V?$shared_ptr@$$CBVAbstractGroupDescription@VideoStreamConfig@video_stream_opencv@@@boost@@@std@@@std@@QEAAX$$QEAV?$shared_ptr@$$CBVAbstractGroupDescription@VideoStreamConfig@video_stream_opencv@@@boost@@@Z
	?push_back@?$vector@V?$shared_ptr@$$CBVAbstractParamDescription@VideoStreamConfig@video_stream_opencv@@@boost@@V?$allocator@V?$shared_ptr@$$CBVAbstractParamDescription@VideoStreamConfig@video_stream_opencv@@@boost@@@std@@@std@@QEAAX$$QEAV?$shared_ptr@$$CBVAbstractParamDescription@VideoStreamConfig@video_stream_opencv@@@boost@@@Z
	?release@?$ostream_guard@DU?$char_traits@D@std@@@detail@io@boost@@QEAAXXZ
	?release@?$refcount_ptr@Uerror_info_container@exception_detail@boost@@@exception_detail@boost@@AEAAXXZ
	?release@Mat@cv@@QEAAXXZ
	?release@sp_counted_base@detail@boost@@QEAAXXZ
	?reset@?$shared_ptr@VVideoCapture@cv@@@boost@@QEAAXXZ
	?resize@?$basic_string@DU?$char_traits@D@std@@V?$allocator@D@2@@std@@QEAAX_KD@Z
	?resize@?$vector@NV?$allocator@N@std@@@std@@QEAAX_KAEBN@Z
	?resize@?$vector@U?$BoolParameter_@V?$allocator@X@std@@@dynamic_reconfigure@@V?$allocator@U?$BoolParameter_@V?$allocator@X@std@@@dynamic_reconfigure@@@std@@@std@@QEAAX_K@Z
	?resize@?$vector@U?$DoubleParameter_@V?$allocator@X@std@@@dynamic_reconfigure@@V?$allocator@U?$DoubleParameter_@V?$allocator@X@std@@@dynamic_reconfigure@@@std@@@std@@QEAAX_K@Z
	?resize@?$vector@U?$GroupState_@V?$allocator@X@std@@@dynamic_reconfigure@@V?$allocator@U?$GroupState_@V?$allocator@X@std@@@dynamic_reconfigure@@@std@@@std@@QEAAX_K@Z
	?resize@?$vector@U?$IntParameter_@V?$allocator@X@std@@@dynamic_reconfigure@@V?$allocator@U?$IntParameter_@V?$allocator@X@std@@@dynamic_reconfigure@@@std@@@std@@QEAAX_K@Z
	?resize@?$vector@U?$StrParameter_@V?$allocator@X@std@@@dynamic_reconfigure@@V?$allocator@U?$StrParameter_@V?$allocator@X@std@@@dynamic_reconfigure@@@std@@@std@@QEAAX_K@Z
	?rethrow@?$wrapexcept@Vassignment_exception@assign@boost@@@boost@@UEBAXXZ
	?rethrow@?$wrapexcept@Vbad_alloc@std@@@boost@@UEBAXXZ
	?rethrow@?$wrapexcept@Vbad_any_cast@boost@@@boost@@UEBAXXZ
	?rethrow@?$wrapexcept@Vbad_function_call@boost@@@boost@@UEBAXXZ
	?rethrow@?$wrapexcept@Vlock_error@boost@@@boost@@UEBAXXZ
	?rethrow@?$wrapexcept@Vthread_resource_error@boost@@@boost@@UEBAXXZ
	?run@?$thread_data@V?$bind_t@XV?$mf0@XVVideoStreamNodelet@video_stream_opencv@@@_mfi@boost@@V?$list1@V?$value@PEAVVideoStreamNodelet@video_stream_opencv@@@_bi@boost@@@_bi@3@@_bi@boost@@@detail@boost@@UEAAXXZ
	?seekoff@?$basic_stringbuf@DU?$char_traits@D@std@@V?$allocator@D@2@@std@@MEAA?AV?$fpos@U_Mbstatet@@@2@_JHH@Z
	?seekpos@?$basic_stringbuf@DU?$char_traits@D@std@@V?$allocator@D@2@@std@@MEAA?AV?$fpos@U_Mbstatet@@@2@V32@H@Z
	?select_on_container_copy_construction@?$_Default_allocator_traits@V?$allocator@D@std@@@std@@SA?AV?$allocator@D@2@AEBV32@@Z
	?select_on_container_copy_construction@?$_Default_allocator_traits@V?$allocator@U?$ParamDescription_@V?$allocator@X@std@@@dynamic_reconfigure@@@std@@@std@@SA?AV?$allocator@U?$ParamDescription_@V?$allocator@X@std@@@dynamic_reconfigure@@@2@AEBV32@@Z
	?select_on_container_copy_construction@?$_Default_allocator_traits@V?$allocator@V?$shared_ptr@$$CBVAbstractGroupDescription@VideoStreamConfig@video_stream_opencv@@@boost@@@std@@@std@@SA?AV?$allocator@V?$shared_ptr@$$CBVAbstractGroupDescription@VideoStreamConfig@video_stream_opencv@@@boost@@@2@AEBV32@@Z
	?select_on_container_copy_construction@?$_Default_allocator_traits@V?$allocator@V?$shared_ptr@$$CBVAbstractParamDescription@VideoStreamConfig@video_stream_opencv@@@boost@@@std@@@std@@SA?AV?$allocator@V?$shared_ptr@$$CBVAbstractParamDescription@VideoStreamConfig@video_stream_opencv@@@boost@@@2@AEBV32@@Z
	?serializedLength@?$Serializer@E@serialization@ros@@SAIAEBE@Z
	?serializedLength@?$Serializer@H@serialization@ros@@SAIAEBH@Z
	?serializedLength@?$Serializer@I@serialization@ros@@SAIAEBI@Z
	?serializedLength@?$Serializer@N@serialization@ros@@SAIAEBN@Z
	?serializedLength@?$Serializer@V?$basic_string@DU?$char_traits@D@std@@V?$allocator@D@2@@std@@@serialization@ros@@SAIAEBV?$basic_string@DU?$char_traits@D@std@@V?$allocator@D@2@@std@@@Z
	?serializedLength@?$VectorSerializer@U?$BoolParameter_@V?$allocator@X@std@@@dynamic_reconfigure@@V?$allocator@U?$BoolParameter_@V?$allocator@X@std@@@dynamic_reconfigure@@@std@@X@serialization@ros@@SAIAEBV?$vector@U?$BoolParameter_@V?$allocator@X@std@@@dynamic_reconfigure@@V?$allocator@U?$BoolParameter_@V?$allocator@X@std@@@dynamic_reconfigure@@@std@@@std@@@Z
	?serializedLength@?$VectorSerializer@U?$DoubleParameter_@V?$allocator@X@std@@@dynamic_reconfigure@@V?$allocator@U?$DoubleParameter_@V?$allocator@X@std@@@dynamic_reconfigure@@@std@@X@serialization@ros@@SAIAEBV?$vector@U?$DoubleParameter_@V?$allocator@X@std@@@dynamic_reconfigure@@V?$allocator@U?$DoubleParameter_@V?$allocator@X@std@@@dynamic_reconfigure@@@std@@@std@@@Z
	?serializedLength@?$VectorSerializer@U?$GroupState_@V?$allocator@X@std@@@dynamic_reconfigure@@V?$allocator@U?$GroupState_@V?$allocator@X@std@@@dynamic_reconfigure@@@std@@X@serialization@ros@@SAIAEBV?$vector@U?$GroupState_@V?$allocator@X@std@@@dynamic_reconfigure@@V?$allocator@U?$GroupState_@V?$allocator@X@std@@@dynamic_reconfigure@@@std@@@std@@@Z
	?serializedLength@?$VectorSerializer@U?$Group_@V?$allocator@X@std@@@dynamic_reconfigure@@V?$allocator@U?$Group_@V?$allocator@X@std@@@dynamic_reconfigure@@@std@@X@serialization@ros@@SAIAEBV?$vector@U?$Group_@V?$allocator@X@std@@@dynamic_reconfigure@@V?$allocator@U?$Group_@V?$allocator@X@std@@@dynamic_reconfigure@@@std@@@std@@@Z
	?serializedLength@?$VectorSerializer@U?$IntParameter_@V?$allocator@X@std@@@dynamic_reconfigure@@V?$allocator@U?$IntParameter_@V?$allocator@X@std@@@dynamic_reconfigure@@@std@@X@serialization@ros@@SAIAEBV?$vector@U?$IntParameter_@V?$allocator@X@std@@@dynamic_reconfigure@@V?$allocator@U?$IntParameter_@V?$allocator@X@std@@@dynamic_reconfigure@@@std@@@std@@@Z
	?serializedLength@?$VectorSerializer@U?$ParamDescription_@V?$allocator@X@std@@@dynamic_reconfigure@@V?$allocator@U?$ParamDescription_@V?$allocator@X@std@@@dynamic_reconfigure@@@std@@X@serialization@ros@@SAIAEBV?$vector@U?$ParamDescription_@V?$allocator@X@std@@@dynamic_reconfigure@@V?$allocator@U?$ParamDescription_@V?$allocator@X@std@@@dynamic_reconfigure@@@std@@@std@@@Z
	?serializedLength@?$VectorSerializer@U?$StrParameter_@V?$allocator@X@std@@@dynamic_reconfigure@@V?$allocator@U?$StrParameter_@V?$allocator@X@std@@@dynamic_reconfigure@@@std@@X@serialization@ros@@SAIAEBV?$vector@U?$StrParameter_@V?$allocator@X@std@@@dynamic_reconfigure@@V?$allocator@U?$StrParameter_@V?$allocator@X@std@@@dynamic_reconfigure@@@std@@@std@@@Z
	?setCallback@?$Server@VVideoStreamConfig@video_stream_opencv@@@dynamic_reconfigure@@QEAAXAEBV?$function@$$A6AXAEAVVideoStreamConfig@video_stream_opencv@@I@Z@boost@@@Z
	?setConfigCallback@?$Server@VVideoStreamConfig@video_stream_opencv@@@dynamic_reconfigure@@AEAA_NAEAU?$ReconfigureRequest_@V?$allocator@X@std@@@2@AEAU?$ReconfigureResponse_@V?$allocator@X@std@@@2@@Z
	?setInitialState@?$GroupDescription@VDEFAULT@VideoStreamConfig@video_stream_opencv@@V23@@VideoStreamConfig@video_stream_opencv@@UEBAXAEAVany@boost@@@Z
	?setParams@DEFAULT@VideoStreamConfig@video_stream_opencv@@QEAAXAEAV23@V?$vector@V?$shared_ptr@$$CBVAbstractParamDescription@VideoStreamConfig@video_stream_opencv@@@boost@@V?$allocator@V?$shared_ptr@$$CBVAbstractParamDescription@VideoStreamConfig@video_stream_opencv@@@boost@@@std@@@std@@@Z
	?set_initialized@?$sp_ms_deleter@U?$ReconfigureRequest_@V?$allocator@X@std@@@dynamic_reconfigure@@@detail@boost@@QEAAXXZ
	?set_initialized@?$sp_ms_deleter@U?$ReconfigureResponse_@V?$allocator@X@std@@@dynamic_reconfigure@@@detail@boost@@QEAAXXZ
	?set_initialized@?$sp_ms_deleter@V?$Server@VVideoStreamConfig@video_stream_opencv@@@dynamic_reconfigure@@@detail@boost@@QEAAXXZ
	?set_initialized@?$sp_ms_deleter@V?$ServiceCallbackHelperT@U?$ServiceSpec@U?$ReconfigureRequest_@V?$allocator@X@std@@@dynamic_reconfigure@@U?$ReconfigureResponse_@V?$allocator@X@std@@@2@@ros@@@ros@@@detail@boost@@QEAAXXZ
	?set_initialized@?$sp_ms_deleter@VCvImage@cv_bridge@@@detail@boost@@QEAAXXZ
	?size@?$array@N$08@boost@@SA_KXZ
	?size@?$array@N$0M@@boost@@SA_KXZ
	?size@?$basic_string@DU?$char_traits@D@std@@V?$allocator@D@2@@std@@QEBA_KXZ
	?size@?$basic_string@_WU?$char_traits@_W@std@@V?$allocator@_W@2@@std@@QEBA_KXZ
	?size@?$deque@NV?$allocator@N@std@@@std@@QEBA_KXZ
	?size@?$deque@VMat@cv@@V?$allocator@VMat@cv@@@std@@@std@@QEBA_KXZ
	?size@?$generic_list@N@assign_detail@boost@@QEBA_KXZ
	?size@?$queue@VMat@cv@@V?$deque@VMat@cv@@V?$allocator@VMat@cv@@@std@@@std@@@std@@QEBA_KXZ
	?size@?$vector@U?$BoolParameter_@V?$allocator@X@std@@@dynamic_reconfigure@@V?$allocator@U?$BoolParameter_@V?$allocator@X@std@@@dynamic_reconfigure@@@std@@@std@@QEBA_KXZ
	?size@?$vector@U?$DoubleParameter_@V?$allocator@X@std@@@dynamic_reconfigure@@V?$allocator@U?$DoubleParameter_@V?$allocator@X@std@@@dynamic_reconfigure@@@std@@@std@@QEBA_KXZ
	?size@?$vector@U?$GroupState_@V?$allocator@X@std@@@dynamic_reconfigure@@V?$allocator@U?$GroupState_@V?$allocator@X@std@@@dynamic_reconfigure@@@std@@@std@@QEBA_KXZ
	?size@?$vector@U?$Group_@V?$allocator@X@std@@@dynamic_reconfigure@@V?$allocator@U?$Group_@V?$allocator@X@std@@@dynamic_reconfigure@@@std@@@std@@QEBA_KXZ
	?size@?$vector@U?$IntParameter_@V?$allocator@X@std@@@dynamic_reconfigure@@V?$allocator@U?$IntParameter_@V?$allocator@X@std@@@dynamic_reconfigure@@@std@@@std@@QEBA_KXZ
	?size@?$vector@U?$ParamDescription_@V?$allocator@X@std@@@dynamic_reconfigure@@V?$allocator@U?$ParamDescription_@V?$allocator@X@std@@@dynamic_reconfigure@@@std@@@std@@QEBA_KXZ
	?size@?$vector@U?$StrParameter_@V?$allocator@X@std@@@dynamic_reconfigure@@V?$allocator@U?$StrParameter_@V?$allocator@X@std@@@dynamic_reconfigure@@@std@@@std@@QEBA_KXZ
	?size@ConfigTools@dynamic_reconfigure@@SAHAEAU?$Config_@V?$allocator@X@std@@@2@@Z
	?sp_enable_shared_from_this@detail@boost@@YAXZZ
	?status@filesystem@boost@@YA?AVfile_status@12@AEBVpath@12@@Z
	?stoi@std@@YAHAEBV?$basic_string@DU?$char_traits@D@std@@V?$allocator@D@2@@1@PEA_KH@Z
	?string@path@filesystem@boost@@QEBA?BV?$basic_string@DU?$char_traits@D@std@@V?$allocator@D@2@@std@@XZ
	?subscribe@VideoStreamNodelet@video_stream_opencv@@MEAAXXZ
	?swap@?$function1@XAEBVSingleSubscriberPublisher@ros@@@boost@@QEAAXAEAV12@@Z
	?swap@?$function2@XAEAVVideoStreamConfig@video_stream_opencv@@I@boost@@QEAAXAEAV12@@Z
	?swap@?$shared_array@E@boost@@QEAAXAEAV12@@Z
	?swap@?$shared_ptr@$$CBVAbstractParamDescription@VideoStreamConfig@video_stream_opencv@@@boost@@QEAAXAEAV12@@Z
	?swap@?$shared_ptr@U?$Image_@V?$allocator@X@std@@@sensor_msgs@@@boost@@QEAAXAEAV12@@Z
	?swap@?$shared_ptr@U?$ReconfigureRequest_@V?$allocator@X@std@@@dynamic_reconfigure@@@boost@@QEAAXAEAV12@@Z
	?swap@?$shared_ptr@U?$ReconfigureResponse_@V?$allocator@X@std@@@dynamic_reconfigure@@@boost@@QEAAXAEAV12@@Z
	?swap@?$shared_ptr@V?$Server@VVideoStreamConfig@video_stream_opencv@@@dynamic_reconfigure@@@boost@@QEAAXAEAV12@@Z
	?swap@?$shared_ptr@V?$map@V?$basic_string@DU?$char_traits@D@std@@V?$allocator@D@2@@std@@V12@U?$less@V?$basic_string@DU?$char_traits@D@std@@V?$allocator@D@2@@std@@@2@V?$allocator@U?$pair@$$CBV?$basic_string@DU?$char_traits@D@std@@V?$allocator@D@2@@std@@V12@@std@@@2@@std@@@boost@@QEAAXAEAV12@@Z
	?swap@?$shared_ptr@VCvImage@cv_bridge@@@boost@@QEAAXAEAV12@@Z
	?swap@?$shared_ptr@VNodeHandle@ros@@@boost@@QEAAXAEAV12@@Z
	?swap@?$shared_ptr@VServiceCallbackHelper@ros@@@boost@@QEAAXAEAV12@@Z
	?swap@?$shared_ptr@VVideoCapture@cv@@@boost@@QEAAXAEAV12@@Z
	?swap@any@boost@@QEAAAEAV12@AEAV12@@Z
	?swap@shared_count@detail@boost@@QEAAXAEAV123@@Z
	?system_category@system@boost@@YAAEBVerror_category@12@XZ
	?system_category_default_error_condition_win32@detail@system@boost@@YA?AVerror_condition@23@H@Z
	?system_category_message_win32@detail@system@boost@@YA?AV?$basic_string@DU?$char_traits@D@std@@V?$allocator@D@2@@std@@H@Z
	?system_category_message_win32@detail@system@boost@@YAPEBDHPEAD_K@Z
	?throw_exception_assert_compatibility@boost@@YAXAEBVexception@std@@@Z
	?toMessage@?$GroupDescription@VDEFAULT@VideoStreamConfig@video_stream_opencv@@V23@@VideoStreamConfig@video_stream_opencv@@UEBAXAEAU?$Config_@V?$allocator@X@std@@@dynamic_reconfigure@@AEBVany@boost@@@Z
	?toMessage@?$ParamDescription@H@VideoStreamConfig@video_stream_opencv@@UEBAXAEAU?$Config_@V?$allocator@X@std@@@dynamic_reconfigure@@AEBV23@@Z
	?toMessage@?$ParamDescription@N@VideoStreamConfig@video_stream_opencv@@UEBAXAEAU?$Config_@V?$allocator@X@std@@@dynamic_reconfigure@@AEBV23@@Z
	?toMessage@?$ParamDescription@V?$basic_string@DU?$char_traits@D@std@@V?$allocator@D@2@@std@@@VideoStreamConfig@video_stream_opencv@@UEBAXAEAU?$Config_@V?$allocator@X@std@@@dynamic_reconfigure@@AEBV23@@Z
	?toMessage@?$ParamDescription@_N@VideoStreamConfig@video_stream_opencv@@UEBAXAEAU?$Config_@V?$allocator@X@std@@@dynamic_reconfigure@@AEBV23@@Z
	?toServer@?$ParamDescription@H@VideoStreamConfig@video_stream_opencv@@UEBAXAEBVNodeHandle@ros@@AEBV23@@Z
	?toServer@?$ParamDescription@N@VideoStreamConfig@video_stream_opencv@@UEBAXAEBVNodeHandle@ros@@AEBV23@@Z
	?toServer@?$ParamDescription@V?$basic_string@DU?$char_traits@D@std@@V?$allocator@D@2@@std@@@VideoStreamConfig@video_stream_opencv@@UEBAXAEBVNodeHandle@ros@@AEBV23@@Z
	?toServer@?$ParamDescription@_N@VideoStreamConfig@video_stream_opencv@@UEBAXAEBVNodeHandle@ros@@AEBV23@@Z
	?to_char_type@?$_Narrow_char_traits@DH@std@@SADAEBH@Z
	?to_int_type@?$_Narrow_char_traits@DH@std@@SAHAEBD@Z
	?total@Mat@cv@@QEBA_KXZ
	?try_lock@basic_timed_mutex@detail@boost@@QEAA_NXZ
	?try_recursive_lock@?$basic_recursive_mutex_impl@Ubasic_timed_mutex@detail@boost@@@detail@boost@@AEAA_NJ@Z
	?type@?$holder@H@any@boost@@UEBAAEBVtype_info@@XZ
	?type@?$holder@N@any@boost@@UEBAAEBVtype_info@@XZ
	?type@?$holder@PEAVDEFAULT@VideoStreamConfig@video_stream_opencv@@@any@boost@@UEBAAEBVtype_info@@XZ
	?type@?$holder@PEAVVideoStreamConfig@video_stream_opencv@@@any@boost@@UEBAAEBVtype_info@@XZ
	?type@?$holder@V?$basic_string@DU?$char_traits@D@std@@V?$allocator@D@2@@std@@@any@boost@@UEBAAEBVtype_info@@XZ
	?type@?$holder@VDEFAULT@VideoStreamConfig@video_stream_opencv@@@any@boost@@UEBAAEBVtype_info@@XZ
	?type@?$holder@VVideoStreamConfig@video_stream_opencv@@@any@boost@@UEBAAEBVtype_info@@XZ
	?type@?$holder@_N@any@boost@@UEBAAEBVtype_info@@XZ
	?type@any@boost@@QEBAAEBVtype_info@@XZ
	?type@file_status@filesystem@boost@@QEBA?AW4file_type@23@XZ
	?type_info@stl_type_index@typeindex@boost@@QEBAAEBV0@XZ
	?underflow@?$basic_stringbuf@DU?$char_traits@D@std@@V?$allocator@D@2@@std@@MEAAHXZ
	?unknown_message_win32@detail@system@boost@@YA?AV?$basic_string@DU?$char_traits@D@std@@V?$allocator@D@2@@std@@H@Z
	?unknown_message_win32@detail@system@boost@@YAPEBDHPEAD_K@Z
	?unlock@?$basic_recursive_mutex_impl@Ubasic_timed_mutex@detail@boost@@@detail@boost@@QEAAXXZ
	?unlock@_Mutex_base@std@@QEAAXXZ
	?unlock@basic_timed_mutex@detail@boost@@QEAAXXZ
	?unsubscribe@VideoStreamNodelet@video_stream_opencv@@MEAAXXZ
	?unwrap@?$unwrapper@P6A?AVSerializedMessage@ros@@AEBU?$ConfigDescription_@V?$allocator@X@std@@@dynamic_reconfigure@@@Z@_bi@boost@@SAAEAP6A?AVSerializedMessage@ros@@AEBU?$ConfigDescription_@V?$allocator@X@std@@@dynamic_reconfigure@@@ZAEAP6A?AV45@0@ZJ@Z
	?unwrap@?$unwrapper@P6A?AVSerializedMessage@ros@@AEBU?$Config_@V?$allocator@X@std@@@dynamic_reconfigure@@@Z@_bi@boost@@SAAEAP6A?AVSerializedMessage@ros@@AEBU?$Config_@V?$allocator@X@std@@@dynamic_reconfigure@@@ZAEAP6A?AV45@0@ZJ@Z
	?unwrap@?$unwrapper@V?$mf0@XVVideoStreamNodelet@video_stream_opencv@@@_mfi@boost@@@_bi@boost@@SAAEAV?$mf0@XVVideoStreamNodelet@video_stream_opencv@@@_mfi@3@AEAV453@J@Z
	?unwrap@?$unwrapper@V?$mf1@XVVideoStreamNodelet@video_stream_opencv@@AEBUTimerEvent@ros@@@_mfi@boost@@@_bi@boost@@SAAEAV?$mf1@XVVideoStreamNodelet@video_stream_opencv@@AEBUTimerEvent@ros@@@_mfi@3@AEAV453@J@Z
	?unwrap@?$unwrapper@V?$mf1@XVVideoStreamNodelet@video_stream_opencv@@AEBVSingleSubscriberPublisher@image_transport@@@_mfi@boost@@@_bi@boost@@SAAEAV?$mf1@XVVideoStreamNodelet@video_stream_opencv@@AEBVSingleSubscriberPublisher@image_transport@@@_mfi@3@AEAV453@J@Z
	?unwrap@?$unwrapper@V?$mf1@XVVideoStreamNodelet@video_stream_opencv@@AEBVSingleSubscriberPublisher@ros@@@_mfi@boost@@@_bi@boost@@SAAEAV?$mf1@XVVideoStreamNodelet@video_stream_opencv@@AEBVSingleSubscriberPublisher@ros@@@_mfi@3@AEAV453@J@Z
	?unwrap@?$unwrapper@V?$mf2@XVVideoStreamNodelet@video_stream_opencv@@AEAVVideoStreamConfig@2@I@_mfi@boost@@@_bi@boost@@SAAEAV?$mf2@XVVideoStreamNodelet@video_stream_opencv@@AEAVVideoStreamConfig@2@I@_mfi@3@AEAV453@J@Z
	?unwrap@?$unwrapper@V?$mf2@_NV?$Server@VVideoStreamConfig@video_stream_opencv@@@dynamic_reconfigure@@AEAU?$ReconfigureRequest_@V?$allocator@X@std@@@2@AEAU?$ReconfigureResponse_@V?$allocator@X@std@@@2@@_mfi@boost@@@_bi@boost@@SAAEAV?$mf2@_NV?$Server@VVideoStreamConfig@video_stream_opencv@@@dynamic_reconfigure@@AEAU?$ReconfigureRequest_@V?$allocator@X@std@@@2@AEAU?$ReconfigureResponse_@V?$allocator@X@std@@@2@@_mfi@3@AEAV453@J@Z
	?updateConfigInternal@?$Server@VVideoStreamConfig@video_stream_opencv@@@dynamic_reconfigure@@AEAAXAEBVVideoStreamConfig@video_stream_opencv@@@Z
	?updateParams@?$GroupDescription@VDEFAULT@VideoStreamConfig@video_stream_opencv@@V23@@VideoStreamConfig@video_stream_opencv@@UEBAXAEAVany@boost@@AEAV23@@Z
	?value@?$DataType@U?$ConfigDescription_@V?$allocator@X@std@@@dynamic_reconfigure@@@message_traits@ros@@SAPEBDXZ
	?value@?$DataType@U?$Config_@V?$allocator@X@std@@@dynamic_reconfigure@@@message_traits@ros@@SAPEBDXZ
	?value@?$DataType@U?$ReconfigureRequest_@V?$allocator@X@std@@@dynamic_reconfigure@@@message_traits@ros@@SAPEBDXZ
	?value@?$DataType@U?$ReconfigureRequest_@V?$allocator@X@std@@@dynamic_reconfigure@@@service_traits@ros@@SAPEBDXZ
	?value@?$DataType@U?$ReconfigureResponse_@V?$allocator@X@std@@@dynamic_reconfigure@@@message_traits@ros@@SAPEBDXZ
	?value@?$DataType@UReconfigure@dynamic_reconfigure@@@service_traits@ros@@SAPEBDXZ
	?value@?$Definition@U?$ConfigDescription_@V?$allocator@X@std@@@dynamic_reconfigure@@@message_traits@ros@@SAPEBDXZ
	?value@?$Definition@U?$Config_@V?$allocator@X@std@@@dynamic_reconfigure@@@message_traits@ros@@SAPEBDXZ
	?value@?$MD5Sum@U?$ConfigDescription_@V?$allocator@X@std@@@dynamic_reconfigure@@@message_traits@ros@@SAPEBDXZ
	?value@?$MD5Sum@U?$Config_@V?$allocator@X@std@@@dynamic_reconfigure@@@message_traits@ros@@SAPEBDXZ
	?value@?$MD5Sum@U?$ReconfigureRequest_@V?$allocator@X@std@@@dynamic_reconfigure@@@service_traits@ros@@SAPEBDXZ
	?value@?$MD5Sum@U?$ReconfigureResponse_@V?$allocator@X@std@@@dynamic_reconfigure@@@service_traits@ros@@SAPEBDXZ
	?value@?$MD5Sum@UReconfigure@dynamic_reconfigure@@@service_traits@ros@@SAPEBDXZ
	?value@error_code@system@boost@@QEBAHXZ
	?weak_release@sp_counted_base@detail@boost@@QEAAXXZ
	?what@assignment_exception@assign@boost@@UEBAPEBDXZ
	?what@bad_any_cast@boost@@UEBAPEBDXZ
	?what@exception@std@@UEBAPEBDXZ
	?what@system_error@system@boost@@UEBAPEBDXZ
	__local_stdio_printf_options
	snprintf
	vsnprintf
	wmemcpy
